 Crinkler

 Timestamp is 69ff248e (Sat May  9 14:11:58 2026)

 Preferred load address is 00400000

 Start         Length     Name                   Class
 0001:00000000 00000180H .text$di                CODE
 0001:00000180 00082910H .text$mn                CODE
 0001:00082a90 00001290H .text$x                 CODE
 0001:00083d20 0000009aH .text$yd                CODE
 0002:00000000 000002b4H .idata$5                DATA
 0002:000002b4 00000008H .00cfg                  DATA
 0002:000002bc 00000004H .CRT$XCA                DATA
 0002:000002c0 00000004H .CRT$XCAA               DATA
 0002:000002c4 00000014H .CRT$XCC                DATA
 0002:000002d8 00000008H .CRT$XCL                DATA
 0002:000002e0 00000018H .CRT$XCU                DATA
 0002:000002f8 00000004H .CRT$XCZ                DATA
 0002:000002fc 00000004H .CRT$XIA                DATA
 0002:00000300 00000004H .CRT$XIAA               DATA
 0002:00000304 00000004H .CRT$XIAC               DATA
 0002:00000308 0000001cH .CRT$XIC                DATA
 0002:00000324 00000004H .CRT$XIZ                DATA
 0002:00000328 00000004H .CRT$XPA                DATA
 0002:0000032c 00000004H .CRT$XPB                DATA
 0002:00000330 00000008H .CRT$XPX                DATA
 0002:00000338 00000004H .CRT$XPXA               DATA
 0002:0000033c 00000004H .CRT$XPZ                DATA
 0002:00000340 00000004H .CRT$XTA                DATA
 0002:00000344 0000001cH .CRT$XTZ                DATA
 0002:00000348 00000000H .gfids$y                DATA
 0002:00000348 00000000H .giats$y                DATA
 0002:00000360 000320e0H .rdata                  DATA
 0002:00032440 00000000H .rdata$CastGuardVftablesA DATA
 0002:00032440 00000000H .rdata$CastGuardVftablesC DATA
 0002:00032440 00001b90H .rdata$r                DATA
 0002:00033fd0 00001170H .rdata$voltmd           DATA
 0002:00035140 000003f4H .rdata$zzzdbg           DATA
 0002:00035534 00000004H .rtc$IAA                DATA
 0002:00035538 00000004H .rtc$IZZ                DATA
 0002:0003553c 00000004H .rtc$TAA                DATA
 0002:00035540 00000008H .rtc$TZZ                DATA
 0002:00035548 0000217cH .xdata$x                DATA
 0002:000376c4 00000000H .edata                  DATA
 0002:000376c4 00000050H .idata$2                DATA
 0002:00037714 00000014H .idata$3                DATA
 0002:00037728 000002b4H .idata$4                DATA
 0002:000379dc 00000d3aH .idata$6                DATA
 0003:00000000 0002ebd0H .data                   DATA
 0003:0002ebd0 00001300H .data$r                 DATA
 0003:0002fed0 00000e28H .data$rs                DATA
 0003:00030cf8 00046c98H .bss                    DATA
 0004:00000000 00008000H logtable                DATA
 0005:00000000 00000080H .fptable                DATA
 0006:00000000 00000100H .rsrc$01                DATA
 0006:00000100 000001b0H .rsrc$02                DATA

  Address         Publics by Value              Rva+Base       Lib:Object

 0000:00000000       ___AbsoluteZero            00000000     <absolute>
 0000:00000000       ___arm64x_extra_rfe_table  00000000     <absolute>
 0000:00000000       ___arm64x_extra_rfe_table_size 00000000     <absolute>
 0000:00000000       ___arm64x_native_entrypoint 00000000     <absolute>
 0000:00000000       ___arm64x_redirection_metadata 00000000     <absolute>
 0000:00000000       ___arm64x_redirection_metadata_count 00000000     <absolute>
 0000:00000000       ___dynamic_value_reloc_table 00000000     <absolute>
 0000:00000000       ___enclave_config          00000000     <absolute>
 0000:00000000       ___guard_check_icall_a64n_fptr 00000000     <absolute>
 0000:00000000       ___guard_eh_cont_count     00000000     <absolute>
 0000:00000000       ___guard_eh_cont_table     00000000     <absolute>
 0000:00000000       ___guard_fids_count        00000000     <absolute>
 0000:00000000       ___guard_fids_table        00000000     <absolute>
 0000:00000000       ___guard_iat_count         00000000     <absolute>
 0000:00000000       ___guard_iat_table         00000000     <absolute>
 0000:00000000       ___guard_longjmp_count     00000000     <absolute>
 0000:00000000       ___guard_longjmp_table     00000000     <absolute>
 0000:00000000       ___hybrid_auxiliary_delayload_iat 00000000     <absolute>
 0000:00000000       ___hybrid_auxiliary_delayload_iat_copy 00000000     <absolute>
 0000:00000000       ___hybrid_auxiliary_iat    00000000     <absolute>
 0000:00000000       ___hybrid_auxiliary_iat_copy 00000000     <absolute>
 0000:00000000       ___hybrid_code_map         00000000     <absolute>
 0000:00000000       ___hybrid_code_map_count   00000000     <absolute>
 0000:00000000       ___hybrid_image_info_bitfield 00000000     <absolute>
 0000:00000000       ___safe_se_handler_count   00000000     <absolute>
 0000:00000000       ___safe_se_handler_table   00000000     <absolute>
 0000:00000000       ___x64_code_ranges_to_entry_points 00000000     <absolute>
 0000:00000000       ___x64_code_ranges_to_entry_points_count 00000000     <absolute>
 0000:00000000       __except_list              00000000     <absolute>
 0000:00000100       ___guard_flags             00000100     <absolute>
 0000:00000000       ___ImageBase               00400000     <linker-defined>
 0001:00000180       ??$?RD@_Precision_checker@std@@SA_KD@Z 00401180 f i Crinkler.obj
 0001:00000180       ??$?RM@_Precision_checker@std@@SA_KM@Z 00401180 f i Crinkler.obj
 0001:00000180       ??$?RN@_Precision_checker@std@@SA_KN@Z 00401180 f i Crinkler.obj
 0001:00000180       ??$?RO@_Precision_checker@std@@SA_KO@Z 00401180 f i Crinkler.obj
 0001:00000180       ??$?RPBD@_Precision_checker@std@@SA_KQBD@Z 00401180 f i Crinkler.obj
 0001:00000180       ??$?RPBX@_Precision_checker@std@@SA_KQBX@Z 00401180 f i Crinkler.obj
 0001:00000180       ??$?RUmonostate@std@@@_Precision_checker@std@@SA_KUmonostate@1@@Z 00401180 f i Crinkler.obj
 0001:00000180       ??$?RV?$basic_string_view@DU?$char_traits@D@std@@@std@@@_Precision_checker@std@@SA_KV?$basic_string_view@DU?$char_traits@D@std@@@1@@Z 00401180 f i Crinkler.obj
 0001:00000180       ??$?RVhandle@?$basic_format_arg@V?$basic_format_context@V?$back_insert_iterator@V?$_Fmt_buffer@D@std@@@std@@D@std@@@std@@@_Precision_checker@std@@SA_KVhandle@?$basic_format_arg@V?$basic_format_context@V?$back_insert_iterator@V?$_Fmt_buffer@D@std@@@std@@D@std@@@1@@Z 00401180 f i Crinkler.obj
 0001:00000180       ??$?R_N@_Precision_checker@std@@SA_K_N@Z 00401180 f i Crinkler.obj
 0001:00000190       ??$?RD@_Width_checker@std@@SA_KD@Z 00401190 f i Crinkler.obj
 0001:00000190       ??$?RM@_Width_checker@std@@SA_KM@Z 00401190 f i Crinkler.obj
 0001:00000190       ??$?RN@_Width_checker@std@@SA_KN@Z 00401190 f i Crinkler.obj
 0001:00000190       ??$?RO@_Width_checker@std@@SA_KO@Z 00401190 f i Crinkler.obj
 0001:00000190       ??$?RPBD@_Width_checker@std@@SA_KQBD@Z 00401190 f i Crinkler.obj
 0001:00000190       ??$?RPBX@_Width_checker@std@@SA_KQBX@Z 00401190 f i Crinkler.obj
 0001:00000190       ??$?RUmonostate@std@@@_Width_checker@std@@SA_KUmonostate@1@@Z 00401190 f i Crinkler.obj
 0001:00000190       ??$?RV?$basic_string_view@DU?$char_traits@D@std@@@std@@@_Width_checker@std@@SA_KV?$basic_string_view@DU?$char_traits@D@std@@@1@@Z 00401190 f i Crinkler.obj
 0001:00000190       ??$?RVhandle@?$basic_format_arg@V?$basic_format_context@V?$back_insert_iterator@V?$_Fmt_buffer@D@std@@@std@@D@std@@@std@@@_Width_checker@std@@SA_KVhandle@?$basic_format_arg@V?$basic_format_context@V?$back_insert_iterator@V?$_Fmt_buffer@D@std@@@std@@D@std@@@1@@Z 00401190 f i Crinkler.obj
 0001:00000190       ??$?R_N@_Width_checker@std@@SA_K_N@Z 00401190 f i Crinkler.obj
 0001:000001a0       ??$?RDV?$back_insert_iterator@V?$_Fmt_buffer@D@std@@@std@@@_Fill_n_fn@ranges@std@@SA?AV?$back_insert_iterator@V?$_Fmt_buffer@D@std@@@2@V32@HABD@Z 004011a0 f i Crinkler.obj
 0001:000001f0       ??$?RH@?$_Arg_formatter@V?$back_insert_iterator@V?$_Fmt_buffer@D@std@@@std@@D@std@@QAE?AV?$back_insert_iterator@V?$_Fmt_buffer@D@std@@@1@H@Z 004011f0 f i Crinkler.obj
 0001:00000220       ??$?RH@_Precision_checker@std@@SA_KH@Z 00401220 f i Crinkler.obj
 0001:00000240       ??$?RH@_Width_checker@std@@SA_KH@Z 00401240 f i Crinkler.obj
 0001:00000260       ??$?__MDU?$char_traits@D@std@@V?$allocator@D@1@@std@@YA?AUstrong_ordering@0@ABV?$basic_string@DU?$char_traits@D@std@@V?$allocator@D@2@@0@0@Z 00401260 f i Crinkler.obj
 0001:00000300       ??$_Allocate_manually_vector_aligned@U_Default_allocate_traits@std@@@std@@YAPAXI@Z 00401300 f i Crinkler.obj
 0001:00000340       ??$_Atomic_address_as@DU?$_Atomic_padded@_N@std@@@std@@YAPCDAAU?$_Atomic_padded@_N@0@@Z 00401340 f i Crinkler.obj
 0001:00000340       ??$_Atomic_address_as@DU?$_Atomic_padded@_N@std@@@std@@YAPDDABU?$_Atomic_padded@_N@0@@Z 00401340 f i Crinkler.obj
 0001:00000340       ??$_Atomic_address_as@HU?$_Atomic_padded@H@std@@@std@@YAPDHABU?$_Atomic_padded@H@0@@Z 00401340 f i Crinkler.obj
 0001:00000340       ??$_Atomic_address_as@JU?$_Atomic_padded@H@std@@@std@@YAPCJAAU?$_Atomic_padded@H@0@@Z 00401340 f i Crinkler.obj
 0001:00000350       ??$_Atomic_reinterpret_as@D_N@std@@YADAB_N@Z 00401350 f i Crinkler.obj
 0001:00000360       ??$_Construct@$00PBD@?$basic_string@DU?$char_traits@D@std@@V?$allocator@D@2@@std@@AAEXQBDI@Z 00401360 f i Crinkler.obj
 0001:00000420       ??$_Copy_backward_memmove@PADPAD@std@@YAPADPAD00@Z 00401420 f i Crinkler.obj
 0001:00000420       ??$_Copy_backward_memmove@PAPAVHunk@@PAPAV1@@std@@YAPAPAVHunk@@PAPAV1@00@Z 00401420 f i ImportHandler.obj
 0001:00000420       ??$_Copy_backward_memmove@PAPAVPart@@PAPAV1@@std@@YAPAPAVPart@@PAPAV1@00@Z 00401420 f i PartList.obj
 0001:00000420       ??$_Copy_backward_memmove@PAPAVSymbol@@PAPAV1@@std@@YAPAPAVSymbol@@PAPAV1@00@Z 00401420 f i Hunk.obj
 0001:00000440       ??$_Copy_memmove@PADPAD@std@@YAPADPAD00@Z 00401440 f i Crinkler.obj
 0001:00000440       ??$_Copy_memmove@PAEPAE@std@@YAPAEPAE00@Z 00401440 f i Hunk.obj
 0001:00000440       ??$_Copy_memmove@PBDPAD@std@@YAPADPBD0PAD@Z 00401440 f i Crinkler.obj
 0001:00000440       ??$_Copy_memmove@PBDPAE@std@@YAPAEPBD0PAE@Z 00401440 f i Hunk.obj
 0001:00000460       ??$_Copy_memmove@PAHPAH@std@@YAPAHPAH00@Z 00401460 f i Crinkler.obj
 0001:00000460       ??$_Copy_memmove@PAIPAI@std@@YAPAIPAI00@Z 00401460 f i ImportHandler.obj
 0001:00000460       ??$_Copy_memmove@PAPAPAVHunk@@PAPAPAV1@@std@@YAPAPAPAVHunk@@PAPAPAV1@00@Z 00401460 f i PartList.obj
 0001:00000460       ??$_Copy_memmove@PAPAUCompressionReportRecord@@PAPAU1@@std@@YAPAPAUCompressionReportRecord@@PAPAU1@00@Z 00401460 f i Hunk.obj
 0001:00000460       ??$_Copy_memmove@PAPAVCmdParam@@PAPAV1@@std@@YAPAPAVCmdParam@@PAPAV1@00@Z 00401460 f i CmdLineInterface.obj
 0001:00000460       ??$_Copy_memmove@PAPAVHunk@@PAPAV1@@std@@YAPAPAVHunk@@PAPAV1@00@Z 00401460 f i Crinkler.obj
 0001:00000460       ??$_Copy_memmove@PAPAVHunkLoader@@PAPAV1@@std@@YAPAPAVHunkLoader@@PAPAV1@00@Z 00401460 f i MultiLoader.obj
 0001:00000460       ??$_Copy_memmove@PAPAVPart@@PAPAV1@@std@@YAPAPAVPart@@PAPAV1@00@Z 00401460 f i PartList.obj
 0001:00000460       ??$_Copy_memmove@PAPAVProgressBar@@PAPAV1@@std@@YAPAPAVProgressBar@@PAPAV1@00@Z 00401460 f i CompositeProgressBar.obj
 0001:00000460       ??$_Copy_memmove@PAPAVSymbol@@PAPAV1@@std@@YAPAPAVSymbol@@PAPAV1@00@Z 00401460 f i Crinkler.obj
 0001:00000480       ??$_Copy_memmove_n@PADPAD@std@@YAPADPADI0@Z 00401480 f i Crinkler.obj
 0001:00000480       ??$_Copy_memmove_n@PBDPAD@std@@YAPADPBDIPAD@Z 00401480 f i Crinkler.obj
 0001:000004a0       ??$_Copy_memmove_tail@PAD@std@@YAPADQBDQADII@Z 004014a0 f i Crinkler.obj
 0001:000004a0       ??$_Copy_memmove_tail@PAE@std@@YAPAEQBDQAEII@Z 004014a0 f i Hunk.obj
 0001:000004a0       ??$_Copy_memmove_tail@PAH@std@@YAPAHQBDQAHII@Z 004014a0 f i Crinkler.obj
 0001:000004a0       ??$_Copy_memmove_tail@PAI@std@@YAPAIQBDQAIII@Z 004014a0 f i ImportHandler.obj
 0001:000004a0       ??$_Copy_memmove_tail@PAPAPAVHunk@@@std@@YAPAPAPAVHunk@@QBDQAPAPAV1@II@Z 004014a0 f i PartList.obj
 0001:000004a0       ??$_Copy_memmove_tail@PAPAUCompressionReportRecord@@@std@@YAPAPAUCompressionReportRecord@@QBDQAPAU1@II@Z 004014a0 f i Hunk.obj
 0001:000004a0       ??$_Copy_memmove_tail@PAPAVCmdParam@@@std@@YAPAPAVCmdParam@@QBDQAPAV1@II@Z 004014a0 f i CmdLineInterface.obj
 0001:000004a0       ??$_Copy_memmove_tail@PAPAVHunk@@@std@@YAPAPAVHunk@@QBDQAPAV1@II@Z 004014a0 f i Crinkler.obj
 0001:000004a0       ??$_Copy_memmove_tail@PAPAVHunkLoader@@@std@@YAPAPAVHunkLoader@@QBDQAPAV1@II@Z 004014a0 f i MultiLoader.obj
 0001:000004a0       ??$_Copy_memmove_tail@PAPAVPart@@@std@@YAPAPAVPart@@QBDQAPAV1@II@Z 004014a0 f i PartList.obj
 0001:000004a0       ??$_Copy_memmove_tail@PAPAVProgressBar@@@std@@YAPAPAVProgressBar@@QBDQAPAV1@II@Z 004014a0 f i CompositeProgressBar.obj
 0001:000004a0       ??$_Copy_memmove_tail@PAPAVSymbol@@@std@@YAPAPAVSymbol@@QBDQAPAV1@II@Z 004014a0 f i Crinkler.obj
 0001:000004a0       ??$_Copy_memmove_tail@PAU?$pair@PADH@std@@@std@@YAPAU?$pair@PADH@0@QBDQAU10@II@Z 004014a0 f i Export.obj
 0001:000004c0       ??$_Copy_unchecked@PBDPBDV?$back_insert_iterator@V?$_Fmt_buffer@D@std@@@std@@@ranges@std@@YA?AU?$in_out_result@PBDV?$back_insert_iterator@V?$_Fmt_buffer@D@std@@@std@@@01@PBD0V?$back_insert_iterator@V?$_Fmt_buffer@D@std@@@1@@Z 004014c0 f i Crinkler.obj
 0001:00000510       ??$_Destroy_range@V?$allocator@UHashBits@@@std@@@std@@YAXPAUHashBits@@QAU1@AAV?$allocator@UHashBits@@@0@@Z 00401510 f i Crinkler.obj
 0001:00000550       ??$_Emplace_one_at_back@ABH@?$vector@HV?$allocator@H@std@@@std@@AAEAAHABH@Z 00401550 f i Crinkler.obj
 0001:00000550       ??$_Emplace_one_at_back@H@?$vector@HV?$allocator@H@std@@@std@@AAEAAH$$QAH@Z 00401550 f i Crinkler.obj
 0001:00000550       ??$_Emplace_one_at_back@PAVPart@@@?$vector@PAVPart@@V?$allocator@PAVPart@@@std@@@std@@AAEAAPAVPart@@$$QAPAV2@@Z 00401550 f i PartList.obj
 0001:00000670       ??$_Emplace_reallocate@ABQAUCompressionReportRecord@@@?$vector@PAUCompressionReportRecord@@V?$allocator@PAUCompressionReportRecord@@@std@@@std@@AAEPAPAUCompressionReportRecord@@QAPAU2@ABQAU2@@Z 00401670 f i Hunk.obj
 0001:00000670       ??$_Emplace_reallocate@ABQAVCmdParam@@@?$vector@PAVCmdParam@@V?$allocator@PAVCmdParam@@@std@@@std@@AAEPAPAVCmdParam@@QAPAV2@ABQAV2@@Z 00401670 f i CmdLineInterface.obj
 0001:00000670       ??$_Emplace_reallocate@ABQAVHunk@@@?$vector@PAVHunk@@V?$allocator@PAVHunk@@@std@@@std@@AAEPAPAVHunk@@QAPAV2@ABQAV2@@Z 00401670 f i Crinkler.obj
 0001:00000670       ??$_Emplace_reallocate@ABQAVProgressBar@@@?$vector@PAVProgressBar@@V?$allocator@PAVProgressBar@@@std@@@std@@AAEPAPAVProgressBar@@QAPAV2@ABQAV2@@Z 00401670 f i CompositeProgressBar.obj
 0001:00000670       ??$_Emplace_reallocate@ABQAVSymbol@@@?$vector@PAVSymbol@@V?$allocator@PAVSymbol@@@std@@@std@@AAEPAPAVSymbol@@QAPAV2@ABQAV2@@Z 00401670 f i Hunk.obj
 0001:00000670       ??$_Emplace_reallocate@I@?$vector@IV?$allocator@I@std@@@std@@AAEPAIQAI$$QAI@Z 00401670 f i ImportHandler.obj
 0001:00000670       ??$_Emplace_reallocate@PAVHunkLoader@@@?$vector@PAVHunkLoader@@V?$allocator@PAVHunkLoader@@@std@@@std@@AAEPAPAVHunkLoader@@QAPAV2@$$QAPAV2@@Z 00401670 f i MultiLoader.obj
 0001:00000670       ??$_Emplace_reallocate@PAVSymbol@@@?$vector@PAVSymbol@@V?$allocator@PAVSymbol@@@std@@@std@@AAEPAPAVSymbol@@QAPAV2@$$QAPAV2@@Z 00401670 f i Crinkler.obj
 0001:000007c0       ??$_Erase_tree@V?$allocator@U?$_Tree_node@U?$pair@$$CBV?$basic_string@DU?$char_traits@D@std@@V?$allocator@D@2@@std@@H@std@@PAX@std@@@std@@@?$_Tree_val@U?$_Tree_simple_types@U?$pair@$$CBV?$basic_string@DU?$char_traits@D@std@@V?$allocator@D@2@@std@@H@std@@@std@@@std@@QAEXAAV?$allocator@U?$_Tree_node@U?$pair@$$CBV?$basic_string@DU?$char_traits@D@std@@V?$allocator@D@2@@std@@H@std@@PAX@std@@@1@PAU?$_Tree_node@U?$pair@$$CBV?$basic_string@DU?$char_traits@D@std@@V?$allocator@D@2@@std@@H@std@@PAX@1@@Z 004017c0 f i HtmlReport.obj
 0001:000007c0       ??$_Erase_tree@V?$allocator@U?$_Tree_node@U?$pair@$$CBV?$basic_string@DU?$char_traits@D@std@@V?$allocator@D@2@@std@@PAVMemoryFile@@@std@@PAX@std@@@std@@@?$_Tree_val@U?$_Tree_simple_types@U?$pair@$$CBV?$basic_string@DU?$char_traits@D@std@@V?$allocator@D@2@@std@@PAVMemoryFile@@@std@@@std@@@std@@QAEXAAV?$allocator@U?$_Tree_node@U?$pair@$$CBV?$basic_string@DU?$char_traits@D@std@@V?$allocator@D@2@@std@@PAVMemoryFile@@@std@@PAX@std@@@1@PAU?$_Tree_node@U?$pair@$$CBV?$basic_string@DU?$char_traits@D@std@@V?$allocator@D@2@@std@@PAVMemoryFile@@@std@@PAX@1@@Z 004017c0 f i main.obj
 0001:000007c0       ??$_Erase_tree@V?$allocator@U?$_Tree_node@U?$pair@$$CBV?$basic_string@DU?$char_traits@D@std@@V?$allocator@D@2@@std@@PAVModelList4k@@@std@@PAX@std@@@std@@@?$_Tree_val@U?$_Tree_simple_types@U?$pair@$$CBV?$basic_string@DU?$char_traits@D@std@@V?$allocator@D@2@@std@@PAVModelList4k@@@std@@@std@@@std@@QAEXAAV?$allocator@U?$_Tree_node@U?$pair@$$CBV?$basic_string@DU?$char_traits@D@std@@V?$allocator@D@2@@std@@PAVModelList4k@@@std@@PAX@std@@@1@PAU?$_Tree_node@U?$pair@$$CBV?$basic_string@DU?$char_traits@D@std@@V?$allocator@D@2@@std@@PAVModelList4k@@@std@@PAX@1@@Z 004017c0 f i Reuse.obj
 0001:000007c0       ??$_Erase_tree@V?$allocator@U?$_Tree_node@U?$pair@$$CBV?$basic_string@DU?$char_traits@D@std@@V?$allocator@D@2@@std@@PAVSymbol@@@std@@PAX@std@@@std@@@?$_Tree_val@U?$_Tree_simple_types@U?$pair@$$CBV?$basic_string@DU?$char_traits@D@std@@V?$allocator@D@2@@std@@PAVSymbol@@@std@@@std@@@std@@QAEXAAV?$allocator@U?$_Tree_node@U?$pair@$$CBV?$basic_string@DU?$char_traits@D@std@@V?$allocator@D@2@@std@@PAVSymbol@@@std@@PAX@std@@@1@PAU?$_Tree_node@U?$pair@$$CBV?$basic_string@DU?$char_traits@D@std@@V?$allocator@D@2@@std@@PAVSymbol@@@std@@PAX@1@@Z 004017c0 f i Crinkler.obj
 0001:00000810       ??$_Erase_tree@V?$allocator@U?$_Tree_node@U?$pair@$$CBV?$basic_string@DU?$char_traits@D@std@@V?$allocator@D@2@@std@@V12@@std@@PAX@std@@@std@@@?$_Tree_val@U?$_Tree_simple_types@U?$pair@$$CBV?$basic_string@DU?$char_traits@D@std@@V?$allocator@D@2@@std@@V12@@std@@@std@@@std@@QAEXAAV?$allocator@U?$_Tree_node@U?$pair@$$CBV?$basic_string@DU?$char_traits@D@std@@V?$allocator@D@2@@std@@V12@@std@@PAX@std@@@1@PAU?$_Tree_node@U?$pair@$$CBV?$basic_string@DU?$char_traits@D@std@@V?$allocator@D@2@@std@@V12@@std@@PAX@1@@Z 00401810 f i Crinkler.obj
 0001:00000870       ??$_Erase_tree@V?$allocator@U?$_Tree_node@V?$basic_string@DU?$char_traits@D@std@@V?$allocator@D@2@@std@@PAX@std@@@std@@@?$_Tree_val@U?$_Tree_simple_types@V?$basic_string@DU?$char_traits@D@std@@V?$allocator@D@2@@std@@@std@@@std@@QAEXAAV?$allocator@U?$_Tree_node@V?$basic_string@DU?$char_traits@D@std@@V?$allocator@D@2@@std@@PAX@std@@@1@PAU?$_Tree_node@V?$basic_string@DU?$char_traits@D@std@@V?$allocator@D@2@@std@@PAX@1@@Z 00401870 f i Crinkler.obj
 0001:000008c0       ??$_Erase_tree@V?$allocator@U?$_Tree_node@VExport@@PAX@std@@@std@@@?$_Tree_val@U?$_Tree_simple_types@VExport@@@std@@@std@@QAEXAAV?$allocator@U?$_Tree_node@VExport@@PAX@std@@@1@PAU?$_Tree_node@VExport@@PAX@1@@Z 004018c0 f i Crinkler.obj
 0001:00000920       ??$_Fill_memset@PADD@std@@YAXPADDI@Z 00401920 f i Crinkler.obj
 0001:00000920       ??$_Fill_memset@PAEE@std@@YAXPAEEI@Z 00401920 f i Crinkler.obj
 0001:00000930       ??$_Find_lower_bound@V?$basic_string@DU?$char_traits@D@std@@V?$allocator@D@2@@std@@@?$_Tree@V?$_Tmap_traits@V?$basic_string@DU?$char_traits@D@std@@V?$allocator@D@2@@std@@V12@U?$less@V?$basic_string@DU?$char_traits@D@std@@V?$allocator@D@2@@std@@@2@V?$allocator@U?$pair@$$CBV?$basic_string@DU?$char_traits@D@std@@V?$allocator@D@2@@std@@V12@@std@@@2@$0A@@std@@@std@@IBE?AU?$_Tree_find_result@PAU?$_Tree_node@U?$pair@$$CBV?$basic_string@DU?$char_traits@D@std@@V?$allocator@D@2@@std@@V12@@std@@PAX@std@@@1@ABV?$basic_string@DU?$char_traits@D@std@@V?$allocator@D@2@@1@@Z 00401930 f i Crinkler.obj
 0001:00000930       ??$_Find_lower_bound@V?$basic_string@DU?$char_traits@D@std@@V?$allocator@D@2@@std@@@?$_Tree@V?$_Tset_traits@V?$basic_string@DU?$char_traits@D@std@@V?$allocator@D@2@@std@@U?$less@V?$basic_string@DU?$char_traits@D@std@@V?$allocator@D@2@@std@@@2@V?$allocator@V?$basic_string@DU?$char_traits@D@std@@V?$allocator@D@2@@std@@@2@$0A@@std@@@std@@IBE?AU?$_Tree_find_result@PAU?$_Tree_node@V?$basic_string@DU?$char_traits@D@std@@V?$allocator@D@2@@std@@PAX@std@@@1@ABV?$basic_string@DU?$char_traits@D@std@@V?$allocator@D@2@@1@@Z 00401930 f i Crinkler.obj
 0001:00000930       ??$_Find_lower_bound@VExport@@@?$_Tree@V?$_Tset_traits@VExport@@U?$less@VExport@@@std@@V?$allocator@VExport@@@3@$0A@@std@@@std@@IBE?AU?$_Tree_find_result@PAU?$_Tree_node@VExport@@PAX@std@@@1@ABVExport@@@Z 00401930 f i Crinkler.obj
 0001:00000990       ??$_Find_vectorized@$$CBDD@std@@YAPBDQBD0D@Z 00401990 f i Crinkler.obj
 0001:00000990       ??$_Find_vectorized@DD@std@@YAPADQAD0D@Z 00401990 f i Crinkler.obj
 0001:000009b0       ??$_Floating_to_chars@$00M@std@@YA?AUto_chars_result@0@PADQADMW4chars_format@0@H@Z 004019b0 f i Crinkler.obj
 0001:00000aa0       ??$_Floating_to_chars@$00N@std@@YA?AUto_chars_result@0@PADQADNW4chars_format@0@H@Z 00401aa0 f i Crinkler.obj
 0001:00000bb0       ??$_Floating_to_chars@$01M@std@@YA?AUto_chars_result@0@PADQADMW4chars_format@0@H@Z 00401bb0 f i Crinkler.obj
 0001:00000cf0       ??$_Floating_to_chars@$01N@std@@YA?AUto_chars_result@0@PADQADNW4chars_format@0@H@Z 00401cf0 f i Crinkler.obj
 0001:00000e50       ??$_Floating_to_chars@$0A@M@std@@YA?AUto_chars_result@0@PADQADMW4chars_format@0@H@Z 00401e50 f i Crinkler.obj
 0001:00000f20       ??$_Floating_to_chars@$0A@N@std@@YA?AUto_chars_result@0@PADQADNW4chars_format@0@H@Z 00401f20 f i Crinkler.obj
 0001:00001020       ??$_Floating_to_chars_fixed_precision@M@std@@YA?AUto_chars_result@0@QAD0MH@Z 00402020 f i Crinkler.obj
 0001:00001080       ??$_Floating_to_chars_fixed_precision@N@std@@YA?AUto_chars_result@0@QAD0NH@Z 00402080 f i Crinkler.obj
 0001:000010e0       ??$_Floating_to_chars_general_precision@M@std@@YA?AUto_chars_result@0@PADQADMH@Z 004020e0 f i Crinkler.obj
 0001:000012e0       ??$_Floating_to_chars_general_precision@N@std@@YA?AUto_chars_result@0@PADQADNH@Z 004022e0 f i Crinkler.obj
 0001:000015a0       ??$_Floating_to_chars_hex_precision@M@std@@YA?AUto_chars_result@0@PADQADMH@Z 004025a0 f i Crinkler.obj
 0001:00001760       ??$_Floating_to_chars_hex_precision@N@std@@YA?AUto_chars_result@0@PADQADNH@Z 00402760 f i Crinkler.obj
 0001:000019b0       ??$_Floating_to_chars_hex_shortest@M@std@@YA?AUto_chars_result@0@PADQADM@Z 004029b0 f i Crinkler.obj
 0001:00001af0       ??$_Floating_to_chars_hex_shortest@N@std@@YA?AUto_chars_result@0@PADQADN@Z 00402af0 f i Crinkler.obj
 0001:00001c90       ??$_Floating_to_chars_ryu@M@std@@YA?AUto_chars_result@0@QAD0MW4chars_format@0@@Z 00402c90 f i Crinkler.obj
 0001:00001cc0       ??$_Floating_to_chars_ryu@N@std@@YA?AUto_chars_result@0@QAD0NW4chars_format@0@@Z 00402cc0 f i Crinkler.obj
 0001:00001cf0       ??$_Floating_to_chars_scientific_precision@M@std@@YA?AUto_chars_result@0@QAD0MH@Z 00402cf0 f i Crinkler.obj
 0001:00001d40       ??$_Floating_to_chars_scientific_precision@N@std@@YA?AUto_chars_result@0@QAD0NH@Z 00402d40 f i Crinkler.obj
 0001:00001d80       ??$_Fmt_write@DV?$back_insert_iterator@V?$_Fmt_buffer@D@std@@@std@@@std@@YA?AV?$back_insert_iterator@V?$_Fmt_buffer@D@std@@@0@V10@D@Z 00402d80 f i Crinkler.obj
 0001:00001dc0       ??$_Fmt_write@DV?$back_insert_iterator@V?$_Fmt_buffer@D@std@@@std@@@std@@YA?AV?$back_insert_iterator@V?$_Fmt_buffer@D@std@@@0@V10@DU?$_Basic_format_specs@D@0@V_Lazy_locale@0@@Z 00402dc0 f i Crinkler.obj
 0001:00001e30       ??$_Fmt_write@DV?$back_insert_iterator@V?$_Fmt_buffer@D@std@@@std@@@std@@YA?AV?$back_insert_iterator@V?$_Fmt_buffer@D@std@@@0@V10@PBD@Z 00402e30 f i Crinkler.obj
 0001:00001e90       ??$_Fmt_write@DV?$back_insert_iterator@V?$_Fmt_buffer@D@std@@@std@@@std@@YA?AV?$back_insert_iterator@V?$_Fmt_buffer@D@std@@@0@V10@PBDABU?$_Basic_format_specs@D@0@V_Lazy_locale@0@@Z 00402e90 f i Crinkler.obj
 0001:00001ed0       ??$_Fmt_write@DV?$back_insert_iterator@V?$_Fmt_buffer@D@std@@@std@@@std@@YA?AV?$back_insert_iterator@V?$_Fmt_buffer@D@std@@@0@V10@QBX@Z 00402ed0 f i Crinkler.obj
 0001:00001f80       ??$_Fmt_write@DV?$back_insert_iterator@V?$_Fmt_buffer@D@std@@@std@@@std@@YA?AV?$back_insert_iterator@V?$_Fmt_buffer@D@std@@@0@V10@QBXABU?$_Basic_format_specs@D@0@V_Lazy_locale@0@@Z 00402f80 f i Crinkler.obj
 0001:000020d0       ??$_Fmt_write@DV?$back_insert_iterator@V?$_Fmt_buffer@D@std@@@std@@@std@@YA?AV?$back_insert_iterator@V?$_Fmt_buffer@D@std@@@0@V10@Umonostate@0@@Z 004030d0 f i Crinkler.obj
 0001:000020d0       ??$_Fmt_write@DV?$back_insert_iterator@V?$_Fmt_buffer@D@std@@@std@@@std@@YA?AV?$back_insert_iterator@V?$_Fmt_buffer@D@std@@@0@V10@Umonostate@0@ABU?$_Basic_format_specs@D@0@V_Lazy_locale@0@@Z 004030d0 f i Crinkler.obj
 0001:000020e0       ??$_Fmt_write@DV?$back_insert_iterator@V?$_Fmt_buffer@D@std@@@std@@@std@@YA?AV?$back_insert_iterator@V?$_Fmt_buffer@D@std@@@0@V10@V?$basic_string_view@DU?$char_traits@D@std@@@0@@Z 004030e0 f i Crinkler.obj
 0001:00002100       ??$_Fmt_write@DV?$back_insert_iterator@V?$_Fmt_buffer@D@std@@@std@@@std@@YA?AV?$back_insert_iterator@V?$_Fmt_buffer@D@std@@@0@V10@V?$basic_string_view@DU?$char_traits@D@std@@@0@ABU?$_Basic_format_specs@D@0@V_Lazy_locale@0@@Z 00403100 f i Crinkler.obj
 0001:00002190       ??$_Fmt_write@DV?$back_insert_iterator@V?$_Fmt_buffer@D@std@@@std@@@std@@YA?AV?$back_insert_iterator@V?$_Fmt_buffer@D@std@@@0@V10@_N@Z 00403190 f i Crinkler.obj
 0001:000021c0       ??$_Fmt_write@DV?$back_insert_iterator@V?$_Fmt_buffer@D@std@@@std@@@std@@YA?AV?$back_insert_iterator@V?$_Fmt_buffer@D@std@@@0@V10@_NU?$_Basic_format_specs@D@0@V_Lazy_locale@0@@Z 004031c0 f i Crinkler.obj
 0001:000023c0       ??$_Fmt_write@DV?$back_insert_iterator@V?$_Fmt_buffer@D@std@@@std@@H@std@@YA?AV?$back_insert_iterator@V?$_Fmt_buffer@D@std@@@0@V10@H@Z 004033c0 f i Crinkler.obj
 0001:00002470       ??$_Fmt_write@DV?$back_insert_iterator@V?$_Fmt_buffer@D@std@@@std@@H@std@@YA?AV?$back_insert_iterator@V?$_Fmt_buffer@D@std@@@0@V10@HABU?$_Basic_format_specs@D@0@V_Lazy_locale@0@@Z 00403470 f i Crinkler.obj
 0001:000024b0       ??$_Fmt_write@DV?$back_insert_iterator@V?$_Fmt_buffer@D@std@@@std@@I@std@@YA?AV?$back_insert_iterator@V?$_Fmt_buffer@D@std@@@0@V10@I@Z 004034b0 f i Crinkler.obj
 0001:00002540       ??$_Fmt_write@DV?$back_insert_iterator@V?$_Fmt_buffer@D@std@@@std@@I@std@@YA?AV?$back_insert_iterator@V?$_Fmt_buffer@D@std@@@0@V10@IABU?$_Basic_format_specs@D@0@V_Lazy_locale@0@@Z 00403540 f i Crinkler.obj
 0001:00002580       ??$_Fmt_write@DV?$back_insert_iterator@V?$_Fmt_buffer@D@std@@@std@@M@std@@YA?AV?$back_insert_iterator@V?$_Fmt_buffer@D@std@@@0@V10@M@Z 00403580 f i Crinkler.obj
 0001:00002620       ??$_Fmt_write@DV?$back_insert_iterator@V?$_Fmt_buffer@D@std@@@std@@M@std@@YA?AV?$back_insert_iterator@V?$_Fmt_buffer@D@std@@@0@V10@MABU?$_Basic_format_specs@D@0@V_Lazy_locale@0@@Z 00403620 f i Crinkler.obj
 0001:00002d10       ??$_Fmt_write@DV?$back_insert_iterator@V?$_Fmt_buffer@D@std@@@std@@N@std@@YA?AV?$back_insert_iterator@V?$_Fmt_buffer@D@std@@@0@V10@N@Z 00403d10 f i Crinkler.obj
 0001:00002d10       ??$_Fmt_write@DV?$back_insert_iterator@V?$_Fmt_buffer@D@std@@@std@@O@std@@YA?AV?$back_insert_iterator@V?$_Fmt_buffer@D@std@@@0@V10@O@Z 00403d10 f i Crinkler.obj
 0001:00002db0       ??$_Fmt_write@DV?$back_insert_iterator@V?$_Fmt_buffer@D@std@@@std@@N@std@@YA?AV?$back_insert_iterator@V?$_Fmt_buffer@D@std@@@0@V10@NABU?$_Basic_format_specs@D@0@V_Lazy_locale@0@@Z 00403db0 f i Crinkler.obj
 0001:00002db0       ??$_Fmt_write@DV?$back_insert_iterator@V?$_Fmt_buffer@D@std@@@std@@O@std@@YA?AV?$back_insert_iterator@V?$_Fmt_buffer@D@std@@@0@V10@OABU?$_Basic_format_specs@D@0@V_Lazy_locale@0@@Z 00403db0 f i Crinkler.obj
 0001:000034a0       ??$_Fmt_write@DV?$back_insert_iterator@V?$_Fmt_buffer@D@std@@@std@@_J@std@@YA?AV?$back_insert_iterator@V?$_Fmt_buffer@D@std@@@0@V10@_J@Z 004044a0 f i Crinkler.obj
 0001:000034e0       ??$_Fmt_write@DV?$back_insert_iterator@V?$_Fmt_buffer@D@std@@@std@@_J@std@@YA?AV?$back_insert_iterator@V?$_Fmt_buffer@D@std@@@0@V10@_JABU?$_Basic_format_specs@D@0@V_Lazy_locale@0@@Z 004044e0 f i Crinkler.obj
 0001:00003520       ??$_Fmt_write@DV?$back_insert_iterator@V?$_Fmt_buffer@D@std@@@std@@_K@std@@YA?AV?$back_insert_iterator@V?$_Fmt_buffer@D@std@@@0@V10@_K@Z 00404520 f i Crinkler.obj
 0001:00003560       ??$_Fmt_write@DV?$back_insert_iterator@V?$_Fmt_buffer@D@std@@@std@@_K@std@@YA?AV?$back_insert_iterator@V?$_Fmt_buffer@D@std@@@0@V10@_KABU?$_Basic_format_specs@D@0@V_Lazy_locale@0@@Z 00404560 f i Crinkler.obj
 0001:000035a0       ??$_Format_to_it@DV?$back_insert_iterator@V?$vector@DV?$allocator@D@std@@@std@@@std@@V?$basic_format_context@V?$back_insert_iterator@V?$_Fmt_buffer@D@std@@@std@@D@2@@std@@YA?AV?$back_insert_iterator@V?$vector@DV?$allocator@D@std@@@std@@@0@V10@V?$basic_string_view@DU?$char_traits@D@std@@@0@V?$basic_format_args@V?$basic_format_context@V?$back_insert_iterator@V?$_Fmt_buffer@D@std@@@std@@D@std@@@0@V_Lazy_locale@0@@Z 004045a0 f i Crinkler.obj
 0001:00003710       ??$_Get_arg@V?$basic_format_context@V?$back_insert_iterator@V?$_Fmt_buffer@D@std@@@std@@D@std@@@std@@YA?AV?$basic_format_arg@V?$basic_format_context@V?$back_insert_iterator@V?$_Fmt_buffer@D@std@@@std@@D@std@@@0@ABV?$basic_format_context@V?$back_insert_iterator@V?$_Fmt_buffer@D@std@@@std@@D@0@I@Z 00404710 f i Crinkler.obj
 0001:000038b0       ??$_Insert_counted_range@PBD@?$vector@DV?$allocator@D@std@@@std@@AAEXV?$_Vector_const_iterator@V?$_Vector_val@U?$_Simple_types@D@std@@@std@@@1@PBDI@Z 004048b0 f i Crinkler.obj
 0001:00003b40       ??$_Integer_to_chars@H@std@@YA?AUto_chars_result@0@PADQADHH@Z 00404b40 f i Crinkler.obj
 0001:00003cd0       ??$_Integer_to_chars@_J@std@@YA?AUto_chars_result@0@PADQAD_JH@Z 00404cd0 f i Crinkler.obj
 0001:00003fe0       ??$_Integer_to_chars@_K@std@@YA?AUto_chars_result@0@PADQAD_KH@Z 00404fe0 f i Crinkler.obj
 0001:00004350       ??$_Large_integer_to_chars@D@std@@YA?AU?$pair@PADW4errc@std@@@0@QAD0IH@Z 00405350 f i Crinkler.obj
 0001:000044f0       ??$_Maklocchr@D@std@@YADDPADABU_Cvtvec@@@Z 004054f0 f i Crinkler.obj
 0001:00004500       ??$_Maklocstr@D@std@@YAPADPBDPADABU_Cvtvec@@@Z 00405500 f i Crinkler.obj
 0001:00004550       ??$_Measure_string_prefix@D@std@@YAPBDV?$basic_string_view@DU?$char_traits@D@std@@@0@AAH@Z 00405550 f i Crinkler.obj
 0001:000046a0       ??$_Move_unchecked@PADPAD@std@@YAPADPAD00@Z 004056a0 f i Crinkler.obj
 0001:000046b0       ??$_On_type@D@?$_Specs_checker@V?$_Specs_handler@V?$basic_format_parse_context@D@std@@V?$basic_format_context@V?$back_insert_iterator@V?$_Fmt_buffer@D@std@@@std@@D@2@@std@@@std@@QAEXD@Z 004056b0 f i Crinkler.obj
 0001:00004bd0       ??$_Parse_arg_id@DAAU?$_Id_adapter@D@std@@@std@@YAPBDPBD0AAU?$_Id_adapter@D@0@@Z 00405bd0 f i Crinkler.obj
 0001:00004c80       ??$_Parse_arg_id@DU?$_Precision_adapter@DAAV?$_Specs_checker@V?$_Specs_handler@V?$basic_format_parse_context@D@std@@V?$basic_format_context@V?$back_insert_iterator@V?$_Fmt_buffer@D@std@@@std@@D@2@@std@@@std@@@std@@@std@@YAPBDPBD0$$QAU?$_Precision_adapter@DAAV?$_Specs_checker@V?$_Specs_handler@V?$basic_format_parse_context@D@std@@V?$basic_format_context@V?$back_insert_iterator@V?$_Fmt_buffer@D@std@@@std@@D@2@@std@@@std@@@0@@Z 00405c80 f i Crinkler.obj
 0001:00004e00       ??$_Parse_format_specs@DAAV?$_Specs_checker@V?$_Specs_handler@V?$basic_format_parse_context@D@std@@V?$basic_format_context@V?$back_insert_iterator@V?$_Fmt_buffer@D@std@@@std@@D@2@@std@@@std@@@std@@YAPBDPBD0AAV?$_Specs_checker@V?$_Specs_handler@V?$basic_format_parse_context@D@std@@V?$basic_format_context@V?$back_insert_iterator@V?$_Fmt_buffer@D@std@@@std@@D@2@@std@@@0@@Z 00405e00 f i Crinkler.obj
 0001:000050b0       ??$_Parse_nonnegative_integer@D@std@@YAPBDPBD0AAI@Z 004060b0 f i Crinkler.obj
 0001:00005110       ??$_Parse_replacement_field@DAAU?$_Format_handler@D@std@@@std@@YAPBDPBD0AAU?$_Format_handler@D@0@@Z 00406110 f i Crinkler.obj
 0001:000052f0       ??$_Parse_width@DAAV?$_Specs_checker@V?$_Specs_handler@V?$basic_format_parse_context@D@std@@V?$basic_format_context@V?$back_insert_iterator@V?$_Fmt_buffer@D@std@@@std@@D@2@@std@@@std@@@std@@YAPBDPBD0AAV?$_Specs_checker@V?$_Specs_handler@V?$basic_format_parse_context@D@std@@V?$basic_format_context@V?$back_insert_iterator@V?$_Fmt_buffer@D@std@@@std@@D@2@@std@@@0@@Z 004062f0 f i Crinkler.obj
 0001:00005480       ??$_Search_vectorized@$$CBD$$CBD@std@@YAPBDQBD00I@Z 00406480 f i HtmlReport.obj
 0001:00005480       ??$_Search_vectorized@E$$CBE@std@@YAPAEQAE0QBEI@Z 00406480 f i Crinkler.obj
 0001:000054a0       ?AllowGeneralFetchOfReservedContexts@SchedulerBase@details@Concurrency@@MAE_NXZ 004064a0 f   libconcrt:SchedulerBase.obj
 0001:000054a0       ?SweepWaitNode@SingleWaitBlock@details@Concurrency@@UAE_NXZ 004064a0 f   libconcrt:event.obj
 0001:000054a0       ___acrt_uninitialize_command_line 004064a0 f   libucrt:argv_data.obj
 0001:000054a0       __should_initialize_environment 004064a0 f   LIBCMT:env_mode.obj
 0001:000054b0       ??$_Uninitialized_copy_n@PBDV?$allocator@D@std@@@std@@YAPADPBDIPADAAV?$allocator@D@0@@Z 004064b0 f i Crinkler.obj
 0001:000054d0       ??$_Uninitialized_move@PADV?$allocator@D@std@@@std@@YAPADQAD0PADAAV?$allocator@D@0@@Z 004064d0 f i Crinkler.obj
 0001:00005500       ??$_Visit@U?$_Arg_formatter@V?$back_insert_iterator@V?$_Fmt_buffer@D@std@@@std@@D@std@@@?$basic_format_arg@V?$basic_format_context@V?$back_insert_iterator@V?$_Fmt_buffer@D@std@@@std@@D@std@@@std@@QAE?A_T$$QAU?$_Arg_formatter@V?$back_insert_iterator@V?$_Fmt_buffer@D@std@@@std@@D@1@@Z 00406500 f i Crinkler.obj
 0001:000057a0       ??$_Widen_and_copy@DV?$back_insert_iterator@V?$_Fmt_buffer@D@std@@@std@@@std@@YA?AV?$back_insert_iterator@V?$_Fmt_buffer@D@std@@@0@PBDQBDV10@@Z 004067a0 f i Crinkler.obj
 0001:000057f0       ??$_Write_aligned@V?$back_insert_iterator@V?$_Fmt_buffer@D@std@@@std@@U?$_Basic_format_specs@D@2@AAV<lambda_1>@?1???$_Fmt_write@DV?$back_insert_iterator@V?$_Fmt_buffer@D@std@@@std@@@2@YA?AV12@V12@QBXABU32@V_Lazy_locale@2@@Z@@std@@YA?AV?$back_insert_iterator@V?$_Fmt_buffer@D@std@@@0@V10@HABU?$_Basic_format_specs@D@0@W4_Fmt_align@0@AAV<lambda_1>@?1???$_Fmt_write@DV?$back_insert_iterator@V?$_Fmt_buffer@D@std@@@std@@@0@YA?AV10@0QBX1V_Lazy_locale@0@@Z@@Z 004067f0 f i Crinkler.obj
 0001:000058d0       ??$_Write_aligned@V?$back_insert_iterator@V?$_Fmt_buffer@D@std@@@std@@U?$_Basic_format_specs@D@2@AAV<lambda_1>@?1???$_Fmt_write@DV?$back_insert_iterator@V?$_Fmt_buffer@D@std@@@std@@M@2@YA?AV12@V12@MABU32@V_Lazy_locale@2@@Z@@std@@YA?AV?$back_insert_iterator@V?$_Fmt_buffer@D@std@@@0@V10@HABU?$_Basic_format_specs@D@0@W4_Fmt_align@0@AAV<lambda_1>@?1???$_Fmt_write@DV?$back_insert_iterator@V?$_Fmt_buffer@D@std@@@std@@M@0@YA?AV10@0M1V_Lazy_locale@0@@Z@@Z 004068d0 f i Crinkler.obj
 0001:000058d0       ??$_Write_aligned@V?$back_insert_iterator@V?$_Fmt_buffer@D@std@@@std@@U?$_Basic_format_specs@D@2@AAV<lambda_1>@?1???$_Fmt_write@DV?$back_insert_iterator@V?$_Fmt_buffer@D@std@@@std@@N@2@YA?AV12@V12@NABU32@V_Lazy_locale@2@@Z@@std@@YA?AV?$back_insert_iterator@V?$_Fmt_buffer@D@std@@@0@V10@HABU?$_Basic_format_specs@D@0@W4_Fmt_align@0@AAV<lambda_1>@?1???$_Fmt_write@DV?$back_insert_iterator@V?$_Fmt_buffer@D@std@@@std@@N@0@YA?AV10@0N1V_Lazy_locale@0@@Z@@Z 004068d0 f i Crinkler.obj
 0001:000058d0       ??$_Write_aligned@V?$back_insert_iterator@V?$_Fmt_buffer@D@std@@@std@@U?$_Basic_format_specs@D@2@AAV<lambda_1>@?1???$_Fmt_write@DV?$back_insert_iterator@V?$_Fmt_buffer@D@std@@@std@@O@2@YA?AV12@V12@OABU32@V_Lazy_locale@2@@Z@@std@@YA?AV?$back_insert_iterator@V?$_Fmt_buffer@D@std@@@0@V10@HABU?$_Basic_format_specs@D@0@W4_Fmt_align@0@AAV<lambda_1>@?1???$_Fmt_write@DV?$back_insert_iterator@V?$_Fmt_buffer@D@std@@@std@@O@0@YA?AV10@0O1V_Lazy_locale@0@@Z@@Z 004068d0 f i Crinkler.obj
 0001:000059b0       ??$_Write_aligned@V?$back_insert_iterator@V?$_Fmt_buffer@D@std@@@std@@U?$_Basic_format_specs@D@2@AAV<lambda_1>@?1???$_Write_integral@DV?$back_insert_iterator@V?$_Fmt_buffer@D@std@@@std@@E@2@YA?AV12@V12@EU32@V_Lazy_locale@2@@Z@@std@@YA?AV?$back_insert_iterator@V?$_Fmt_buffer@D@std@@@0@V10@HABU?$_Basic_format_specs@D@0@W4_Fmt_align@0@AAV<lambda_1>@?1???$_Write_integral@DV?$back_insert_iterator@V?$_Fmt_buffer@D@std@@@std@@E@0@YA?AV10@0EU20@V_Lazy_locale@0@@Z@@Z 004069b0 f i Crinkler.obj
 0001:000059b0       ??$_Write_aligned@V?$back_insert_iterator@V?$_Fmt_buffer@D@std@@@std@@U?$_Basic_format_specs@D@2@AAV<lambda_1>@?1???$_Write_integral@DV?$back_insert_iterator@V?$_Fmt_buffer@D@std@@@std@@I@2@YA?AV12@V12@IU32@V_Lazy_locale@2@@Z@@std@@YA?AV?$back_insert_iterator@V?$_Fmt_buffer@D@std@@@0@V10@HABU?$_Basic_format_specs@D@0@W4_Fmt_align@0@AAV<lambda_1>@?1???$_Write_integral@DV?$back_insert_iterator@V?$_Fmt_buffer@D@std@@@std@@I@0@YA?AV10@0IU20@V_Lazy_locale@0@@Z@@Z 004069b0 f i Crinkler.obj
 0001:000059b0       ??$_Write_aligned@V?$back_insert_iterator@V?$_Fmt_buffer@D@std@@@std@@U?$_Basic_format_specs@D@2@AAV<lambda_1>@?1???$_Write_integral@DV?$back_insert_iterator@V?$_Fmt_buffer@D@std@@@std@@_K@2@YA?AV12@V12@_KU32@V_Lazy_locale@2@@Z@@std@@YA?AV?$back_insert_iterator@V?$_Fmt_buffer@D@std@@@0@V10@HABU?$_Basic_format_specs@D@0@W4_Fmt_align@0@AAV<lambda_1>@?1???$_Write_integral@DV?$back_insert_iterator@V?$_Fmt_buffer@D@std@@@std@@_K@0@YA?AV10@0_KU20@V_Lazy_locale@0@@Z@@Z 004069b0 f i Crinkler.obj
 0001:00005a90       ??$_Write_aligned@V?$back_insert_iterator@V?$_Fmt_buffer@D@std@@@std@@U?$_Basic_format_specs@D@2@AAV<lambda_1>@?1???$_Write_integral@DV?$back_insert_iterator@V?$_Fmt_buffer@D@std@@@std@@H@2@YA?AV12@V12@HU32@V_Lazy_locale@2@@Z@@std@@YA?AV?$back_insert_iterator@V?$_Fmt_buffer@D@std@@@0@V10@HABU?$_Basic_format_specs@D@0@W4_Fmt_align@0@AAV<lambda_1>@?1???$_Write_integral@DV?$back_insert_iterator@V?$_Fmt_buffer@D@std@@@std@@H@0@YA?AV10@0HU20@V_Lazy_locale@0@@Z@@Z 00406a90 f i Crinkler.obj
 0001:00005b70       ??$_Write_aligned@V?$back_insert_iterator@V?$_Fmt_buffer@D@std@@@std@@U?$_Basic_format_specs@D@2@AAV<lambda_1>@?1???$_Write_integral@DV?$back_insert_iterator@V?$_Fmt_buffer@D@std@@@std@@_J@2@YA?AV12@V12@_JU32@V_Lazy_locale@2@@Z@@std@@YA?AV?$back_insert_iterator@V?$_Fmt_buffer@D@std@@@0@V10@HABU?$_Basic_format_specs@D@0@W4_Fmt_align@0@AAV<lambda_1>@?1???$_Write_integral@DV?$back_insert_iterator@V?$_Fmt_buffer@D@std@@@std@@_J@0@YA?AV10@0_JU20@V_Lazy_locale@0@@Z@@Z 00406b70 f i Crinkler.obj
 0001:00005c50       ??$_Write_aligned@V?$back_insert_iterator@V?$_Fmt_buffer@D@std@@@std@@U?$_Basic_format_specs@D@2@V<lambda_1>@?1???$_Fmt_write@DV?$back_insert_iterator@V?$_Fmt_buffer@D@std@@@std@@@2@YA?AV12@V12@V?$basic_string_view@DU?$char_traits@D@std@@@2@ABU32@V_Lazy_locale@2@@Z@@std@@YA?AV?$back_insert_iterator@V?$_Fmt_buffer@D@std@@@0@V10@HABU?$_Basic_format_specs@D@0@W4_Fmt_align@0@$$QAV<lambda_1>@?1???$_Fmt_write@DV?$back_insert_iterator@V?$_Fmt_buffer@D@std@@@std@@@0@YA?AV10@0V?$basic_string_view@DU?$char_traits@D@std@@@0@1V_Lazy_locale@0@@Z@@Z 00406c50 f i Crinkler.obj
 0001:00005d40       ??$_Write_integral@DV?$back_insert_iterator@V?$_Fmt_buffer@D@std@@@std@@E@std@@YA?AV?$back_insert_iterator@V?$_Fmt_buffer@D@std@@@0@V10@EU?$_Basic_format_specs@D@0@V_Lazy_locale@0@@Z 00406d40 f i Crinkler.obj
 0001:00006300       ??$_Write_integral@DV?$back_insert_iterator@V?$_Fmt_buffer@D@std@@@std@@H@std@@YA?AV?$back_insert_iterator@V?$_Fmt_buffer@D@std@@@0@V10@HU?$_Basic_format_specs@D@0@V_Lazy_locale@0@@Z 00407300 f i Crinkler.obj
 0001:00006770       ??$_Write_integral@DV?$back_insert_iterator@V?$_Fmt_buffer@D@std@@@std@@I@std@@YA?AV?$back_insert_iterator@V?$_Fmt_buffer@D@std@@@0@V10@IU?$_Basic_format_specs@D@0@V_Lazy_locale@0@@Z 00407770 f i Crinkler.obj
 0001:00006bb0       ??$_Write_integral@DV?$back_insert_iterator@V?$_Fmt_buffer@D@std@@@std@@_J@std@@YA?AV?$back_insert_iterator@V?$_Fmt_buffer@D@std@@@0@V10@_JU?$_Basic_format_specs@D@0@V_Lazy_locale@0@@Z 00407bb0 f i Crinkler.obj
 0001:00007040       ??$_Write_integral@DV?$back_insert_iterator@V?$_Fmt_buffer@D@std@@@std@@_K@std@@YA?AV?$back_insert_iterator@V?$_Fmt_buffer@D@std@@@0@V10@_KU?$_Basic_format_specs@D@0@V_Lazy_locale@0@@Z 00408040 f i Crinkler.obj
 0001:00007490       ??$_Write_separated_integer@DV?$back_insert_iterator@V?$_Fmt_buffer@D@std@@@std@@@std@@YA?AV?$back_insert_iterator@V?$_Fmt_buffer@D@std@@@0@PBDQBDV?$basic_string_view@DU?$char_traits@D@std@@@0@DHV10@@Z 00408490 f i Crinkler.obj
 0001:00007570       ??$_Write_sign@V?$back_insert_iterator@V?$_Fmt_buffer@D@std@@@std@@@std@@YA?AV?$back_insert_iterator@V?$_Fmt_buffer@D@std@@@0@V10@W4_Fmt_sign@0@_N@Z 00408570 f i Crinkler.obj
 0001:00007610       ??$_Zero_range@PAD@std@@YAPADQAD0@Z 00408610 f i Export.obj
 0001:00007610       ??$_Zero_range@PAE@std@@YAPAEQAE0@Z 00408610 f i Hunk.obj
 0001:00007610       ??$_Zero_range@PAH@std@@YAPAHQAH0@Z 00408610 f i Crinkler.obj
 0001:00007610       ??$_Zero_range@PAI@std@@YAPAIQAI0@Z 00408610 f i ImportHandler.obj
 0001:00007610       ??$_Zero_range@PAPAPAVHunk@@@std@@YAPAPAPAVHunk@@QAPAPAV1@0@Z 00408610 f i PartList.obj
 0001:00007610       ??$_Zero_range@PAPAVHunk@@@std@@YAPAPAVHunk@@QAPAV1@0@Z 00408610 f i CoffObjectLoader.obj
 0001:00007610       ??$_Zero_range@PAPAVModelList4k@@@std@@YAPAPAVModelList4k@@QAPAV1@0@Z 00408610 f i Crinkler.obj
 0001:00007610       ??$_Zero_range@PAPBD@std@@YAPAPBDQAPBD0@Z 00408610 f i CoffLibraryLoader.obj
 0001:00007630       ??$__append_c_digits@D@std@@YAXIIQAD@Z 00408630 f i Crinkler.obj
 0001:000076b0       ??$__append_n_digits@D@std@@YAXIIQAD@Z 004086b0 f i Crinkler.obj
 0001:00007770       ??$__append_nine_digits@D@std@@YAXIQAD@Z 00408770 f i Crinkler.obj
 0001:000077f0       ??$__d2fixed_buffered_n@D@std@@YA?AU?$pair@PADW4errc@std@@@0@PADQADNI@Z 004087f0 f i Crinkler.obj
 0001:00007c80       ??$__d2s_buffered_n@D@std@@YA?AU?$pair@PADW4errc@std@@@0@QAD0NW4chars_format@0@@Z 00408c80 f i Crinkler.obj
 0001:00007ec0       ??$__f2s_buffered_n@D@std@@YA?AU?$pair@PADW4errc@std@@@0@QAD0MW4chars_format@0@@Z 00408ec0 f i Crinkler.obj
 0001:00007fa0       ??$__to_chars@D@std@@YA?AU?$pair@PADW4errc@std@@@0@QAD0U__floating_decimal_32@0@W4chars_format@0@II@Z 00408fa0 f i Crinkler.obj
 0001:00008320       ??$__to_chars@D@std@@YA?AU?$pair@PADW4errc@std@@@0@QAD0U__floating_decimal_64@0@W4chars_format@0@N@Z 00409320 f i Crinkler.obj
 0001:000089c0       ??$fill_n@PADHD@std@@YAPADPADHABD@Z 004099c0 f i Crinkler.obj
 0001:000089f0       ??$fill_n@PADID@std@@YAPADPADIABD@Z 004099f0 f i Crinkler.obj
 0001:00008a20       ??$format_to@V?$back_insert_iterator@V?$vector@DV?$allocator@D@std@@@std@@@std@@$$V@std@@YA?AV?$back_insert_iterator@V?$vector@DV?$allocator@D@std@@@std@@@0@V10@U?$basic_format_string@D$$V@0@@Z 00409a20 f i Crinkler.obj
 0001:00008a60       ??$format_to@V?$back_insert_iterator@V?$vector@DV?$allocator@D@std@@@std@@@std@@AAH@std@@YA?AV?$back_insert_iterator@V?$vector@DV?$allocator@D@std@@@std@@@0@V10@U?$basic_format_string@DAAH@0@AAH@Z 00409a60 f i Crinkler.obj
 0001:00008a60       ??$format_to@V?$back_insert_iterator@V?$vector@DV?$allocator@D@std@@@std@@@std@@ABH@std@@YA?AV?$back_insert_iterator@V?$vector@DV?$allocator@D@std@@@std@@@0@V10@U?$basic_format_string@DABH@0@ABH@Z 00409a60 f i HtmlReport.obj
 0001:00008a60       ??$format_to@V?$back_insert_iterator@V?$vector@DV?$allocator@D@std@@@std@@@std@@H@std@@YA?AV?$back_insert_iterator@V?$vector@DV?$allocator@D@std@@@std@@@0@V10@U?$basic_format_string@DH@0@$$QAH@Z 00409a60 f i Crinkler.obj
 0001:00008aa0       ??$format_to@V?$back_insert_iterator@V?$vector@DV?$allocator@D@std@@@std@@@std@@AAV?$basic_string@DU?$char_traits@D@std@@V?$allocator@D@2@@2@@std@@YA?AV?$back_insert_iterator@V?$vector@DV?$allocator@D@std@@@std@@@0@V10@U?$basic_format_string@DAAV?$basic_string@DU?$char_traits@D@std@@V?$allocator@D@2@@std@@@0@AAV?$basic_string@DU?$char_traits@D@std@@V?$allocator@D@2@@0@@Z 00409aa0 f i Crinkler.obj
 0001:00008aa0       ??$format_to@V?$back_insert_iterator@V?$vector@DV?$allocator@D@std@@@std@@@std@@ABV?$basic_string@DU?$char_traits@D@std@@V?$allocator@D@2@@2@@std@@YA?AV?$back_insert_iterator@V?$vector@DV?$allocator@D@std@@@std@@@0@V10@U?$basic_format_string@DABV?$basic_string@DU?$char_traits@D@std@@V?$allocator@D@2@@std@@@0@ABV?$basic_string@DU?$char_traits@D@std@@V?$allocator@D@2@@0@@Z 00409aa0 f i Crinkler.obj
 0001:00008ae0       ??$format_to@V?$back_insert_iterator@V?$vector@DV?$allocator@D@std@@@std@@@std@@AAY07$$CBD@std@@YA?AV?$back_insert_iterator@V?$vector@DV?$allocator@D@std@@@std@@@0@V10@U?$basic_format_string@DAAY07$$CBD@0@AAY07$$CBD@Z 00409ae0 f i Crinkler.obj
 0001:00008b20       ??$format_to@V?$back_insert_iterator@V?$vector@DV?$allocator@D@std@@@std@@@std@@AAV?$basic_string@DU?$char_traits@D@std@@V?$allocator@D@2@@2@AAV32@@std@@YA?AV?$back_insert_iterator@V?$vector@DV?$allocator@D@std@@@std@@@0@V10@U?$basic_format_string@DAAV?$basic_string@DU?$char_traits@D@std@@V?$allocator@D@2@@std@@AAV12@@0@AAV?$basic_string@DU?$char_traits@D@std@@V?$allocator@D@2@@0@2@Z 00409b20 f i HtmlReport.obj
 0001:00008b20       ??$format_to@V?$back_insert_iterator@V?$vector@DV?$allocator@D@std@@@std@@@std@@ABV?$basic_string@DU?$char_traits@D@std@@V?$allocator@D@2@@2@ABV32@@std@@YA?AV?$back_insert_iterator@V?$vector@DV?$allocator@D@std@@@std@@@0@V10@U?$basic_format_string@DABV?$basic_string@DU?$char_traits@D@std@@V?$allocator@D@2@@std@@ABV12@@0@ABV?$basic_string@DU?$char_traits@D@std@@V?$allocator@D@2@@0@2@Z 00409b20 f i Crinkler.obj
 0001:00008b70       ??$format_to@V?$back_insert_iterator@V?$vector@DV?$allocator@D@std@@@std@@@std@@AAV?$basic_string@DU?$char_traits@D@std@@V?$allocator@D@2@@2@AAH@std@@YA?AV?$back_insert_iterator@V?$vector@DV?$allocator@D@std@@@std@@@0@V10@U?$basic_format_string@DAAV?$basic_string@DU?$char_traits@D@std@@V?$allocator@D@2@@std@@AAH@0@AAV?$basic_string@DU?$char_traits@D@std@@V?$allocator@D@2@@0@AAH@Z 00409b70 f i HtmlReport.obj
 0001:00008b70       ??$format_to@V?$back_insert_iterator@V?$vector@DV?$allocator@D@std@@@std@@@std@@ABV?$basic_string@DU?$char_traits@D@std@@V?$allocator@D@2@@2@H@std@@YA?AV?$back_insert_iterator@V?$vector@DV?$allocator@D@std@@@std@@@0@V10@U?$basic_format_string@DABV?$basic_string@DU?$char_traits@D@std@@V?$allocator@D@2@@std@@H@0@ABV?$basic_string@DU?$char_traits@D@std@@V?$allocator@D@2@@0@$$QAH@Z 00409b70 f i Crinkler.obj
 0001:00008bc0       ??$format_to@V?$back_insert_iterator@V?$vector@DV?$allocator@D@std@@@std@@@std@@AAPBD@std@@YA?AV?$back_insert_iterator@V?$vector@DV?$allocator@D@std@@@std@@@0@V10@U?$basic_format_string@DAAPBD@0@AAPBD@Z 00409bc0 f i HtmlReport.obj
 0001:00008bc0       ??$format_to@V?$back_insert_iterator@V?$vector@DV?$allocator@D@std@@@std@@@std@@PBD@std@@YA?AV?$back_insert_iterator@V?$vector@DV?$allocator@D@std@@@std@@@0@V10@U?$basic_format_string@DPBD@0@$$QAPBD@Z 00409bc0 f i Crinkler.obj
 0001:00008c00       ??$make_format_args@V?$basic_format_context@V?$back_insert_iterator@V?$_Fmt_buffer@D@std@@@std@@D@std@@$$BY07$$CBD@std@@YA?A_PAAY07$$CBD@Z 00409c00 f i Crinkler.obj
 0001:00008c20       ??$make_format_args@V?$basic_format_context@V?$back_insert_iterator@V?$_Fmt_buffer@D@std@@@std@@D@std@@$$CBV?$basic_string@DU?$char_traits@D@std@@V?$allocator@D@2@@2@$$CBV32@@std@@YA?A_PABV?$basic_string@DU?$char_traits@D@std@@V?$allocator@D@2@@0@0@Z 00409c20 f i Crinkler.obj
 0001:00008c20       ??$make_format_args@V?$basic_format_context@V?$back_insert_iterator@V?$_Fmt_buffer@D@std@@@std@@D@std@@V?$basic_string@DU?$char_traits@D@std@@V?$allocator@D@2@@2@V32@@std@@YA?A_PAAV?$basic_string@DU?$char_traits@D@std@@V?$allocator@D@2@@0@0@Z 00409c20 f i HtmlReport.obj
 0001:00008c80       ??$make_format_args@V?$basic_format_context@V?$back_insert_iterator@V?$_Fmt_buffer@D@std@@@std@@D@std@@$$CBV?$basic_string@DU?$char_traits@D@std@@V?$allocator@D@2@@2@@std@@YA?A_PABV?$basic_string@DU?$char_traits@D@std@@V?$allocator@D@2@@0@@Z 00409c80 f i Crinkler.obj
 0001:00008c80       ??$make_format_args@V?$basic_format_context@V?$back_insert_iterator@V?$_Fmt_buffer@D@std@@@std@@D@std@@V?$basic_string@DU?$char_traits@D@std@@V?$allocator@D@2@@2@@std@@YA?A_PAAV?$basic_string@DU?$char_traits@D@std@@V?$allocator@D@2@@0@@Z 00409c80 f i Crinkler.obj
 0001:00008cb0       ??$make_format_args@V?$basic_format_context@V?$back_insert_iterator@V?$_Fmt_buffer@D@std@@@std@@D@std@@$$CBV?$basic_string@DU?$char_traits@D@std@@V?$allocator@D@2@@2@H@std@@YA?A_PABV?$basic_string@DU?$char_traits@D@std@@V?$allocator@D@2@@0@AAH@Z 00409cb0 f i Crinkler.obj
 0001:00008cb0       ??$make_format_args@V?$basic_format_context@V?$back_insert_iterator@V?$_Fmt_buffer@D@std@@@std@@D@std@@V?$basic_string@DU?$char_traits@D@std@@V?$allocator@D@2@@2@H@std@@YA?A_PAAV?$basic_string@DU?$char_traits@D@std@@V?$allocator@D@2@@0@AAH@Z 00409cb0 f i HtmlReport.obj
 0001:00008d00       ??$make_format_args@V?$basic_format_context@V?$back_insert_iterator@V?$_Fmt_buffer@D@std@@@std@@D@std@@$$CBH@std@@YA?A_PABH@Z 00409d00 f i HtmlReport.obj
 0001:00008d00       ??$make_format_args@V?$basic_format_context@V?$back_insert_iterator@V?$_Fmt_buffer@D@std@@@std@@D@std@@H@std@@YA?A_PAAH@Z 00409d00 f i Crinkler.obj
 0001:00008d20       ??$make_format_args@V?$basic_format_context@V?$back_insert_iterator@V?$_Fmt_buffer@D@std@@@std@@D@std@@PBD@std@@YA?A_PAAPBD@Z 00409d20 f i Crinkler.obj
 0001:00008da0       ??$upper_bound@PBII@std@@YAPBIPBI0ABI@Z 00409da0 f i Crinkler.obj
 0001:00008df0       ??$use_facet@V?$numpunct@D@std@@@std@@YAABV?$numpunct@D@0@ABVlocale@0@@Z 00409df0 f i Crinkler.obj
 0001:00009020       ??$vformat_to@V?$back_insert_iterator@V?$vector@DV?$allocator@D@std@@@std@@@std@@@std@@YA?AV?$back_insert_iterator@V?$vector@DV?$allocator@D@std@@@std@@@0@V10@V?$basic_string_view@DU?$char_traits@D@std@@@0@V?$basic_format_args@V?$basic_format_context@V?$back_insert_iterator@V?$_Fmt_buffer@D@std@@@std@@D@std@@@0@@Z 0040a020 f i Crinkler.obj
 0001:00009050       ??$visit_format_arg@U?$_Arg_formatter@V?$back_insert_iterator@V?$_Fmt_buffer@D@std@@@std@@D@std@@V?$basic_format_context@V?$back_insert_iterator@V?$_Fmt_buffer@D@std@@@std@@D@2@@std@@YA?A_T$$QAU?$_Arg_formatter@V?$back_insert_iterator@V?$_Fmt_buffer@D@std@@@std@@D@0@V?$basic_format_arg@V?$basic_format_context@V?$back_insert_iterator@V?$_Fmt_buffer@D@std@@@std@@D@std@@@0@@Z 0040a050 f i Crinkler.obj
 0001:00009070       ??$visit_format_arg@U?$_Default_arg_formatter@V?$back_insert_iterator@V?$_Fmt_buffer@D@std@@@std@@D@std@@V?$basic_format_context@V?$back_insert_iterator@V?$_Fmt_buffer@D@std@@@std@@D@2@@std@@YA?A_T$$QAU?$_Default_arg_formatter@V?$back_insert_iterator@V?$_Fmt_buffer@D@std@@@std@@D@0@V?$basic_format_arg@V?$basic_format_context@V?$back_insert_iterator@V?$_Fmt_buffer@D@std@@@std@@D@std@@@0@@Z 0040a070 f i Crinkler.obj
 0001:000092d0       ??$visit_format_arg@V_Precision_checker@std@@V?$basic_format_context@V?$back_insert_iterator@V?$_Fmt_buffer@D@std@@@std@@D@2@@std@@YA?A_T$$QAV_Precision_checker@0@V?$basic_format_arg@V?$basic_format_context@V?$back_insert_iterator@V?$_Fmt_buffer@D@std@@@std@@D@std@@@0@@Z 0040a2d0 f i Crinkler.obj
 0001:000093f0       ??$visit_format_arg@V_Width_checker@std@@V?$basic_format_context@V?$back_insert_iterator@V?$_Fmt_buffer@D@std@@@std@@D@2@@std@@YA?A_T$$QAV_Width_checker@0@V?$basic_format_arg@V?$basic_format_context@V?$back_insert_iterator@V?$_Fmt_buffer@D@std@@@std@@D@std@@@0@@Z 0040a3f0 f i Crinkler.obj
 0001:00009510       ??0?$basic_string@DU?$char_traits@D@std@@V?$allocator@D@2@@std@@QAE@ABV01@@Z 0040a510 f i Crinkler.obj
 0001:00009630       ??0?$vector@HV?$allocator@H@std@@@std@@QAE@IABV?$allocator@H@1@@Z 0040a630 f i Crinkler.obj
 0001:00009630       ??0?$vector@PAVModelList4k@@V?$allocator@PAVModelList4k@@@std@@@std@@QAE@IABV?$allocator@PAVModelList4k@@@1@@Z 0040a630 f i Crinkler.obj
 0001:000096b0       ??0Crinkler@@QAE@XZ        0040a6b0 f   Crinkler.obj
 0001:00009970       ??0Part@@QAE@PBD_N@Z       0040a970 f i Crinkler.obj
 0001:00009a10       ??0_UnrealizedChore@details@Concurrency@@QAE@XZ 0040aa10 f i Crinkler.obj
 0001:00009a40       ??0bad_alloc@std@@QAE@ABV01@@Z 0040aa40 f i Crinkler.obj
 0001:00009a70       ??0bad_alloc@std@@QAE@XZ   0040aa70 f i Crinkler.obj
 0001:00009a90       ??0bad_array_new_length@std@@QAE@ABV01@@Z 0040aa90 f i Crinkler.obj
 0001:00009ac0       ??0bad_array_new_length@std@@QAE@XZ 0040aac0 f i Crinkler.obj
 0001:00009ae0       ??0bad_cast@std@@QAE@ABV01@@Z 0040aae0 f i Crinkler.obj
 0001:00009b10       ??0exception@std@@QAE@ABV01@@Z 0040ab10 f i Crinkler.obj
 0001:00009b40       ??0format_error@std@@QAE@ABV01@@Z 0040ab40 f i Crinkler.obj
 0001:00009b70       ??0format_error@std@@QAE@PBD@Z 0040ab70 f i Crinkler.obj
 0001:00009bb0       ??0invalid_argument@std@@QAE@ABV01@@Z 0040abb0 f i Crinkler.obj
 0001:00009be0       ??0invalid_argument@std@@QAE@PBD@Z 0040abe0 f i Crinkler.obj
 0001:00009c20       ??0logic_error@std@@QAE@ABV01@@Z 0040ac20 f i Crinkler.obj
 0001:00009c50       ??0runtime_error@std@@QAE@ABV01@@Z 0040ac50 f i Crinkler.obj
 0001:00009c80       ??0structured_task_group@Concurrency@@QAE@XZ 0040ac80 f i Crinkler.obj
 0001:00009d80       ??1?$vector@PAVCmdParam@@V?$allocator@PAVCmdParam@@@std@@@std@@QAE@XZ 0040ad80 f i CmdLineInterface.obj
 0001:00009d80       ??1?$vector@PAVHunk@@V?$allocator@PAVHunk@@@std@@@std@@QAE@XZ 0040ad80 f i Crinkler.obj
 0001:00009d80       ??1?$vector@PAVPart@@V?$allocator@PAVPart@@@std@@@std@@QAE@XZ 0040ad80 f i PartList.obj
 0001:00009d80       ??1?$vector@PAVProgressBar@@V?$allocator@PAVProgressBar@@@std@@@std@@QAE@XZ 0040ad80 f i Crinkler.obj
 0001:00009d80       ??1?$vector@PAVSymbol@@V?$allocator@PAVSymbol@@@std@@@std@@QAE@XZ 0040ad80 f i Hunk.obj
 0001:00009d80       ?_Tidy@?$vector@HV?$allocator@H@std@@@std@@AAEXXZ 0040ad80 f i Crinkler.obj
 0001:00009d80       ?_Tidy@?$vector@IV?$allocator@I@std@@@std@@AAEXXZ 0040ad80 f i Crinkler.obj
 0001:00009d80       ?_Tidy@?$vector@PAVModelList4k@@V?$allocator@PAVModelList4k@@@std@@@std@@AAEXXZ 0040ad80 f i Crinkler.obj
 0001:00009d80       ?_Tidy@?$vector@PBDV?$allocator@PBD@std@@@std@@AAEXXZ 0040ad80 f i CoffLibraryLoader.obj
 0001:00009de0       ??1?$vector@V?$basic_string@DU?$char_traits@D@std@@V?$allocator@D@2@@std@@V?$allocator@V?$basic_string@DU?$char_traits@D@std@@V?$allocator@D@2@@std@@@2@@std@@QAE@XZ 0040ade0 f i Crinkler.obj
 0001:00009de0       ?_Tidy@?$vector@V?$basic_string@DU?$char_traits@D@std@@V?$allocator@D@2@@std@@V?$allocator@V?$basic_string@DU?$char_traits@D@std@@V?$allocator@D@2@@std@@@2@@std@@AAEXXZ 0040ade0 f i ImportHandler.obj
 0001:00009e70       ??1Crinkler@@QAE@XZ        0040ae70 f   Crinkler.obj
 0001:00009f50       ??1_Locinfo@std@@QAE@XZ    0040af50 f i Crinkler.obj
 0001:00009ff0       ??1_Interruption_exception@details@Concurrency@@UAE@XZ 0040aff0 f i libconcrt:Chores.obj
 0001:00009ff0       ??1__non_rtti_object@std@@UAE@XZ 0040aff0 f i libvcruntime:rtti.obj
 0001:00009ff0       ??1bad_alloc@std@@UAE@XZ   0040aff0 f i Crinkler.obj
 0001:00009ff0       ??1bad_array_new_length@std@@UAE@XZ 0040aff0 f i Crinkler.obj
 0001:00009ff0       ??1bad_cast@std@@UAE@XZ    0040aff0 f i Crinkler.obj
 0001:00009ff0       ??1bad_exception@std@@UAE@XZ 0040aff0 f i libvcruntime:frame.obj
 0001:00009ff0       ??1bad_function_call@std@@UAE@XZ 0040aff0 f i libcpmt:xthrow.obj
 0001:00009ff0       ??1context_self_unblock@Concurrency@@UAE@XZ 0040aff0 f i libconcrt:Exceptions.obj
 0001:00009ff0       ??1context_unblock_unbalanced@Concurrency@@UAE@XZ 0040aff0 f i libconcrt:Exceptions.obj
 0001:00009ff0       ??1format_error@std@@UAE@XZ 0040aff0 f i Crinkler.obj
 0001:00009ff0       ??1improper_lock@Concurrency@@UAE@XZ 0040aff0 f i libconcrt:rtlocks.obj
 0001:00009ff0       ??1improper_scheduler_attach@Concurrency@@UAE@XZ 0040aff0 f i libconcrt:SchedulerBase.obj
 0001:00009ff0       ??1improper_scheduler_reference@Concurrency@@UAE@XZ 0040aff0 f i libconcrt:SchedulerBase.obj
 0001:00009ff0       ??1invalid_argument@std@@UAE@XZ 0040aff0 f i Crinkler.obj
 0001:00009ff0       ??1invalid_multiple_scheduling@Concurrency@@UAE@XZ 0040aff0 f i libconcrt:TaskCollection.obj
 0001:00009ff0       ??1invalid_operation@Concurrency@@UAE@XZ 0040aff0 f i libconcrt:ResourceManager.obj
 0001:00009ff0       ??1invalid_oversubscribe_operation@Concurrency@@UAE@XZ 0040aff0 f i libconcrt:Exceptions.obj
 0001:00009ff0       ??1invalid_scheduler_policy_key@Concurrency@@UAE@XZ 0040aff0 f i libconcrt:Exceptions.obj
 0001:00009ff0       ??1invalid_scheduler_policy_thread_specification@Concurrency@@UAE@XZ 0040aff0 f i libconcrt:Exceptions.obj
 0001:00009ff0       ??1invalid_scheduler_policy_value@Concurrency@@UAE@XZ 0040aff0 f i libconcrt:Exceptions.obj
 0001:00009ff0       ??1length_error@std@@UAE@XZ 0040aff0 f i libcpmt:xthrow.obj
 0001:00009ff0       ??1missing_wait@Concurrency@@UAE@XZ 0040aff0 f i libconcrt:Chores.obj
 0001:00009ff0       ??1nested_scheduler_missing_detach@Concurrency@@UAE@XZ 0040aff0 f i libconcrt:Exceptions.obj
 0001:00009ff0       ??1out_of_range@std@@UAE@XZ 0040aff0 f i libcpmt:xthrow.obj
 0001:00009ff0       ??1runtime_error@std@@UAE@XZ 0040aff0 f i Crinkler.obj
 0001:00009ff0       ??1scheduler_resource_allocation_error@Concurrency@@UAE@XZ 0040aff0 f i libconcrt:utils.obj
 0001:00009ff0       ??1scheduler_worker_creation_error@Concurrency@@UAE@XZ 0040aff0 f i libconcrt:Exceptions.obj
 0001:00009ff0       ??1system_error@std@@UAE@XZ 0040aff0 f i HtmlReport.obj
 0001:0000a010       ??E?$_Grapheme_break_property_iterator@D@std@@QAEAAV01@XZ 0040b010 f i Crinkler.obj
 0001:0000a290       ??R<lambda_1>@?1???$_Fmt_write@DV?$back_insert_iterator@V?$_Fmt_buffer@D@std@@@std@@@std@@YA?AV?$back_insert_iterator@V?$_Fmt_buffer@D@std@@@1@V21@QBXABU?$_Basic_format_specs@D@1@V_Lazy_locale@1@@Z@QBE@0@Z 0040b290 f i Crinkler.obj
 0001:0000a340       ??R<lambda_1>@?1???$_Fmt_write@DV?$back_insert_iterator@V?$_Fmt_buffer@D@std@@@std@@M@std@@YA?AV?$back_insert_iterator@V?$_Fmt_buffer@D@std@@@1@V21@MABU?$_Basic_format_specs@D@1@V_Lazy_locale@1@@Z@QBE@0@Z 0040b340 f i Crinkler.obj
 0001:0000a340       ??R<lambda_1>@?1???$_Fmt_write@DV?$back_insert_iterator@V?$_Fmt_buffer@D@std@@@std@@N@std@@YA?AV?$back_insert_iterator@V?$_Fmt_buffer@D@std@@@1@V21@NABU?$_Basic_format_specs@D@1@V_Lazy_locale@1@@Z@QBE@0@Z 0040b340 f i Crinkler.obj
 0001:0000a340       ??R<lambda_1>@?1???$_Fmt_write@DV?$back_insert_iterator@V?$_Fmt_buffer@D@std@@@std@@O@std@@YA?AV?$back_insert_iterator@V?$_Fmt_buffer@D@std@@@1@V21@OABU?$_Basic_format_specs@D@1@V_Lazy_locale@1@@Z@QBE@0@Z 0040b340 f i Crinkler.obj
 0001:0000a5a0       ??R<lambda_1>@?1???$_Write_integral@DV?$back_insert_iterator@V?$_Fmt_buffer@D@std@@@std@@E@std@@YA?AV?$back_insert_iterator@V?$_Fmt_buffer@D@std@@@1@V21@EU?$_Basic_format_specs@D@1@V_Lazy_locale@1@@Z@QBE@0@Z 0040b5a0 f i Crinkler.obj
 0001:0000a5a0       ??R<lambda_1>@?1???$_Write_integral@DV?$back_insert_iterator@V?$_Fmt_buffer@D@std@@@std@@I@std@@YA?AV?$back_insert_iterator@V?$_Fmt_buffer@D@std@@@1@V21@IU?$_Basic_format_specs@D@1@V_Lazy_locale@1@@Z@QBE@0@Z 0040b5a0 f i Crinkler.obj
 0001:0000a5a0       ??R<lambda_1>@?1???$_Write_integral@DV?$back_insert_iterator@V?$_Fmt_buffer@D@std@@@std@@_K@std@@YA?AV?$back_insert_iterator@V?$_Fmt_buffer@D@std@@@1@V21@_KU?$_Basic_format_specs@D@1@V_Lazy_locale@1@@Z@QBE@0@Z 0040b5a0 f i Crinkler.obj
 0001:0000a6e0       ??R<lambda_1>@?1???$_Write_integral@DV?$back_insert_iterator@V?$_Fmt_buffer@D@std@@@std@@H@std@@YA?AV?$back_insert_iterator@V?$_Fmt_buffer@D@std@@@1@V21@HU?$_Basic_format_specs@D@1@V_Lazy_locale@1@@Z@QBE@0@Z 0040b6e0 f i Crinkler.obj
 0001:0000a830       ??R<lambda_1>@?1???$_Write_integral@DV?$back_insert_iterator@V?$_Fmt_buffer@D@std@@@std@@_J@std@@YA?AV?$back_insert_iterator@V?$_Fmt_buffer@D@std@@@1@V21@_JU?$_Basic_format_specs@D@1@V_Lazy_locale@1@@Z@QBE@0@Z 0040b830 f i Crinkler.obj
 0001:0000b050       ??R?$_Arg_formatter@V?$back_insert_iterator@V?$_Fmt_buffer@D@std@@@std@@D@std@@QAE?AV?$back_insert_iterator@V?$_Fmt_buffer@D@std@@@1@Vhandle@?$basic_format_arg@V?$basic_format_context@V?$back_insert_iterator@V?$_Fmt_buffer@D@std@@@std@@D@std@@@1@@Z 0040c050 f i Crinkler.obj
 0001:0000b530       ??_E?$numpunct@D@std@@MAEPAXI@Z 0040c530 f i Crinkler.obj
 0001:0000b530       ??_G?$numpunct@D@std@@MAEPAXI@Z 0040c530 f i Crinkler.obj
 0001:0000b5d0       ??_ECompositeProgressBar@@UAEPAXI@Z 0040c5d0 f i Crinkler.obj
 0001:0000b5d0       ??_GCompositeProgressBar@@UAEPAXI@Z 0040c5d0 f i Crinkler.obj
 0001:0000b600       ??_GCompressionReportRecord@@QAEPAXI@Z 0040c600 f i Crinkler.obj
 0001:0000b6b0       ??_EConsoleProgressBar@@UAEPAXI@Z 0040c6b0 f i Crinkler.obj
 0001:0000b6b0       ??_GConsoleProgressBar@@UAEPAXI@Z 0040c6b0 f i Crinkler.obj
 0001:0000b6e0       ??_EProgressBar@@UAEPAXI@Z 0040c6e0 f i Crinkler.obj
 0001:0000b6e0       ??_GProgressBar@@UAEPAXI@Z 0040c6e0 f i Crinkler.obj
 0001:0000b710       ??_GReuse@@QAEPAXI@Z       0040c710 f i Crinkler.obj
 0001:0000b7c0       ??_EWindowProgressBar@@UAEPAXI@Z 0040c7c0 f i Crinkler.obj
 0001:0000b7c0       ??_GWindowProgressBar@@UAEPAXI@Z 0040c7c0 f i Crinkler.obj
 0001:0000b7f0       ??_E_Chore@details@Concurrency@@MAEPAXI@Z 0040c7f0 f i Crinkler.obj
 0001:0000b7f0       ??_G_Chore@details@Concurrency@@MAEPAXI@Z 0040c7f0 f i Crinkler.obj
 0001:0000b820       ??_E_Facet_base@std@@UAEPAXI@Z 0040c820 f i Crinkler.obj
 0001:0000b820       ??_G_Facet_base@std@@UAEPAXI@Z 0040c820 f i Crinkler.obj
 0001:0000b850       ??_E_UnrealizedChore@details@Concurrency@@UAEPAXI@Z 0040c850 f i Crinkler.obj
 0001:0000b850       ??_G_UnrealizedChore@details@Concurrency@@UAEPAXI@Z 0040c850 f i Crinkler.obj
 0001:0000b890       ??_Ebad_alloc@std@@UAEPAXI@Z 0040c890 f i Crinkler.obj
 0001:0000b890       ??_Ebad_array_new_length@std@@UAEPAXI@Z 0040c890 f i Crinkler.obj
 0001:0000b890       ??_Ebad_cast@std@@UAEPAXI@Z 0040c890 f i Crinkler.obj
 0001:0000b890       ??_Eexception@std@@UAEPAXI@Z 0040c890 f i Crinkler.obj
 0001:0000b890       ??_Eformat_error@std@@UAEPAXI@Z 0040c890 f i Crinkler.obj
 0001:0000b890       ??_Einvalid_argument@std@@UAEPAXI@Z 0040c890 f i Crinkler.obj
 0001:0000b890       ??_Elogic_error@std@@UAEPAXI@Z 0040c890 f i Crinkler.obj
 0001:0000b890       ??_Eruntime_error@std@@UAEPAXI@Z 0040c890 f i Crinkler.obj
 0001:0000b890       ??_Gbad_alloc@std@@UAEPAXI@Z 0040c890 f i Crinkler.obj
 0001:0000b890       ??_Gbad_array_new_length@std@@UAEPAXI@Z 0040c890 f i Crinkler.obj
 0001:0000b890       ??_Gbad_cast@std@@UAEPAXI@Z 0040c890 f i Crinkler.obj
 0001:0000b890       ??_Gexception@std@@UAEPAXI@Z 0040c890 f i Crinkler.obj
 0001:0000b890       ??_Gformat_error@std@@UAEPAXI@Z 0040c890 f i Crinkler.obj
 0001:0000b890       ??_Ginvalid_argument@std@@UAEPAXI@Z 0040c890 f i Crinkler.obj
 0001:0000b890       ??_Glogic_error@std@@UAEPAXI@Z 0040c890 f i Crinkler.obj
 0001:0000b890       ??_Gruntime_error@std@@UAEPAXI@Z 0040c890 f i Crinkler.obj
 0001:0000b8c0       ??_H@YGXPAXIIP6EPAX0@Z@Z   0040c8c0 f i Crinkler.obj
 0001:0000b8f0       ?AddExport@Crinkler@@QAEXVExport@@@Z 0040c8f0 f i Crinkler.obj
 0001:0000bac0       ?AddRuntimeLibrary@Crinkler@@QAEXXZ 0040cac0 f   Crinkler.obj
 0001:0000bb20       ?CompressParts4k@Crinkler@@AAEHAAVPartList@@PAVHunk@@PAEHHPAH@Z 0040cb20 f   Crinkler.obj
 0001:0000bbe0       ?CreateDynamicInitializerHunk@Crinkler@@AAEPAVHunk@@XZ 0040cbe0 f   Crinkler.obj
 0001:0000be70       ?CreateModelHunk4k@Crinkler@@AAEPAVHunk@@AAVPartList@@@Z 0040ce70 f   Crinkler.obj
 0001:0000bf80       ??1critical_section@Concurrency@@QAE@XZ 0040cf80 f i libconcrt:rtlocks.obj
 0001:0000bf80       ?Deinit@ProgressBar@@UAEXXZ 0040cf80 f i Crinkler.obj
 0001:0000bf80       ?Destroy@WaitAnyBlock@details@Concurrency@@UAEXXZ 0040cf80 f i libconcrt:event.obj
 0001:0000bf80       ?EndTask@ConsoleProgressBar@@UAEXXZ 0040cf80 f i ConsoleProgressBar.obj
 0001:0000bf80       ?EndTask@WindowProgressBar@@UAEXXZ 0040cf80 f i WindowProgressBar.obj
 0001:0000bf80       ?Init@ProgressBar@@UAEXXZ  0040cf80 f i Crinkler.obj
 0001:0000bf80       ?NotifyAffinitizedWork@FairScheduleGroupSegment@details@Concurrency@@UAEXXZ 0040cf80 f i libconcrt:SchedulerBase.obj
 0001:0000bf80       ?RMAwaken@InternalContextBase@details@Concurrency@@EAEXXZ 0040cf80 f i libconcrt:InternalContextBase.obj
 0001:0000bf80       ?__empty_global_delete@@YAXPAXI@Z 0040cf80 f i Crinkler.obj
 0001:0000bf80       ?__global_delete@@YAXPAXI@Z 0040cf80 f i Crinkler.obj
 0001:0000bf80       @_guard_check_icall_nop@4  0040cf80 f i LIBCMT:guard_support.obj
 0001:0000bf80       __initialize_denormal_control 0040cf80 f i LIBCMT:denormal_control.obj
 0001:0000bf80       __initialize_invalid_parameter_handler 0040cf80 f i LIBCMT:invalid_parameter_handler.obj
 0001:0000bf90       ?DeinitProgressBar@Crinkler@@AAEXXZ 0040cf90 f   Crinkler.obj
 0001:0000bfa0       ?EstimateModels@Crinkler@@AAEHAAVPartList@@PAVHunk@@_N2@Z 0040cfa0 f   Crinkler.obj
 0001:0000c2b0       ?EvaluatePartsSize4k@Crinkler@@AAEHAAVPartList@@PAVHunk@@@Z 0040d2b0 f   Crinkler.obj
 0001:0000c420       ?FinalLink@Crinkler@@AAEPAVHunk@@AAVPartList@@PAV2@111PAEHH@Z 0040d420 f   Crinkler.obj
 0001:0000c630       ?FindEntryPoint@Crinkler@@AAEPAVSymbol@@XZ 0040d630 f   Crinkler.obj
 0001:0000c6f0       ?FindSymbol@SymbolMap@@QBEPAVSymbol@@ABV?$basic_string@DU?$char_traits@D@std@@V?$allocator@D@2@@std@@@Z 0040d6f0 f i Crinkler.obj
 0001:0000c760       ?GetEntrySymbolName@Crinkler@@ABE?AV?$basic_string@DU?$char_traits@D@std@@V?$allocator@D@2@@std@@XZ 0040d760 f   Crinkler.obj
 0001:0000c830       ?InitProgressBar@Crinkler@@AAEXXZ 0040d830 f   Crinkler.obj
 0001:0000c880       ?Link@Crinkler@@QAEXPBD@Z  0040d880 f   Crinkler.obj
 0001:0000d790       ?Load@Crinkler@@QAEXPBD@Z  0040e790 f   Crinkler.obj
 0001:0000d7c0       ?Load@Crinkler@@QAEXPBDH0@Z 0040e7c0 f   Crinkler.obj
 0001:0000d7e0       ?LoadImportCode@Crinkler@@AAEX_N000@Z 0040e7e0 f   Crinkler.obj
 0001:0000d920       ?OptimizeHashsize@Crinkler@@AAEHAAVPartList@@PAVHunk@@HH@Z 0040e920 f   Crinkler.obj
 0001:0000e0e0       ?OverrideAlignments@Crinkler@@AAEXAAVPart@@@Z 0040f0e0 f   Crinkler.obj
 0001:0000e150       ?PrintOptions@Crinkler@@QAEXV?$back_insert_iterator@V?$vector@DV?$allocator@D@std@@@std@@@std@@@Z 0040f150 f   Crinkler.obj
 0001:0000e6d0       ?Recompress@Crinkler@@QAEXPBD0@Z 0040f6d0 f   Crinkler.obj
 0001:0000fd90       ?RemoveUnreferencedHunks@Crinkler@@AAEXPAVHunk@@@Z 00410d90 f   Crinkler.obj
 0001:00010260       ?ReplaceDlls@Crinkler@@AAEXAAVPart@@@Z 00411260 f   Crinkler.obj
 0001:00010400       ?SetHeaderConstants1k@Crinkler@@AAEXPAVHunk@@0HHHIH@Z 00411400 f   Crinkler.obj
 0001:00010500       ?SetHeaderConstants4k@Crinkler@@AAEXPAVHunk@@0AAVPartList@@HHH@Z 00411500 f   Crinkler.obj
 0001:00010640       ?SetHeaderConstantsCommon@Crinkler@@AAEXPAVHunk@@H@Z 00411640 f   Crinkler.obj
 0001:00010710       ?SetHeaderSaturation@Crinkler@@AAEXPAVHunk@@@Z 00411710 f   Crinkler.obj
 0001:000108b0       ?_Change_array@?$vector@HV?$allocator@H@std@@@std@@AAEXQAHII@Z 004118b0 f i Crinkler.obj
 0001:000108b0       ?_Change_array@?$vector@IV?$allocator@I@std@@@std@@AAEXQAIII@Z 004118b0 f i Compressor:CompressionStream.obj
 0001:000108b0       ?_Change_array@?$vector@PAVPart@@V?$allocator@PAVPart@@@std@@@std@@AAEXQAPAVPart@@II@Z 004118b0 f i PartList.obj
 0001:00010b00       ?_Count_separators@std@@YAHIV?$basic_string_view@DU?$char_traits@D@std@@@1@@Z 00411b00 f i Crinkler.obj
 0001:00010b50       ?_Deallocate_for_capacity@?$basic_string@DU?$char_traits@D@std@@V?$allocator@D@2@@std@@CAXAAV?$allocator@D@2@QADI@Z 00411b50 f i Crinkler.obj
 0001:00010b90       ?_Decode_utf@std@@YA?AU?$_Decode_result@D@1@PBD0AA_U@Z 00411b90 f i Crinkler.obj
 0001:00010d30       ?_Decref@facet@locale@std@@UAEPAV_Facet_base@3@XZ 00411d30 f i Crinkler.obj
 0001:00010d50       ?_Delete_this@?$_Func_impl_no_alloc@P6A_JXZ_J$$V@std@@EAEX_N@Z 00411d50 f   Compressor:CompressionStateEvaluator.obj
 0001:00011210       ?_Get@?$_Func_impl_no_alloc@P6A_JXZ_J$$V@std@@EBEPBXXZ 00412210 f   Compressor:CompressionStateEvaluator.obj
 0001:00011220       ?_Grow@?$_Fmt_iterator_buffer@V?$back_insert_iterator@V?$vector@DV?$allocator@D@std@@@std@@@std@@DU_Fmt_buffer_traits@2@@std@@EAEXI@Z 00412220 f i Crinkler.obj
 0001:00011260       ?_Incref@facet@locale@std@@UAEXXZ 00412260 f i Crinkler.obj
 0001:00011270       ?_Insert_node@?$_Tree_val@U?$_Tree_simple_types@U?$pair@$$CBHH@std@@@std@@@std@@QAEPAU?$_Tree_node@U?$pair@$$CBHH@std@@PAX@2@U?$_Tree_id@PAU?$_Tree_node@U?$pair@$$CBHH@std@@PAX@std@@@2@QAU32@@Z 00412270 f i Export.obj
 0001:00011270       ?_Insert_node@?$_Tree_val@U?$_Tree_simple_types@U?$pair@$$CBHPAVSymbol@@@std@@@std@@@std@@QAEPAU?$_Tree_node@U?$pair@$$CBHPAVSymbol@@@std@@PAX@2@U?$_Tree_id@PAU?$_Tree_node@U?$pair@$$CBHPAVSymbol@@@std@@PAX@std@@@2@QAU32@@Z 00412270 f i Hunk.obj
 0001:00011270       ?_Insert_node@?$_Tree_val@U?$_Tree_simple_types@U?$pair@$$CBV?$basic_string@DU?$char_traits@D@std@@V?$allocator@D@2@@std@@H@std@@@std@@@std@@QAEPAU?$_Tree_node@U?$pair@$$CBV?$basic_string@DU?$char_traits@D@std@@V?$allocator@D@2@@std@@H@std@@PAX@2@U?$_Tree_id@PAU?$_Tree_node@U?$pair@$$CBV?$basic_string@DU?$char_traits@D@std@@V?$allocator@D@2@@std@@H@std@@PAX@std@@@2@QAU32@@Z 00412270 f i CmdParamFlags.obj
 0001:00011270       ?_Insert_node@?$_Tree_val@U?$_Tree_simple_types@U?$pair@$$CBV?$basic_string@DU?$char_traits@D@std@@V?$allocator@D@2@@std@@PAVMemoryFile@@@std@@@std@@@std@@QAEPAU?$_Tree_node@U?$pair@$$CBV?$basic_string@DU?$char_traits@D@std@@V?$allocator@D@2@@std@@PAVMemoryFile@@@std@@PAX@2@U?$_Tree_id@PAU?$_Tree_node@U?$pair@$$CBV?$basic_string@DU?$char_traits@D@std@@V?$allocator@D@2@@std@@PAVMemoryFile@@@std@@PAX@std@@@2@QAU32@@Z 00412270 f i main.obj
 0001:00011270       ?_Insert_node@?$_Tree_val@U?$_Tree_simple_types@U?$pair@$$CBV?$basic_string@DU?$char_traits@D@std@@V?$allocator@D@2@@std@@PAVModelList4k@@@std@@@std@@@std@@QAEPAU?$_Tree_node@U?$pair@$$CBV?$basic_string@DU?$char_traits@D@std@@V?$allocator@D@2@@std@@PAVModelList4k@@@std@@PAX@2@U?$_Tree_id@PAU?$_Tree_node@U?$pair@$$CBV?$basic_string@DU?$char_traits@D@std@@V?$allocator@D@2@@std@@PAVModelList4k@@@std@@PAX@std@@@2@QAU32@@Z 00412270 f i Reuse.obj
 0001:00011270       ?_Insert_node@?$_Tree_val@U?$_Tree_simple_types@U?$pair@$$CBV?$basic_string@DU?$char_traits@D@std@@V?$allocator@D@2@@std@@PAVSymbol@@@std@@@std@@@std@@QAEPAU?$_Tree_node@U?$pair@$$CBV?$basic_string@DU?$char_traits@D@std@@V?$allocator@D@2@@std@@PAVSymbol@@@std@@PAX@2@U?$_Tree_id@PAU?$_Tree_node@U?$pair@$$CBV?$basic_string@DU?$char_traits@D@std@@V?$allocator@D@2@@std@@PAVSymbol@@@std@@PAX@std@@@2@QAU32@@Z 00412270 f i Hunk.obj
 0001:00011270       ?_Insert_node@?$_Tree_val@U?$_Tree_simple_types@U?$pair@$$CBV?$basic_string@DU?$char_traits@D@std@@V?$allocator@D@2@@std@@V12@@std@@@std@@@std@@QAEPAU?$_Tree_node@U?$pair@$$CBV?$basic_string@DU?$char_traits@D@std@@V?$allocator@D@2@@std@@V12@@std@@PAX@2@U?$_Tree_id@PAU?$_Tree_node@U?$pair@$$CBV?$basic_string@DU?$char_traits@D@std@@V?$allocator@D@2@@std@@V12@@std@@PAX@std@@@2@QAU32@@Z 00412270 f i HtmlReport.obj
 0001:00011270       ?_Insert_node@?$_Tree_val@U?$_Tree_simple_types@V?$basic_string@DU?$char_traits@D@std@@V?$allocator@D@2@@std@@@std@@@std@@QAEPAU?$_Tree_node@V?$basic_string@DU?$char_traits@D@std@@V?$allocator@D@2@@std@@PAX@2@U?$_Tree_id@PAU?$_Tree_node@V?$basic_string@DU?$char_traits@D@std@@V?$allocator@D@2@@std@@PAX@std@@@2@QAU32@@Z 00412270 f i Crinkler.obj
 0001:00011270       ?_Insert_node@?$_Tree_val@U?$_Tree_simple_types@VExport@@@std@@@std@@QAEPAU?$_Tree_node@VExport@@PAX@2@U?$_Tree_id@PAU?$_Tree_node@VExport@@PAX@std@@@2@QAU32@@Z 00412270 f i Crinkler.obj
 0001:00011460       ?_On_replacement_field@?$_Format_handler@D@std@@QAEXIPBD@Z 00412460 f i Crinkler.obj
 0001:000114e0       ?_On_sign@?$_Specs_checker@V?$_Specs_handler@V?$basic_format_parse_context@D@std@@V?$basic_format_context@V?$back_insert_iterator@V?$_Fmt_buffer@D@std@@@std@@D@2@@std@@@std@@QAEXW4_Fmt_sign@2@@Z 004124e0 f i Crinkler.obj
 0001:00011510       ?_Reset@?$_SpinWait@$00@details@Concurrency@@IAEXXZ 00412510 f i Crinkler.obj
 0001:00011540       ?_SpinOnce@?$_SpinWait@$00@details@Concurrency@@QAE_NXZ 00412540 f i Crinkler.obj
 0001:000116e0       ?_Throw_bad_array_new_length@std@@YAXXZ 004126e0 f i Crinkler.obj
 0001:00011700       ?_Throw_format_error@std@@YAXPBD@Z 00412700 f i Crinkler.obj
 0001:00011720       ?_Throw_tree_length_error@std@@YAXXZ 00412720 f i Crinkler.obj
 0001:00011730       ??1?$vector@DV?$allocator@D@std@@@std@@QAE@XZ 00412730 f i ImportHandler.obj
 0001:00011730       ?_Tidy@?$vector@DV?$allocator@D@std@@@std@@AAEXXZ 00412730 f i Export.obj
 0001:00011730       ?_Tidy@?$vector@EV?$allocator@E@std@@@std@@AAEXXZ 00412730 f i Crinkler.obj
 0001:00011790       ?_Tidy@?$vector@UHashBits@@V?$allocator@UHashBits@@@std@@@std@@AAEXXZ 00412790 f i Crinkler.obj
 0001:00011810       ?_Tidy@?$vector@UTinyHashEntry@@V?$allocator@UTinyHashEntry@@@std@@@std@@AAEXXZ 00412810 f i Crinkler.obj
 0001:00011870       ??1?$basic_string@DU?$char_traits@D@std@@V?$allocator@D@2@@std@@QAE@XZ 00412870 f i Export.obj
 0001:00011870       ?_Tidy_deallocate@?$basic_string@DU?$char_traits@D@std@@V?$allocator@D@2@@std@@AAEXXZ 00412870 f i Crinkler.obj
 0001:000118d0       ?_Xlen_string@std@@YAXXZ   004128d0 f i Crinkler.obj
 0001:000118e0       ?_Xlength@?$vector@DV?$allocator@D@std@@@std@@CAXXZ 004128e0 f i Crinkler.obj
 0001:000118e0       ?_Xlength@?$vector@EV?$allocator@E@std@@@std@@CAXXZ 004128e0 f i Crinkler.obj
 0001:000118e0       ?_Xlength@?$vector@HV?$allocator@H@std@@@std@@CAXXZ 004128e0 f i Crinkler.obj
 0001:000118e0       ?_Xlength@?$vector@IV?$allocator@I@std@@@std@@CAXXZ 004128e0 f i ImportHandler.obj
 0001:000118e0       ?_Xlength@?$vector@PAUCompressionReportRecord@@V?$allocator@PAUCompressionReportRecord@@@std@@@std@@CAXXZ 004128e0 f i Hunk.obj
 0001:000118e0       ?_Xlength@?$vector@PAVCmdParam@@V?$allocator@PAVCmdParam@@@std@@@std@@CAXXZ 004128e0 f i CmdLineInterface.obj
 0001:000118e0       ?_Xlength@?$vector@PAVHunk@@V?$allocator@PAVHunk@@@std@@@std@@CAXXZ 004128e0 f i Crinkler.obj
 0001:000118e0       ?_Xlength@?$vector@PAVHunkLoader@@V?$allocator@PAVHunkLoader@@@std@@@std@@CAXXZ 004128e0 f i MultiLoader.obj
 0001:000118e0       ?_Xlength@?$vector@PAVModelList4k@@V?$allocator@PAVModelList4k@@@std@@@std@@CAXXZ 004128e0 f i Crinkler.obj
 0001:000118e0       ?_Xlength@?$vector@PAVPart@@V?$allocator@PAVPart@@@std@@@std@@CAXXZ 004128e0 f i PartList.obj
 0001:000118e0       ?_Xlength@?$vector@PAVProgressBar@@V?$allocator@PAVProgressBar@@@std@@@std@@CAXXZ 004128e0 f i CompositeProgressBar.obj
 0001:000118e0       ?_Xlength@?$vector@PAVSymbol@@V?$allocator@PAVSymbol@@@std@@@std@@CAXXZ 004128e0 f i Crinkler.obj
 0001:000118e0       ?_Xlength@?$vector@PBDV?$allocator@PBD@std@@@std@@CAXXZ 004128e0 f i CoffLibraryLoader.obj
 0001:000118e0       ?_Xlength@?$vector@U?$pair@PADH@std@@V?$allocator@U?$pair@PADH@std@@@2@@std@@CAXXZ 004128e0 f i Export.obj
 0001:000118e0       ?_Xlength@?$vector@U?$pair@V?$basic_string@DU?$char_traits@D@std@@V?$allocator@D@2@@std@@V12@@std@@V?$allocator@U?$pair@V?$basic_string@DU?$char_traits@D@std@@V?$allocator@D@2@@std@@V12@@std@@@2@@std@@CAXXZ 004128e0 f i CmdParamMultiAssign.obj
 0001:000118e0       ?_Xlength@?$vector@UHashBits@@V?$allocator@UHashBits@@@std@@@std@@CAXXZ 004128e0 f i Crinkler.obj
 0001:000118e0       ?_Xlength@?$vector@URelocation@@V?$allocator@URelocation@@@std@@@std@@CAXXZ 004128e0 f i Hunk.obj
 0001:000118e0       ?_Xlength@?$vector@UTinyHashEntry@@V?$allocator@UTinyHashEntry@@@std@@@std@@CAXXZ 004128e0 f i Crinkler.obj
 0001:000118e0       ?_Xlength@?$vector@V?$basic_string@DU?$char_traits@D@std@@V?$allocator@D@2@@std@@V?$allocator@V?$basic_string@DU?$char_traits@D@std@@V?$allocator@D@2@@std@@@2@@std@@CAXXZ 004128e0 f i ImportHandler.obj
 0001:000118e0       ?_Xlength@?$vector@V?$vector@PAVHunk@@V?$allocator@PAVHunk@@@std@@@std@@V?$allocator@V?$vector@PAVHunk@@V?$allocator@PAVHunk@@@std@@@std@@@2@@std@@CAXXZ 004128e0 f i Reuse.obj
 0001:000118e0       ?_Xlength@?$vector@VReusePart@@V?$allocator@VReusePart@@@std@@@std@@CAXXZ 004128e0 f i Reuse.obj
 0001:000118f0       ?__append_d_digits@std@@YAXIIQAD@Z 004128f0 f i Crinkler.obj
 0001:000119c0       ?__d2d@std@@YA?AU__floating_decimal_64@1@_KI@Z 004129c0 f i Crinkler.obj
 0001:00012ca0       ?__d2exp_buffered_n@std@@YA?AUto_chars_result@1@PADQADNI@Z 00413ca0 f i Crinkler.obj
 0001:00013350       ?__decimalLength9@std@@YAII@Z 00414350 f i Crinkler.obj
 0001:000133c0       ?__div100@std@@YA_K_K@Z    004143c0 f i Crinkler.obj
 0001:00013420       ?__div1e8@std@@YA_K_K@Z    00414420 f i Crinkler.obj
 0001:00013470       ?__f2d@std@@YA?AU__floating_decimal_32@1@II@Z 00414470 f i Crinkler.obj
 0001:00013a20       ?__mulPow5InvDivPow2@std@@YAIIIH@Z 00414a20 f i Crinkler.obj
 0001:00013a70       ?__mulPow5divPow2@std@@YAIIIH@Z 00414a70 f i Crinkler.obj
 0001:00013ac0       ?__mulShift_mod1e9@std@@YAI_KQB_KH@Z 00414ac0 f i Crinkler.obj
 0001:00013d90       ?__multipleOfPowerOf2@std@@YA_N_KI@Z 00414d90 f i Crinkler.obj
 0001:00013dd0       ?__multipleOfPowerOf5@std@@YA_NII@Z 00414dd0 f i Crinkler.obj
 0001:00013e10       ?__multipleOfPowerOf5@std@@YA_N_KI@Z 00414e10 f i Crinkler.obj
 0001:00013ed0       ?append@?$basic_string@DU?$char_traits@D@std@@V?$allocator@D@2@@std@@QAEAAV12@QBDI@Z 00414ed0 f i Crinkler.obj
 0001:00014030       ?assign@?$basic_string@DU?$char_traits@D@std@@V?$allocator@D@2@@std@@QAEAAV12@QBDI@Z 00415030 f i Crinkler.obj
 0001:00014120       ?do_decimal_point@?$numpunct@D@std@@MBEDXZ 00415120 f i Crinkler.obj
 0001:00014130       ?do_falsename@?$numpunct@D@std@@MBE?AV?$basic_string@DU?$char_traits@D@std@@V?$allocator@D@2@@2@XZ 00415130 f i Crinkler.obj
 0001:00014170       ?do_grouping@?$numpunct@D@std@@MBE?AV?$basic_string@DU?$char_traits@D@std@@V?$allocator@D@2@@2@XZ 00415170 f i Crinkler.obj
 0001:000141b0       ?do_thousands_sep@?$numpunct@D@std@@MBEDXZ 004151b0 f i Crinkler.obj
 0001:000141c0       ?do_truename@?$numpunct@D@std@@MBE?AV?$basic_string@DU?$char_traits@D@std@@V?$allocator@D@2@@2@XZ 004151c0 f i Crinkler.obj
 0001:00014200       ?local@?$combinable@V?$vector@UTinyHashEntry@@V?$allocator@UTinyHashEntry@@@std@@@std@@@Concurrency@@QAEAAV?$vector@UTinyHashEntry@@V?$allocator@UTinyHashEntry@@@std@@@std@@XZ 00415200 f i Crinkler.obj
 0001:00014320       ?to_chars@std@@YA?AUto_chars_result@1@QAD0IH@Z 00415320 f i Crinkler.obj
 0001:00014490       ?what@exception@std@@UBEPBDXZ 00415490 f i Crinkler.obj
 0001:000144a0       ___local_stdio_printf_options 004154a0 f i Crinkler.obj
 0001:000144b0       _printf                    004154b0 f i Crinkler.obj
 0001:000144e0       _sprintf                   004154e0 f i Crinkler.obj
 0001:00014860       ??$_Buffered_rotate_unchecked@PAU?$pair@PADH@std@@@std@@YAPAU?$pair@PADH@0@QAU10@00HH0H@Z 00415860 f i Export.obj
 0001:000149b0       ??$_Copy_memmove@PAU?$pair@PADH@std@@PAU12@@std@@YAPAU?$pair@PADH@0@PAU10@00@Z 004159b0 f i Export.obj
 0001:000149d0       ??$_Emplace_reallocate@AAPADAAH@?$vector@U?$pair@PADH@std@@V?$allocator@U?$pair@PADH@std@@@2@@std@@AAEPAU?$pair@PADH@1@QAU21@AAPADAAH@Z 004159d0 f i Export.obj
 0001:00014b20       ??$_Erase_tree@V?$allocator@U?$_Tree_node@U?$pair@$$CBHH@std@@PAX@std@@@std@@@?$_Tree_val@U?$_Tree_simple_types@U?$pair@$$CBHH@std@@@std@@@std@@QAEXAAV?$allocator@U?$_Tree_node@U?$pair@$$CBHH@std@@PAX@std@@@1@PAU?$_Tree_node@U?$pair@$$CBHH@std@@PAX@1@@Z 00415b20 f i Export.obj
 0001:00014b20       ??$_Erase_tree@V?$allocator@U?$_Tree_node@U?$pair@$$CBHPAVSymbol@@@std@@PAX@std@@@std@@@?$_Tree_val@U?$_Tree_simple_types@U?$pair@$$CBHPAVSymbol@@@std@@@std@@@std@@QAEXAAV?$allocator@U?$_Tree_node@U?$pair@$$CBHPAVSymbol@@@std@@PAX@std@@@1@PAU?$_Tree_node@U?$pair@$$CBHPAVSymbol@@@std@@PAX@1@@Z 00415b20 f i HtmlReport.obj
 0001:00014b60       ??$_Get_temporary_buffer@U?$pair@PADH@std@@@std@@YA?AU?$pair@PAU?$pair@PADH@std@@H@0@H@Z 00415b60 f i Export.obj
 0001:00014f40       ??$_Move_backward_unchecked@PAU?$pair@PADH@std@@PAU12@@std@@YAPAU?$pair@PADH@0@PAU10@00@Z 00415f40 f i Export.obj
 0001:00014f70       ??$_Move_unchecked@PAU?$pair@PADH@std@@PAU12@@std@@YAPAU?$pair@PADH@0@PAU10@00@Z 00415f70 f i Export.obj
 0001:00014fa0       ??$_Return_temporary_buffer@U?$pair@PADH@std@@@std@@YAXQAU?$pair@PADH@0@@Z 00415fa0 f i Export.obj
 0001:00014fa0       ??_V@YAXPAX@Z              00415fa0 f i LIBCMT:delete_array.obj
 0001:00014fb0       ??$_Rotate_one_left@PAU?$pair@PADH@std@@@std@@YAXPAU?$pair@PADH@0@00@Z 00415fb0 f i Export.obj
 0001:00014ff0       ??$_Rotate_one_right@PAU?$pair@PADH@std@@@std@@YAXPAU?$pair@PADH@0@00@Z 00415ff0 f i Export.obj
 0001:000151a0       ??$_Uninitialized_move_unchecked@PAU?$pair@PADH@std@@PAU12@@std@@YAPAU?$pair@PADH@0@PAU10@QAU10@0@Z 004161a0 f i Export.obj
 0001:000151b0       ??$reverse@PAU?$pair@PADH@std@@@std@@YAXQAU?$pair@PADH@0@0@Z 004161b0 f i Export.obj
 0001:000152c0       ??0?$basic_string@DU?$char_traits@D@std@@V?$allocator@D@2@@std@@QAE@QBD@Z 004162c0 f i Export.obj
 0001:00015300       ??0Export@@QAE@V?$basic_string@DU?$char_traits@D@std@@V?$allocator@D@2@@std@@0@Z 00416300 f   Export.obj
 0001:000153b0       ??0Export@@QAE@V?$basic_string@DU?$char_traits@D@std@@V?$allocator@D@2@@std@@H@Z 004163b0 f   Export.obj
 0001:00015430       ??0Relocation@@QAE@$$QAU0@@Z 00416430 f i Export.obj
 0001:000154c0       ??1?$_Tree@V?$_Tmap_traits@HHU?$less@H@std@@V?$allocator@U?$pair@$$CBHH@std@@@2@$0A@@std@@@std@@QAE@XZ 004164c0 f i Export.obj
 0001:000154c0       ??1?$_Tree@V?$_Tmap_traits@HPAVSymbol@@U?$less@H@std@@V?$allocator@U?$pair@$$CBHPAVSymbol@@@std@@@3@$0A@@std@@@std@@QAE@XZ 004164c0 f i Hunk.obj
 0001:00015500       ?CreateExportTable@@YAPAVHunk@@ABV?$set@VExport@@U?$less@VExport@@@std@@V?$allocator@VExport@@@3@@std@@@Z 00416500 f   Export.obj
 0001:00016470       ?ParseExport@@YA?AVExport@@ABV?$basic_string@DU?$char_traits@D@std@@V?$allocator@D@2@@std@@0@Z 00417470 f   Export.obj
 0001:00016520       ?PrintExports@@YAXABV?$set@VExport@@U?$less@VExport@@@std@@V?$allocator@VExport@@@3@@std@@@Z 00417520 f   Export.obj
 0001:00016660       ?StripExports@@YA?AV?$set@VExport@@U?$less@VExport@@@std@@V?$allocator@VExport@@@3@@std@@PAVHunk@@H@Z 00417660 f   Export.obj
 0001:00016b80       ?FixHeader04@@YAXPAD@Z     00417b80 f   Fix.obj
 0001:00016cc0       ?FixHeader10@@YAXPAD@Z     00417cc0 f   Fix.obj
 0001:00016ce0       ??$?HDU?$char_traits@D@std@@V?$allocator@D@1@@std@@YA?AV?$basic_string@DU?$char_traits@D@std@@V?$allocator@D@2@@0@$$QAV10@0@Z 00417ce0 f i HtmlReport.obj
 0001:00016d00       ??$?HDU?$char_traits@D@std@@V?$allocator@D@1@@std@@YA?AV?$basic_string@DU?$char_traits@D@std@@V?$allocator@D@2@@0@$$QAV10@ABV10@@Z 00417d00 f i HtmlReport.obj
 0001:00016d60       ??$?HDU?$char_traits@D@std@@V?$allocator@D@1@@std@@YA?AV?$basic_string@DU?$char_traits@D@std@@V?$allocator@D@2@@0@$$QAV10@QBD@Z 00417d60 f i HtmlReport.obj
 0001:00016dd0       ??$_Construct@$00PB_W@?$basic_string@_WU?$char_traits@_W@std@@V?$allocator@_W@2@@std@@AAEXQB_WI@Z 00417dd0 f i HtmlReport.obj
 0001:00016ea0       ??$_Convert_Source_to_wide@PBDU_Normal_conversion@filesystem@std@@@filesystem@std@@YA?AV?$basic_string@_WU?$char_traits@_W@std@@V?$allocator@_W@2@@1@ABQBDU_Normal_conversion@01@@Z 00417ea0 f i HtmlReport.obj
 0001:00016ed0       ??$_Convert_Source_to_wide@V?$basic_string_view@_WU?$char_traits@_W@std@@@std@@U_Normal_conversion@filesystem@2@@filesystem@std@@YA?AV?$basic_string@_WU?$char_traits@_W@std@@V?$allocator@_W@2@@1@ABV?$basic_string_view@_WU?$char_traits@_W@std@@@1@U_Normal_conversion@01@@Z 00417ed0 f i HtmlReport.obj
 0001:00016f00       ??$_Convert_stringoid_to_wide@U_Normal_conversion@filesystem@std@@@filesystem@std@@YA?AV?$basic_string@_WU?$char_traits@_W@std@@V?$allocator@_W@2@@1@V?$basic_string_view@DU?$char_traits@D@std@@@1@U_Normal_conversion@01@@Z 00417f00 f i HtmlReport.obj
 0001:00016fa0       ??$_Convert_stringoid_to_wide@U_Normal_conversion@filesystem@std@@@filesystem@std@@YA?AV?$basic_string@_WU?$char_traits@_W@std@@V?$allocator@_W@2@@1@V?$basic_string_view@_WU?$char_traits@_W@std@@@1@U_Normal_conversion@01@@Z 00417fa0 f i HtmlReport.obj
 0001:00016fd0       ??$_Convert_wide_to@U?$char_traits@D@std@@V?$allocator@D@2@D@filesystem@std@@YA?AV?$basic_string@DU?$char_traits@D@std@@V?$allocator@D@2@@1@V?$basic_string_view@_WU?$char_traits@_W@std@@@1@ABV?$allocator@D@1@@Z 00417fd0 f i HtmlReport.obj
 0001:00017000       ??$_Convert_wide_to_narrow@U?$char_traits@D@std@@V?$allocator@D@2@@std@@YA?AV?$basic_string@DU?$char_traits@D@std@@V?$allocator@D@2@@0@W4__std_code_page@@V?$basic_string_view@_WU?$char_traits@_W@std@@@0@ABV?$allocator@D@0@@Z 00418000 f i HtmlReport.obj
 0001:000170b0       ??$_Copy_nodes@$0A@@?$_Tree@V?$_Tmap_traits@HPAVSymbol@@U?$less@H@std@@V?$allocator@U?$pair@$$CBHPAVSymbol@@@std@@@3@$0A@@std@@@std@@IAEPAU?$_Tree_node@U?$pair@$$CBHPAVSymbol@@@std@@PAX@1@PAU21@0@Z 004180b0 f i HtmlReport.obj
 0001:00017120       ??$_Erase_head@V?$allocator@U?$_Tree_node@U?$pair@$$CBHPAVSymbol@@@std@@PAX@std@@@std@@@?$_Tree_val@U?$_Tree_simple_types@U?$pair@$$CBHPAVSymbol@@@std@@@std@@@std@@QAEXAAV?$allocator@U?$_Tree_node@U?$pair@$$CBHPAVSymbol@@@std@@PAX@std@@@1@@Z 00418120 f i HtmlReport.obj
 0001:00017170       ??$_Find_vectorized@$$CB_W_W@std@@YAPB_WQB_W0_W@Z 00418170 f i HtmlReport.obj
 0001:00017190       ??$_Format_to_it@DV?$back_insert_iterator@V?$basic_string@DU?$char_traits@D@std@@V?$allocator@D@2@@std@@@std@@V?$basic_format_context@V?$back_insert_iterator@V?$_Fmt_buffer@D@std@@@std@@D@2@@std@@YA?AV?$back_insert_iterator@V?$basic_string@DU?$char_traits@D@std@@V?$allocator@D@2@@std@@@0@V10@V?$basic_string_view@DU?$char_traits@D@std@@@0@V?$basic_format_args@V?$basic_format_context@V?$back_insert_iterator@V?$_Fmt_buffer@D@std@@@std@@D@std@@@0@V_Lazy_locale@0@@Z 00418190 f i HtmlReport.obj
 0001:000172b0       ??$_Immortalize_memcpy_image@V_Generic_error_category@std@@@std@@YAABV_Generic_error_category@0@XZ 004182b0 f i HtmlReport.obj
 0001:000172b0       ?generic_category@std@@YAABVerror_category@1@XZ 004182b0 f i libcpmt:thread0.obj
 0001:000172c0       ??$_Immortalize_memcpy_image@V_System_error_category@std@@@std@@YAABV_System_error_category@0@XZ 004182c0 f i HtmlReport.obj
 0001:000172d0       ??$_Parse_format_string@DAAU?$_Format_handler@D@std@@@std@@YAXV?$basic_string_view@DU?$char_traits@D@std@@@0@AAU?$_Format_handler@D@0@@Z 004182d0 f i HtmlReport.obj
 0001:00017370       ??$_Reallocate_grow_by@V<lambda_1>@?1??append@?$basic_string@_WU?$char_traits@_W@std@@V?$allocator@_W@2@@std@@QAEAAV34@I_W@Z@I_W@?$basic_string@_WU?$char_traits@_W@std@@V?$allocator@_W@2@@std@@AAEAAV01@IV<lambda_1>@?1??append@01@QAEAAV01@I_W@Z@I_W@Z 00418370 f i HtmlReport.obj
 0001:000174c0       ??$_Reallocate_grow_by@V<lambda_1>@?1??insert@?$basic_string@DU?$char_traits@D@std@@V?$allocator@D@2@@std@@QAEAAV34@IQBDI@Z@IPBDI@?$basic_string@DU?$char_traits@D@std@@V?$allocator@D@2@@std@@AAEAAV01@IV<lambda_1>@?1??insert@01@QAEAAV01@IQBDI@Z@IPBDI@Z 004184c0 f i HtmlReport.obj
 0001:00017600       ??$_Stringoid_from_Source@PBD@filesystem@std@@YA?A_PABQBD@Z 00418600 f i HtmlReport.obj
 0001:00017620       ??$_Stringoid_from_Source@_WU?$char_traits@_W@std@@@filesystem@std@@YA?A_PABV?$basic_string_view@_WU?$char_traits@_W@std@@@1@@Z 00418620 f i HtmlReport.obj
 0001:00017640       ??$_Traits_compare@U?$char_traits@D@std@@@std@@YAHQBDI0I@Z 00418640 f i HtmlReport.obj
 0001:000176d0       ??$_Traits_equal@U?$char_traits@D@std@@@std@@YA_NQBDI0I@Z 004186d0 f i HtmlReport.obj
 0001:00017750       ??$find_if@PB_WU_Is_slash_oper@filesystem@std@@@std@@YAPB_WPB_WQB_WU_Is_slash_oper@filesystem@0@@Z 00418750 f i HtmlReport.obj
 0001:00017780       ??$format@AADH@std@@YA?AV?$basic_string@DU?$char_traits@D@std@@V?$allocator@D@2@@0@U?$basic_format_string@DAADH@0@AAD$$QAH@Z 00418780 f i HtmlReport.obj
 0001:000177d0       ??$format@AAV?$basic_string@DU?$char_traits@D@std@@V?$allocator@D@2@@std@@AAH@std@@YA?AV?$basic_string@DU?$char_traits@D@std@@V?$allocator@D@2@@0@U?$basic_format_string@DAAV?$basic_string@DU?$char_traits@D@std@@V?$allocator@D@2@@std@@AAH@0@AAV10@AAH@Z 004187d0 f i HtmlReport.obj
 0001:000177d0       ??$format@AAV?$basic_string@DU?$char_traits@D@std@@V?$allocator@D@2@@std@@H@std@@YA?AV?$basic_string@DU?$char_traits@D@std@@V?$allocator@D@2@@0@U?$basic_format_string@DAAV?$basic_string@DU?$char_traits@D@std@@V?$allocator@D@2@@std@@H@0@AAV10@$$QAH@Z 004187d0 f i HtmlReport.obj
 0001:00017820       ??$format_to@V?$back_insert_iterator@V?$vector@DV?$allocator@D@std@@@std@@@std@@AAHAAI@std@@YA?AV?$back_insert_iterator@V?$vector@DV?$allocator@D@std@@@std@@@0@V10@U?$basic_format_string@DAAHAAI@0@AAHAAI@Z 00418820 f i HtmlReport.obj
 0001:00017870       ??$format_to@V?$back_insert_iterator@V?$vector@DV?$allocator@D@std@@@std@@@std@@AAHAAIAAHAAI@std@@YA?AV?$back_insert_iterator@V?$vector@DV?$allocator@D@std@@@std@@@0@V10@U?$basic_format_string@DAAHAAIAAHAAI@0@AAHAAI23@Z 00418870 f i HtmlReport.obj
 0001:000178c0       ??$format_to@V?$back_insert_iterator@V?$vector@DV?$allocator@D@std@@@std@@@std@@AAPBDAAPBD@std@@YA?AV?$back_insert_iterator@V?$vector@DV?$allocator@D@std@@@std@@@0@V10@U?$basic_format_string@DAAPBDAAPBD@0@AAPBD2@Z 004188c0 f i HtmlReport.obj
 0001:00017910       ??$format_to@V?$back_insert_iterator@V?$vector@DV?$allocator@D@std@@@std@@@std@@AAPBDAAY0O@$$CBDPAD@std@@YA?AV?$back_insert_iterator@V?$vector@DV?$allocator@D@std@@@std@@@0@V10@U?$basic_format_string@DAAPBDAAY0O@$$CBDPAD@0@AAPBDAAY0O@$$CBD$$QAPAD@Z 00418910 f i HtmlReport.obj
 0001:00017960       ??$format_to@V?$back_insert_iterator@V?$vector@DV?$allocator@D@std@@@std@@@std@@HAAHAAE@std@@YA?AV?$back_insert_iterator@V?$vector@DV?$allocator@D@std@@@std@@@0@V10@U?$basic_format_string@DHAAHAAE@0@$$QAHAAHAAE@Z 00418960 f i HtmlReport.obj
 0001:000179b0       ??$format_to@V?$back_insert_iterator@V?$vector@DV?$allocator@D@std@@@std@@@std@@HAAHH@std@@YA?AV?$back_insert_iterator@V?$vector@DV?$allocator@D@std@@@std@@@0@V10@U?$basic_format_string@DHAAHH@0@$$QAHAAH2@Z 004189b0 f i HtmlReport.obj
 0001:00017a00       ??$format_to@V?$back_insert_iterator@V?$vector@DV?$allocator@D@std@@@std@@@std@@HABHAAV?$basic_string@DU?$char_traits@D@std@@V?$allocator@D@2@@2@@std@@YA?AV?$back_insert_iterator@V?$vector@DV?$allocator@D@std@@@std@@@0@V10@U?$basic_format_string@DHABHAAV?$basic_string@DU?$char_traits@D@std@@V?$allocator@D@2@@std@@@0@$$QAHABHAAV?$basic_string@DU?$char_traits@D@std@@V?$allocator@D@2@@0@@Z 00418a00 f i HtmlReport.obj
 0001:00017a50       ??$format_to@V?$back_insert_iterator@V?$vector@DV?$allocator@D@std@@@std@@@std@@HPAD@std@@YA?AV?$back_insert_iterator@V?$vector@DV?$allocator@D@std@@@std@@@0@V10@U?$basic_format_string@DHPAD@0@$$QAH$$QAPAD@Z 00418a50 f i HtmlReport.obj
 0001:00017aa0       ??$format_to@V?$back_insert_iterator@V?$vector@DV?$allocator@D@std@@@std@@@std@@I@std@@YA?AV?$back_insert_iterator@V?$vector@DV?$allocator@D@std@@@std@@@0@V10@U?$basic_format_string@DI@0@$$QAI@Z 00418aa0 f i HtmlReport.obj
 0001:00017ae0       ??$format_to@V?$back_insert_iterator@V?$vector@DV?$allocator@D@std@@@std@@@std@@MM@std@@YA?AV?$back_insert_iterator@V?$vector@DV?$allocator@D@std@@@std@@@0@V10@U?$basic_format_string@DMM@0@$$QAM2@Z 00418ae0 f i HtmlReport.obj
 0001:00017b30       ??$format_to@V?$back_insert_iterator@V?$vector@DV?$allocator@D@std@@@std@@@std@@PBDABH@std@@YA?AV?$back_insert_iterator@V?$vector@DV?$allocator@D@std@@@std@@@0@V10@U?$basic_format_string@DPBDABH@0@$$QAPBDABH@Z 00418b30 f i HtmlReport.obj
 0001:00017b80       ??$format_to@V?$back_insert_iterator@V?$vector@DV?$allocator@D@std@@@std@@@std@@PBDHAAV?$basic_string@DU?$char_traits@D@std@@V?$allocator@D@2@@2@@std@@YA?AV?$back_insert_iterator@V?$vector@DV?$allocator@D@std@@@std@@@0@V10@U?$basic_format_string@DPBDHAAV?$basic_string@DU?$char_traits@D@std@@V?$allocator@D@2@@std@@@0@$$QAPBD$$QAHAAV?$basic_string@DU?$char_traits@D@std@@V?$allocator@D@2@@0@@Z 00418b80 f i HtmlReport.obj
 0001:00017bd0       ??$make_format_args@V?$basic_format_context@V?$back_insert_iterator@V?$_Fmt_buffer@D@std@@@std@@D@std@@DH@std@@YA?A_PAADAAH@Z 00418bd0 f i HtmlReport.obj
 0001:00017c10       ??$make_format_args@V?$basic_format_context@V?$back_insert_iterator@V?$_Fmt_buffer@D@std@@@std@@D@std@@H$$CBHV?$basic_string@DU?$char_traits@D@std@@V?$allocator@D@2@@2@@std@@YA?A_PAAHABHAAV?$basic_string@DU?$char_traits@D@std@@V?$allocator@D@2@@0@@Z 00418c10 f i HtmlReport.obj
 0001:00017c90       ??$make_format_args@V?$basic_format_context@V?$back_insert_iterator@V?$_Fmt_buffer@D@std@@@std@@D@std@@HHE@std@@YA?A_PAAH0AAE@Z 00418c90 f i HtmlReport.obj
 0001:00017d00       ??$make_format_args@V?$basic_format_context@V?$back_insert_iterator@V?$_Fmt_buffer@D@std@@@std@@D@std@@HHH@std@@YA?A_PAAH00@Z 00418d00 f i HtmlReport.obj
 0001:00017d70       ??$make_format_args@V?$basic_format_context@V?$back_insert_iterator@V?$_Fmt_buffer@D@std@@@std@@D@std@@HI@std@@YA?A_PAAHAAI@Z 00418d70 f i HtmlReport.obj
 0001:00017db0       ??$make_format_args@V?$basic_format_context@V?$back_insert_iterator@V?$_Fmt_buffer@D@std@@@std@@D@std@@HIHI@std@@YA?A_PAAHAAI01@Z 00418db0 f i HtmlReport.obj
 0001:00017e30       ??$make_format_args@V?$basic_format_context@V?$back_insert_iterator@V?$_Fmt_buffer@D@std@@@std@@D@std@@HPAD@std@@YA?A_PAAHAAPAD@Z 00418e30 f i HtmlReport.obj
 0001:00017e70       ??$make_format_args@V?$basic_format_context@V?$back_insert_iterator@V?$_Fmt_buffer@D@std@@@std@@D@std@@I@std@@YA?A_PAAI@Z 00418e70 f i HtmlReport.obj
 0001:00017e90       ??$make_format_args@V?$basic_format_context@V?$back_insert_iterator@V?$_Fmt_buffer@D@std@@@std@@D@std@@MM@std@@YA?A_PAAM0@Z 00418e90 f i HtmlReport.obj
 0001:00017ef0       ??$make_format_args@V?$basic_format_context@V?$back_insert_iterator@V?$_Fmt_buffer@D@std@@@std@@D@std@@PBD$$BY0O@$$CBDPAD@std@@YA?A_PAAPBDAAY0O@$$CBDAAPAD@Z 00418ef0 f i HtmlReport.obj
 0001:00017f60       ??$make_format_args@V?$basic_format_context@V?$back_insert_iterator@V?$_Fmt_buffer@D@std@@@std@@D@std@@PBD$$CBH@std@@YA?A_PAAPBDABH@Z 00418f60 f i HtmlReport.obj
 0001:00017fa0       ??$make_format_args@V?$basic_format_context@V?$back_insert_iterator@V?$_Fmt_buffer@D@std@@@std@@D@std@@PBDHV?$basic_string@DU?$char_traits@D@std@@V?$allocator@D@2@@2@@std@@YA?A_PAAPBDAAHAAV?$basic_string@DU?$char_traits@D@std@@V?$allocator@D@2@@0@@Z 00418fa0 f i HtmlReport.obj
 0001:00018020       ??$make_format_args@V?$basic_format_context@V?$back_insert_iterator@V?$_Fmt_buffer@D@std@@@std@@D@std@@PBDPBD@std@@YA?A_PAAPBD0@Z 00419020 f i HtmlReport.obj
 0001:00018060       ??$vformat@$0A@@std@@YA?AV?$basic_string@DU?$char_traits@D@std@@V?$allocator@D@2@@0@V?$basic_string_view@DU?$char_traits@D@std@@@0@V?$basic_format_args@V?$basic_format_context@V?$back_insert_iterator@V?$_Fmt_buffer@D@std@@@std@@D@std@@@0@@Z 00419060 f i HtmlReport.obj
 0001:00018100       ??$vformat_to@V?$back_insert_iterator@V?$basic_string@DU?$char_traits@D@std@@V?$allocator@D@2@@std@@@std@@@std@@YA?AV?$back_insert_iterator@V?$basic_string@DU?$char_traits@D@std@@V?$allocator@D@2@@std@@@0@V10@V?$basic_string_view@DU?$char_traits@D@std@@@0@V?$basic_format_args@V?$basic_format_context@V?$back_insert_iterator@V?$_Fmt_buffer@D@std@@@std@@D@std@@@0@@Z 00419100 f i HtmlReport.obj
 0001:00018130       ??0?$basic_string@DU?$char_traits@D@std@@V?$allocator@D@2@@std@@QAE@U_String_constructor_concat_tag@1@AAV01@1@Z 00419130 f i HtmlReport.obj
 0001:000182f0       ??0?$basic_string@DU?$char_traits@D@std@@V?$allocator@D@2@@std@@QAE@U_String_constructor_concat_tag@1@ABV01@QBDI2I@Z 004192f0 f i HtmlReport.obj
 0001:000183b0       ??0_System_error@std@@QAE@ABV01@@Z 004193b0 f i HtmlReport.obj
 0001:000183f0       ??0system_error@std@@QAE@ABV01@@Z 004193f0 f i HtmlReport.obj
 0001:00018440       ??0system_error@std@@QAE@Verror_code@1@@Z 00419440 f i HtmlReport.obj
 0001:00018500       ??4?$basic_string@DU?$char_traits@D@std@@V?$allocator@D@2@@std@@QAEAAV01@$$QAV01@@Z 00419500 f i HtmlReport.obj
 0001:00018540       ??4?$basic_string@DU?$char_traits@D@std@@V?$allocator@D@2@@std@@QAEAAV01@ABV01@@Z 00419540 f i HtmlReport.obj
 0001:00018570       ??A?$map@V?$basic_string@DU?$char_traits@D@std@@V?$allocator@D@2@@std@@V12@U?$less@V?$basic_string@DU?$char_traits@D@std@@V?$allocator@D@2@@std@@@2@V?$allocator@U?$pair@$$CBV?$basic_string@DU?$char_traits@D@std@@V?$allocator@D@2@@std@@V12@@std@@@2@@std@@QAEAAV?$basic_string@DU?$char_traits@D@std@@V?$allocator@D@2@@1@ABV21@@Z 00419570 f i HtmlReport.obj
 0001:00018640       ??R_Is_slash_oper@filesystem@std@@SA_N_W@Z 00419640 f i HtmlReport.obj
 0001:00018660       ??_E_Generic_error_category@std@@UAEPAXI@Z 00419660 f i HtmlReport.obj
 0001:00018660       ??_E_System_error_category@std@@UAEPAXI@Z 00419660 f i HtmlReport.obj
 0001:00018660       ??_G_Generic_error_category@std@@UAEPAXI@Z 00419660 f i HtmlReport.obj
 0001:00018660       ??_G_System_error_category@std@@UAEPAXI@Z 00419660 f i HtmlReport.obj
 0001:00018680       ??_E_System_error@std@@UAEPAXI@Z 00419680 f i HtmlReport.obj
 0001:00018680       ??_Esystem_error@std@@UAEPAXI@Z 00419680 f i HtmlReport.obj
 0001:00018680       ??_G_System_error@std@@UAEPAXI@Z 00419680 f i HtmlReport.obj
 0001:00018680       ??_Gsystem_error@std@@UAEPAXI@Z 00419680 f i HtmlReport.obj
 0001:00019530       ?HtmlReport@@YAXPAUCompressionReportRecord@@PBDAAVHunk@@2PBH1HPAVCrinkler@@@Z 0041a530 f   HtmlReport.obj
 0001:0001b4f0       ?_Change_array@?$vector@DV?$allocator@D@std@@@std@@AAEXQADII@Z 0041c4f0 f i HtmlReport.obj
 0001:0001b4f0       ?_Change_array@?$vector@EV?$allocator@E@std@@@std@@AAEXQAEII@Z 0041c4f0 f i Hunk.obj
 0001:0001b550       ?_Deallocate_for_capacity@?$basic_string@_WU?$char_traits@_W@std@@V?$allocator@_W@2@@std@@CAXAAV?$allocator@_W@2@QA_WI@Z 0041c550 f i HtmlReport.obj
 0001:0001b5a0       ?_Find_filename@filesystem@std@@YAPB_WQB_WPB_W@Z 0041c5a0 f i HtmlReport.obj
 0001:0001b5f0       ?_Find_root_name_end@filesystem@std@@YAPB_WQB_W0@Z 0041c5f0 f i HtmlReport.obj
 0001:0001b6f0       ?_Grow@?$_Fmt_iterator_buffer@V?$back_insert_iterator@V?$basic_string@DU?$char_traits@D@std@@V?$allocator@D@2@@std@@@std@@DU_Fmt_buffer_traits@2@@std@@EAEXI@Z 0041c6f0 f i HtmlReport.obj
 0001:0001b740       ?_Make_ec@std@@YA?AVerror_code@1@W4__std_win_error@@@Z 0041c740 f i HtmlReport.obj
 0001:0001b760       ?_Throw_system_error@std@@YAXW4errc@1@@Z 0041c760 f i HtmlReport.obj
 0001:0001b7a0       ?_Throw_system_error_from_std_win_error@std@@YAXW4__std_win_error@@@Z 0041c7a0 f i HtmlReport.obj
 0001:0001b7e0       ?_Tidy_deallocate@?$basic_string@_WU?$char_traits@_W@std@@V?$allocator@_W@2@@std@@AAEXXZ 0041c7e0 f i HtmlReport.obj
 0001:0001b840       ?_Xran@?$_String_val@U?$_Simple_types@D@std@@@std@@SAXXZ 0041c840 f i HtmlReport.obj
 0001:0001b850       ?append@?$basic_string@DU?$char_traits@D@std@@V?$allocator@D@2@@std@@QAEAAV12@ID@Z 0041c850 f i HtmlReport.obj
 0001:0001b9b0       ?deallocate@?$allocator@H@std@@QAEXQAHI@Z 0041c9b0 f i HtmlReport.obj
 0001:0001b9b0       ?deallocate@?$allocator@I@std@@QAEXQAII@Z 0041c9b0 f i ImportHandler.obj
 0001:0001b9b0       ?deallocate@?$allocator@PAPAVHunk@@@std@@QAEXQAPAPAVHunk@@I@Z 0041c9b0 f i PartList.obj
 0001:0001b9b0       ?deallocate@?$allocator@V?$_List_unchecked_iterator@V?$_List_val@U?$_List_simple_types@U?$pair@$$CBV?$basic_string@DU?$char_traits@D@std@@V?$allocator@D@2@@std@@PAVHunk@@@std@@@std@@@std@@@std@@@std@@QAEXQAV?$_List_unchecked_iterator@V?$_List_val@U?$_List_simple_types@U?$pair@$$CBV?$basic_string@DU?$char_traits@D@std@@V?$allocator@D@2@@std@@PAVHunk@@@std@@@std@@@std@@@2@I@Z 0041c9b0 f i Reuse.obj
 0001:0001ba00       ?default_error_condition@_System_error_category@std@@UBE?AVerror_condition@2@H@Z 0041ca00 f i HtmlReport.obj
 0001:0001ba50       ?default_error_condition@error_category@std@@UBE?AVerror_condition@2@H@Z 0041ca50 f i HtmlReport.obj
 0001:0001ba60       ?equivalent@error_category@std@@UBE_NABVerror_code@2@H@Z 0041ca60 f i HtmlReport.obj
 0001:0001ba90       ?equivalent@error_category@std@@UBE_NHABVerror_condition@2@@Z 0041ca90 f i HtmlReport.obj
 0001:0001bad0       ?find@?$_Tree@V?$_Tmap_traits@HPAVSymbol@@U?$less@H@std@@V?$allocator@U?$pair@$$CBHPAVSymbol@@@std@@@3@$0A@@std@@@std@@QAE?AV?$_Tree_iterator@V?$_Tree_val@U?$_Tree_simple_types@U?$pair@$$CBHPAVSymbol@@@std@@@std@@@std@@@2@ABH@Z 0041cad0 f i HtmlReport.obj
 0001:0001bb80       ?insert@?$basic_string@DU?$char_traits@D@std@@V?$allocator@D@2@@std@@QAEAAV12@IQBDI@Z 0041cb80 f i HtmlReport.obj
 0001:0001bc50       ?make_error_code@std@@YA?AVerror_code@1@W4errc@1@@Z 0041cc50 f i HtmlReport.obj
 0001:0001bc70       ?message@_Generic_error_category@std@@UBE?AV?$basic_string@DU?$char_traits@D@std@@V?$allocator@D@2@@2@H@Z 0041cc70 f i HtmlReport.obj
 0001:0001bcc0       ?message@_System_error_category@std@@UBE?AV?$basic_string@DU?$char_traits@D@std@@V?$allocator@D@2@@2@H@Z 0041ccc0 f i HtmlReport.obj
 0001:0001bd70       ?name@_Generic_error_category@std@@UBEPBDXZ 0041cd70 f i HtmlReport.obj
 0001:0001bd80       ?name@_System_error_category@std@@UBEPBDXZ 0041cd80 f i HtmlReport.obj
 0001:0001bd90       ?reserve@?$basic_string@DU?$char_traits@D@std@@V?$allocator@D@2@@std@@QAEXI@Z 0041cd90 f i HtmlReport.obj
 0001:0001be80       ?resize@?$basic_string@_WU?$char_traits@_W@std@@V?$allocator@_W@2@@std@@QAEXI_W@Z 0041ce80 f i HtmlReport.obj
 0001:0001bf00       ___local_stdio_scanf_options 0041cf00 f i HtmlReport.obj
 0001:0001bf10       _sscanf_s                  0041cf10 f i HtmlReport.obj
 0001:0001bf40       ??$_Emplace_reallocate@ABURelocation@@@?$vector@URelocation@@V?$allocator@URelocation@@@std@@@std@@AAEPAURelocation@@QAU2@ABU2@@Z 0041cf40 f i Hunk.obj
 0001:0001c140       ??$_Find_last_vectorized@$$CBDD@std@@YAPBDQBD0D@Z 0041d140 f i Hunk.obj
 0001:0001c160       ??$_Find_lower_bound@H@?$_Tree@V?$_Tmap_traits@HPAVSymbol@@U?$less@H@std@@V?$allocator@U?$pair@$$CBHPAVSymbol@@@std@@@3@$0A@@std@@@std@@IBE?AU?$_Tree_find_result@PAU?$_Tree_node@U?$pair@$$CBHPAVSymbol@@@std@@PAX@std@@@1@ABH@Z 0041d160 f i Hunk.obj
 0001:0001c1b0       ??$_Find_lower_bound@V?$basic_string@DU?$char_traits@D@std@@V?$allocator@D@2@@std@@@?$_Tree@V?$_Tmap_traits@V?$basic_string@DU?$char_traits@D@std@@V?$allocator@D@2@@std@@PAVMemoryFile@@U?$less@V?$basic_string@DU?$char_traits@D@std@@V?$allocator@D@2@@std@@@2@V?$allocator@U?$pair@$$CBV?$basic_string@DU?$char_traits@D@std@@V?$allocator@D@2@@std@@PAVMemoryFile@@@std@@@2@$0A@@std@@@std@@IBE?AU?$_Tree_find_result@PAU?$_Tree_node@U?$pair@$$CBV?$basic_string@DU?$char_traits@D@std@@V?$allocator@D@2@@std@@PAVMemoryFile@@@std@@PAX@std@@@1@ABV?$basic_string@DU?$char_traits@D@std@@V?$allocator@D@2@@1@@Z 0041d1b0 f i main.obj
 0001:0001c1b0       ??$_Find_lower_bound@V?$basic_string@DU?$char_traits@D@std@@V?$allocator@D@2@@std@@@?$_Tree@V?$_Tmap_traits@V?$basic_string@DU?$char_traits@D@std@@V?$allocator@D@2@@std@@PAVSymbol@@U?$less@V?$basic_string@DU?$char_traits@D@std@@V?$allocator@D@2@@std@@@2@V?$allocator@U?$pair@$$CBV?$basic_string@DU?$char_traits@D@std@@V?$allocator@D@2@@std@@PAVSymbol@@@std@@@2@$0A@@std@@@std@@IBE?AU?$_Tree_find_result@PAU?$_Tree_node@U?$pair@$$CBV?$basic_string@DU?$char_traits@D@std@@V?$allocator@D@2@@std@@PAVSymbol@@@std@@PAX@std@@@1@ABV?$basic_string@DU?$char_traits@D@std@@V?$allocator@D@2@@1@@Z 0041d1b0 f i Hunk.obj
 0001:0001c250       ??$_Guess_median_unchecked@PAPAVHunk@@P6A_NPAV1@0@Z@std@@YAXPAPAVHunk@@00P6A_NPAV1@1@Z@Z 0041d250 f i HeuristicHunkSorter.obj
 0001:0001c250       ??$_Guess_median_unchecked@PAPAVHunk@@P6A_NPBV1@0@Z@std@@YAXPAPAVHunk@@00P6A_NPBV1@1@Z@Z 0041d250 f i ImportHandler.obj
 0001:0001c250       ??$_Guess_median_unchecked@PAPAVSymbol@@P6A_NPAV1@0@Z@std@@YAXPAPAVSymbol@@00P6A_NPAV1@1@Z@Z 0041d250 f i Hunk.obj
 0001:0001c460       ??$_Partition_by_median_guess_unchecked@PAPAVHunk@@P6A_NPAV1@0@Z@std@@YA?AU?$pair@PAPAVHunk@@PAPAV1@@0@PAPAVHunk@@0P6A_NPAV2@1@Z@Z 0041d460 f i HeuristicHunkSorter.obj
 0001:0001c460       ??$_Partition_by_median_guess_unchecked@PAPAVHunk@@P6A_NPBV1@0@Z@std@@YA?AU?$pair@PAPAVHunk@@PAPAV1@@0@PAPAVHunk@@0P6A_NPBV2@1@Z@Z 0041d460 f i ImportHandler.obj
 0001:0001c460       ??$_Partition_by_median_guess_unchecked@PAPAVSymbol@@P6A_NPAV1@0@Z@std@@YA?AU?$pair@PAPAVSymbol@@PAPAV1@@0@PAPAVSymbol@@0P6A_NPAV2@1@Z@Z 0041d460 f i Hunk.obj
 0001:0001c640       ??$_Pop_heap_hole_by_index@PAPAVHunk@@PAV1@P6A_NPAV1@0@Z@std@@YAXPAPAVHunk@@HH$$QAPAV1@P6A_NPAV1@2@Z@Z 0041d640 f i HeuristicHunkSorter.obj
 0001:0001c640       ??$_Pop_heap_hole_by_index@PAPAVHunk@@PAV1@P6A_NPBV1@0@Z@std@@YAXPAPAVHunk@@HH$$QAPAV1@P6A_NPBV1@2@Z@Z 0041d640 f i ImportHandler.obj
 0001:0001c640       ??$_Pop_heap_hole_by_index@PAPAVSymbol@@PAV1@P6A_NPAV1@0@Z@std@@YAXPAPAVSymbol@@HH$$QAPAV1@P6A_NPAV1@2@Z@Z 0041d640 f i Hunk.obj
 0001:0001c700       ??$_Sort_unchecked@PAPAVHunk@@P6A_NPAV1@0@Z@std@@YAXPAPAVHunk@@0HP6A_NPAV1@1@Z@Z 0041d700 f i HeuristicHunkSorter.obj
 0001:0001c700       ??$_Sort_unchecked@PAPAVHunk@@P6A_NPBV1@0@Z@std@@YAXPAPAVHunk@@0HP6A_NPBV1@1@Z@Z 0041d700 f i ImportHandler.obj
 0001:0001c700       ??$_Sort_unchecked@PAPAVSymbol@@P6A_NPAV1@0@Z@std@@YAXPAPAVSymbol@@0HP6A_NPAV1@1@Z@Z 0041d700 f i Hunk.obj
 0001:0001c960       ??$_Uninitialized_move@PAURelocation@@V?$allocator@URelocation@@@std@@@std@@YAPAURelocation@@QAU1@0PAU1@AAV?$allocator@URelocation@@@0@@Z 0041d960 f i Hunk.obj
 0001:0001ca20       ??0CompressionReportRecord@@QAE@PBDHHH@Z 0041da20 f i Hunk.obj
 0001:0001caa0       ??0Hunk@@QAE@ABV0@@Z       0041daa0 f   Hunk.obj
 0001:0001cd50       ??0Hunk@@QAE@PBD00@Z       0041dd50 f   Hunk.obj
 0001:0001ced0       ??0Hunk@@QAE@PBD0IHHH@Z    0041ded0 f   Hunk.obj
 0001:0001d010       ??1Hunk@@QAE@XZ            0041e010 f   Hunk.obj
 0001:0001d0c0       ??A?$map@V?$basic_string@DU?$char_traits@D@std@@V?$allocator@D@2@@std@@PAVMemoryFile@@U?$less@V?$basic_string@DU?$char_traits@D@std@@V?$allocator@D@2@@std@@@2@V?$allocator@U?$pair@$$CBV?$basic_string@DU?$char_traits@D@std@@V?$allocator@D@2@@std@@PAVMemoryFile@@@std@@@2@@std@@QAEAAPAVMemoryFile@@ABV?$basic_string@DU?$char_traits@D@std@@V?$allocator@D@2@@1@@Z 0041e0c0 f i main.obj
 0001:0001d0c0       ??A?$map@V?$basic_string@DU?$char_traits@D@std@@V?$allocator@D@2@@std@@PAVSymbol@@U?$less@V?$basic_string@DU?$char_traits@D@std@@V?$allocator@D@2@@std@@@2@V?$allocator@U?$pair@$$CBV?$basic_string@DU?$char_traits@D@std@@V?$allocator@D@2@@std@@PAVSymbol@@@std@@@2@@std@@QAEAAPAVSymbol@@ABV?$basic_string@DU?$char_traits@D@std@@V?$allocator@D@2@@1@@Z 0041e0c0 f i Hunk.obj
 0001:0001d180       ??E?$_Tree_unchecked_const_iterator@V?$_Tree_val@U?$_Tree_simple_types@U?$pair@$$CBV?$basic_string@DU?$char_traits@D@std@@V?$allocator@D@2@@std@@PAVModelList4k@@@std@@@std@@@std@@U_Iterator_base0@2@@std@@QAEAAV01@XZ 0041e180 f i Reuse.obj
 0001:0001d180       ??E?$_Tree_unchecked_const_iterator@V?$_Tree_val@U?$_Tree_simple_types@U?$pair@$$CBV?$basic_string@DU?$char_traits@D@std@@V?$allocator@D@2@@std@@PAVSymbol@@@std@@@std@@@std@@U_Iterator_base0@2@@std@@QAEAAV01@XZ 0041e180 f i Hunk.obj
 0001:0001d1e0       ?AddRelocation@Hunk@@QAEXURelocation@@@Z 0041e1e0 f   Hunk.obj
 0001:0001d240       ?AddSymbol@Hunk@@QAEXPAVSymbol@@@Z 0041e240 f   Hunk.obj
 0001:0001d610       ?AppendZeroes@Hunk@@QAEXH@Z 0041e610 f   Hunk.obj
 0001:0001d720       ?CalculateSize@CompressionReportRecord@@QAEXHH@Z 0041e720 f i Hunk.obj
 0001:0001d7b0       ?FindSymbol@Hunk@@QBEPAVSymbol@@PBD@Z 0041e7b0 f   Hunk.obj
 0001:0001d8b0       ?FindUndecoratedSymbol@Hunk@@QBEPAVSymbol@@PBD@Z 0041e8b0 f   Hunk.obj
 0001:0001d9c0       ?GenerateCompressionSummary@Hunk@@QAEPAUCompressionReportRecord@@AAVPartList@@PAH@Z 0041e9c0 f   Hunk.obj
 0001:0001e120       ?GetID@Hunk@@QAEABV?$basic_string@DU?$char_traits@D@std@@V?$allocator@D@2@@std@@XZ 0041f120 f   Hunk.obj
 0001:0001e6d0       ?GetNameToSymbolMap@Hunk@@QAEAAV?$map@V?$basic_string@DU?$char_traits@D@std@@V?$allocator@D@2@@std@@PAVSymbol@@U?$less@V?$basic_string@DU?$char_traits@D@std@@V?$allocator@D@2@@std@@@2@V?$allocator@U?$pair@$$CBV?$basic_string@DU?$char_traits@D@std@@V?$allocator@D@2@@std@@PAVSymbol@@@std@@@2@@std@@XZ 0041f6d0 f   Hunk.obj
 0001:0001e6e0       ?GetOffsetToRelocationMap@Hunk@@QAE?AV?$map@HPAVSymbol@@U?$less@H@std@@V?$allocator@U?$pair@$$CBHPAVSymbol@@@std@@@3@@std@@XZ 0041f6e0 f   Hunk.obj
 0001:0001e850       ?GetOffsetToSymbolMap@Hunk@@QAE?AV?$map@HPAVSymbol@@U?$less@H@std@@V?$allocator@U?$pair@$$CBHPAVSymbol@@@std@@@3@@std@@XZ 0041f850 f   Hunk.obj
 0001:0001ea90       ?Insert@Hunk@@QAEXHPBEH@Z  0041fa90 f   Hunk.obj
 0001:0001eb40       ?IsLikelyText@Hunk@@QAE_NXZ 0041fb40 f   Hunk.obj
 0001:0001eb80       ?IsLikelyTextInternal@Hunk@@QBE_NXZ 0041fb80 f   Hunk.obj
 0001:0001ec90       ?MarkHunkAsLibrary@Hunk@@QAEXXZ 0041fc90 f   Hunk.obj
 0001:0001ecc0       ?OverrideAlignment@Hunk@@QAEXH@Z 0041fcc0 f   Hunk.obj
 0001:0001eef0       ?Relocate@Hunk@@QAEXH@Z    0041fef0 f   Hunk.obj
 0001:0001f2a0       ?RoundFloats@Hunk@@QAEXH@Z 004202a0 f   Hunk.obj
 0001:0001f760       ?SetAlignmentBits@Hunk@@QAEXH@Z 00420760 f   Hunk.obj
 0001:0001f770       ?SetRawSize@Hunk@@QAEXH@Z  00420770 f   Hunk.obj
 0001:0001f800       ?Trim@Hunk@@QAEXXZ         00420800 f   Hunk.obj
 0001:0001f9a0       ?_Tidy@?$vector@URelocation@@V?$allocator@URelocation@@@std@@@std@@AAEXXZ 004209a0 f i Hunk.obj
 0001:0001fa40       ?resize@?$vector@EV?$allocator@E@std@@@std@@QAEXI@Z 00420a40 f i Hunk.obj
 0001:0001fb20       ?substr@?$basic_string@DU?$char_traits@D@std@@V?$allocator@D@2@@std@@QBE?AV12@II@Z 00420b20 f i Hunk.obj
 0001:0001fb70       ??$_Assign_counted_range@PAV?$basic_string@DU?$char_traits@D@std@@V?$allocator@D@2@@std@@@?$vector@V?$basic_string@DU?$char_traits@D@std@@V?$allocator@D@2@@std@@V?$allocator@V?$basic_string@DU?$char_traits@D@std@@V?$allocator@D@2@@std@@@2@@std@@AAEXPAV?$basic_string@DU?$char_traits@D@std@@V?$allocator@D@2@@1@I@Z 00420b70 f i ImportHandler.obj
 0001:0001fd40       ??$_Copy_memmove_n@PAIPAI@std@@YAPAIPAII0@Z 00420d40 f i ImportHandler.obj
 0001:0001fd60       ??$_Emplace_reallocate@V?$basic_string@DU?$char_traits@D@std@@V?$allocator@D@2@@std@@@?$vector@V?$basic_string@DU?$char_traits@D@std@@V?$allocator@D@2@@std@@V?$allocator@V?$basic_string@DU?$char_traits@D@std@@V?$allocator@D@2@@std@@@2@@std@@AAEPAV?$basic_string@DU?$char_traits@D@std@@V?$allocator@D@2@@1@QAV21@$$QAV21@@Z 00420d60 f i ImportHandler.obj
 0001:0001ff50       ??$_Fill_zero_memset@PAI@std@@YAXPAII@Z 00420f50 f i ImportHandler.obj
 0001:0001ff70       ??$_Insertion_sort_unchecked@PAV?$basic_string@DU?$char_traits@D@std@@V?$allocator@D@2@@std@@U?$less@X@2@@std@@YAPAV?$basic_string@DU?$char_traits@D@std@@V?$allocator@D@2@@0@QAV10@0U?$less@X@0@@Z 00420f70 f i ImportHandler.obj
 0001:000201d0       ??$_Is_all_bits_zero@I@std@@YA_NABI@Z 004211d0 f i ImportHandler.obj
 0001:000201f0       ??$_Med3_unchecked@PAV?$basic_string@DU?$char_traits@D@std@@V?$allocator@D@2@@std@@U?$less@X@2@@std@@YAXPAV?$basic_string@DU?$char_traits@D@std@@V?$allocator@D@2@@0@00U?$less@X@0@@Z 004211f0 f i ImportHandler.obj
 0001:00020320       ??$_Move_backward_unchecked@PAV?$basic_string@DU?$char_traits@D@std@@V?$allocator@D@2@@std@@PAV12@@std@@YAPAV?$basic_string@DU?$char_traits@D@std@@V?$allocator@D@2@@0@PAV10@00@Z 00421320 f i ImportHandler.obj
 0001:00020380       ??$_Move_unchecked@PAV?$basic_string@DU?$char_traits@D@std@@V?$allocator@D@2@@std@@PAV12@@std@@YAPAV?$basic_string@DU?$char_traits@D@std@@V?$allocator@D@2@@0@PAV10@00@Z 00421380 f i ImportHandler.obj
 0001:00020690       ??$_Partition_by_median_guess_unchecked@PAV?$basic_string@DU?$char_traits@D@std@@V?$allocator@D@2@@std@@U?$less@X@2@@std@@YA?AU?$pair@PAV?$basic_string@DU?$char_traits@D@std@@V?$allocator@D@2@@std@@PAV12@@0@PAV?$basic_string@DU?$char_traits@D@std@@V?$allocator@D@2@@0@0U?$less@X@0@@Z 00421690 f i ImportHandler.obj
 0001:00020b30       ??$_Pop_heap_hole_by_index@PAV?$basic_string@DU?$char_traits@D@std@@V?$allocator@D@2@@std@@V12@U?$less@X@2@@std@@YAXPAV?$basic_string@DU?$char_traits@D@std@@V?$allocator@D@2@@0@HH$$QAV10@U?$less@X@0@@Z 00421b30 f i ImportHandler.obj
 0001:00020d30       ??$_Resize@U_Value_init_tag@std@@@?$vector@DV?$allocator@D@std@@@std@@AAEXIABU_Value_init_tag@1@@Z 00421d30 f i ImportHandler.obj
 0001:00020e60       ??$_Sort_unchecked@PAV?$basic_string@DU?$char_traits@D@std@@V?$allocator@D@2@@std@@U?$less@X@2@@std@@YAXPAV?$basic_string@DU?$char_traits@D@std@@V?$allocator@D@2@@0@0HU?$less@X@0@@Z 00421e60 f i ImportHandler.obj
 0001:000210f0       ??$_Uninitialized_move@PAV?$basic_string@DU?$char_traits@D@std@@V?$allocator@D@2@@std@@V?$allocator@V?$basic_string@DU?$char_traits@D@std@@V?$allocator@D@2@@std@@@2@@std@@YAPAV?$basic_string@DU?$char_traits@D@std@@V?$allocator@D@2@@0@QAV10@0PAV10@AAV?$allocator@V?$basic_string@DU?$char_traits@D@std@@V?$allocator@D@2@@std@@@0@@Z 004220f0 f i ImportHandler.obj
 0001:000211c0       ??0?$basic_string@DU?$char_traits@D@std@@V?$allocator@D@2@@std@@QAE@XZ 004221c0 f i ImportHandler.obj
 0001:00021f00       ?AddImportHunks1K@ImportHandler@@SAXAAVPart@@_NAAH2@Z 00422f00 f   ImportHandler.obj
 0001:00022a50       ?AddImportHunks4K@ImportHandler@@SAXAAVPart@@AAPAVHunk@@AAV?$map@V?$basic_string@DU?$char_traits@D@std@@V?$allocator@D@2@@std@@V12@U?$less@V?$basic_string@DU?$char_traits@D@std@@V?$allocator@D@2@@std@@@2@V?$allocator@U?$pair@$$CBV?$basic_string@DU?$char_traits@D@std@@V?$allocator@D@2@@std@@V12@@std@@@2@@std@@ABV?$vector@V?$basic_string@DU?$char_traits@D@std@@V?$allocator@D@2@@std@@V?$allocator@V?$basic_string@DU?$char_traits@D@std@@V?$allocator@D@2@@std@@@2@@5@_NAA_N@Z 00423a50 f   ImportHandler.obj
 0001:00024450       ?ForEachExportInDLL@@YAXPBDV?$function@$$A6AXPBD@Z@std@@@Z 00425450 f   ImportHandler.obj
 0001:00024fe0       ?_Buy_raw@?$vector@IV?$allocator@I@std@@@std@@AAEXI@Z 00425fe0 f i ImportHandler.obj
 0001:00025050       ?_Buy_raw@?$vector@V?$basic_string@DU?$char_traits@D@std@@V?$allocator@D@2@@std@@V?$allocator@V?$basic_string@DU?$char_traits@D@std@@V?$allocator@D@2@@std@@@2@@std@@AAEXI@Z 00426050 f i ImportHandler.obj
 0001:000252b0       ?_Xlen@?$vector@_NV?$allocator@_N@std@@@std@@SAXXZ 004262b0 f i ImportHandler.obj
 0001:000252c0       ?deallocate@?$allocator@V?$basic_string@DU?$char_traits@D@std@@V?$allocator@D@2@@std@@@std@@QAEXQAV?$basic_string@DU?$char_traits@D@std@@V?$allocator@D@2@@2@I@Z 004262c0 f i ImportHandler.obj
 0001:00025310       ?Clicks@LTCGLoader@@UBE_NPBDH@Z 00426310 f   LTCGLoader.obj
 0001:00025340       ?Load@LTCGLoader@@UAE_NAAVPart@@PBDH1_N@Z 00426340 f   LTCGLoader.obj
 0001:00025360       ??$?HDU?$char_traits@D@std@@V?$allocator@D@1@@std@@YA?AV?$basic_string@DU?$char_traits@D@std@@V?$allocator@D@2@@0@QBD$$QAV10@@Z 00426360 f i main.obj
 0001:00025450       ??$_Copy_nodes@$0A@@?$_Tree@V?$_Tset_traits@VExport@@U?$less@VExport@@@std@@V?$allocator@VExport@@@3@$0A@@std@@@std@@IAEPAU?$_Tree_node@VExport@@PAX@1@PAU21@0@Z 00426450 f i main.obj
 0001:000254e0       ??$_Emplace@U?$pair@V?$basic_string@DU?$char_traits@D@std@@V?$allocator@D@2@@std@@V12@@std@@@?$_Tree@V?$_Tmap_traits@V?$basic_string@DU?$char_traits@D@std@@V?$allocator@D@2@@std@@V12@U?$less@V?$basic_string@DU?$char_traits@D@std@@V?$allocator@D@2@@std@@@2@V?$allocator@U?$pair@$$CBV?$basic_string@DU?$char_traits@D@std@@V?$allocator@D@2@@std@@V12@@std@@@2@$0A@@std@@@std@@IAE?AU?$pair@PAU?$_Tree_node@U?$pair@$$CBV?$basic_string@DU?$char_traits@D@std@@V?$allocator@D@2@@std@@V12@@std@@PAX@std@@_N@1@$$QAU?$pair@V?$basic_string@DU?$char_traits@D@std@@V?$allocator@D@2@@std@@V12@@1@@Z 004264e0 f i main.obj
 0001:000256a0       ??$_Find_first_of_pos_vectorized@DD@std@@YAIQBDI0I@Z 004266a0 f i main.obj
 0001:000256c0       ??$_Reallocate_grow_by@V<lambda_1>@?1??replace@?$basic_string@DU?$char_traits@D@std@@V?$allocator@D@2@@std@@QAEAAV34@IIQBDI@Z@IIPBDI@?$basic_string@DU?$char_traits@D@std@@V?$allocator@D@2@@std@@AAEAAV01@IV<lambda_1>@?1??replace@01@QAEAAV01@IIQBDI@Z@IIPBDI@Z 004266c0 f i main.obj
 0001:00025810       ??$make_pair@V?$basic_string@DU?$char_traits@D@std@@V?$allocator@D@2@@std@@V12@@std@@YA?AU?$pair@V?$basic_string@DU?$char_traits@D@std@@V?$allocator@D@2@@std@@V12@@0@$$QAV?$basic_string@DU?$char_traits@D@std@@V?$allocator@D@2@@0@0@Z 00426810 f i main.obj
 0001:00025890       ??0?$basic_string@DU?$char_traits@D@std@@V?$allocator@D@2@@std@@QAE@$$QAV01@@Z 00426890 f i main.obj
 0001:000258d0       ??0Export@@QAE@$$QAV0@@Z   004268d0 f i main.obj
 0001:00025950       ??1CmdParamFlags@@UAE@XZ   00426950 f i main.obj
 0001:000259a0       ??1CmdParamInt@@UAE@XZ     004269a0 f i main.obj
 0001:000259a0       ??1CmdParamSwitch@@UAE@XZ  004269a0 f i main.obj
 0001:000259d0       ??1CmdParamMultiAssign@@UAE@XZ 004269d0 f i main.obj
 0001:00025a90       ??1CmdParamString@@UAE@XZ  00426a90 f i main.obj
 0001:00025ac0       ??4?$basic_string@DU?$char_traits@D@std@@V?$allocator@D@2@@std@@QAEAAV01@QBD@Z 00426ac0 f i main.obj
 0001:00025bc0       ??Y?$basic_string@DU?$char_traits@D@std@@V?$allocator@D@2@@std@@QAEAAV01@ABV01@@Z 00426bc0 f i main.obj
 0001:00025be0       ??_ECallTransform@@UAEPAXI@Z 00426be0 f i main.obj
 0001:00025be0       ??_GCallTransform@@UAEPAXI@Z 00426be0 f i main.obj
 0001:00025c10       ??_ECmdParam@@UAEPAXI@Z    00426c10 f i main.obj
 0001:00025c10       ??_GCmdParam@@UAEPAXI@Z    00426c10 f i main.obj
 0001:00025c50       ??_EIdentityTransform@@UAEPAXI@Z 00426c50 f i main.obj
 0001:00025c50       ??_ETransform@@UAEPAXI@Z   00426c50 f i main.obj
 0001:00025c50       ??_GIdentityTransform@@UAEPAXI@Z 00426c50 f i main.obj
 0001:00025c50       ??_GTransform@@UAEPAXI@Z   00426c50 f i main.obj
 0001:00025c80       ?AddFallbackDll@Crinkler@@QAEXPBD0@Z 00426c80 f i main.obj
 0001:00025e90       ?AddReplaceDll@Crinkler@@QAEXPBD0@Z 00426e90 f i main.obj
 0001:000260a0       ?DoTransform@IdentityTransform@@UAE_NPAVHunk@@H_N@Z 004270a0 f i main.obj
 0001:00026a90       ?EnterCriticalRegion@ContextBase@details@Concurrency@@QAEHXZ 00427a90 f i libconcrt:ContextBase.obj
 0001:00026a90       ?EnterHyperCriticalRegion@ContextBase@details@Concurrency@@QAEHXZ 00427a90 f i libconcrt:ContextBase.obj
 0001:00026a90       ?ExitCriticalRegion@ContextBase@details@Concurrency@@QAEHXZ 00427a90 f i libconcrt:ContextBase.obj
 0001:00026a90       ?ExitHyperCriticalRegion@ContextBase@details@Concurrency@@QAEHXZ 00427a90 f i libconcrt:ContextBase.obj
 0001:00026a90       ?GetContextKind@ExternalContextBase@details@Concurrency@@EBE?AW4ContextKind@ContextBase@23@XZ 00427a90 f i libconcrt:ExternalContextBase.obj
 0001:00026a90       ?GetDefaultDestination@VirtualProcessor@details@Concurrency@@UAEPAUIExecutionContext@3@XZ 00427a90 f i libconcrt:VirtualProcessor.obj
 0001:00026a90       ?GetDetransformer@IdentityTransform@@UAEPAVHunk@@XZ 00427a90 f i main.obj
 0001:00026a90       ?PreRunnableSearch@VirtualProcessor@details@Concurrency@@UAEPAVInternalContextBase@23@XZ 00427a90 f i libconcrt:VirtualProcessor.obj
 0001:00026a90       ___scrt_exe_initialize_mta 00427a90 f i LIBCMT:utility_desktop.obj
 0001:00026a90       ___scrt_initialize_winrt   00427a90 f i LIBCMT:utility_desktop.obj
 0001:00026a90       ___scrt_stub_for_initialize_mta 00427a90 f i LIBCMT:utility_desktop.obj
 0001:00026a90       __get_startup_commit_mode  00427a90 f i LIBCMT:commit_mode.obj
 0001:00026a90       __get_startup_new_mode     00427a90 f i LIBCMT:new_mode.obj
 0001:00026a90       __get_startup_thread_locale_mode 00427a90 f i LIBCMT:thread_locale.obj
 0001:00026a90       __matherr                  00427a90 f i LIBCMT:matherr.obj
 0001:00026b50       ?GetValue@CmdParamString@@QBEPBDXZ 00427b50 f i main.obj
 0001:00026b70       ?GetValueIfPresent@CmdParamFlags@@QBEHH@Z 00427b70 f i main.obj
 0001:00026b90       ?LoadDLL@@YAPBDPBD@Z       00427b90 f   main.obj
 0001:00027450       ?find_first_of@?$basic_string@DU?$char_traits@D@std@@V?$allocator@D@2@@std@@QBEIABV12@I@Z 00428450 f i main.obj
 0001:00027540       ?push_back@?$vector@V?$basic_string@DU?$char_traits@D@std@@V?$allocator@D@2@@std@@V?$allocator@V?$basic_string@DU?$char_traits@D@std@@V?$allocator@D@2@@std@@@2@@std@@QAEX$$QAV?$basic_string@DU?$char_traits@D@std@@V?$allocator@D@2@@2@@Z 00428540 f i main.obj
 0001:000275a0       ?replace@?$basic_string@DU?$char_traits@D@std@@V?$allocator@D@2@@std@@QAEAAV12@IIQBDI@Z 004285a0 f i main.obj
 0001:00027710       _main                      00428710 f   main.obj
 0001:00029c40       ??$_Emplace_reallocate@ABQAVPart@@@?$vector@PAVPart@@V?$allocator@PAVPart@@@std@@@std@@AAEPAPAVPart@@QAPAV2@ABQAV2@@Z 0042ac40 f i PartList.obj
 0001:00029d40       ??$_Find_vectorized@PAVHunk@@PAV1@@std@@YAPAPAVHunk@@QAPAV1@0QAV1@@Z 0042ad40 f i PartList.obj
 0001:00029d60       ??$_Uninitialized_copy_unchecked@PAPAPAVHunk@@PAPAPAV1@@std@@YAPAPAPAVHunk@@PAPAPAV1@QAPAPAV1@0@Z 0042ad60 f i PartList.obj
 0001:00029d70       ??$_Uninitialized_value_construct_n_unchecked1@PAPAPAVHunk@@I@std@@YAPAPAPAVHunk@@PAPAPAV1@I@Z 0042ad70 f i PartList.obj
 0001:00029d90       ??$uninitialized_copy@PAPAPAVHunk@@PAPAPAV1@@std@@YAPAPAPAVHunk@@QAPAPAV1@0PAPAPAV1@@Z 0042ad90 f i PartList.obj
 0001:00029da0       ??0PartList@@QAE@XZ        0042ada0 f   PartList.obj
 0001:00029dc0       ??0SymbolMap@@QAE@AAVPart@@@Z 0042adc0 f   PartList.obj
 0001:00029e30       ??1?$deque@PAVHunk@@V?$allocator@PAVHunk@@@std@@@std@@QAE@XZ 0042ae30 f i PartList.obj
 0001:00029ee0       ??1Part@@QAE@XZ            0042aee0 f   PartList.obj
 0001:00029f00       ??1PartList@@QAE@XZ        0042af00 f   PartList.obj
 0001:00029f40       ??APart@@QAEAAPAVHunk@@I@Z 0042af40 f   PartList.obj
 0001:00029f50       ??APartList@@QAEAAVPart@@I@Z 0042af50 f   PartList.obj
 0001:0002a600       ??R?$less@V?$basic_string@DU?$char_traits@D@std@@V?$allocator@D@2@@std@@@std@@QBE_NABV?$basic_string@DU?$char_traits@D@std@@V?$allocator@D@2@@1@0@Z 0042b600 f i PartList.obj
 0001:0002a6b0       ?AddHunkBack@Part@@QAEXPAVHunk@@@Z 0042b6b0 f   PartList.obj
 0001:0002a6e0       ?AddHunkFront@Part@@QAEXPAVHunk@@@Z 0042b6e0 f   PartList.obj
 0001:0002a700       ?CalcTotalPartAndModelOverhead@PartList@@QAEHXZ 0042b700 f   PartList.obj
 0001:0002a750       ?Clear@PartList@@QAEXXZ    0042b750 f   PartList.obj
 0001:0002a8f0       ?DeleteUnreferencedHunks@Part@@QAEXABVSymbolMap@@ABV?$vector@PAVHunk@@V?$allocator@PAVHunk@@@std@@@std@@@Z 0042b8f0 f   PartList.obj
 0001:0002ad10       ?FindBestPartIndex@PartList@@QBEHPAVHunk@@@Z 0042bd10 f   PartList.obj
 0001:0002ad70       ?FindSymbol@Part@@QAEPAVSymbol@@PBD@Z 0042bd70 f   PartList.obj
 0001:0002add0       ?FindSymbol@PartList@@QAEPAVSymbol@@PBD@Z 0042bdd0 f   PartList.obj
 0001:0002ae30       ?FindUndecoratedSymbol@Part@@QAEPAVSymbol@@PBDPAH@Z 0042be30 f   PartList.obj
 0001:0002aea0       ?ForEachHunk@Part@@QAEXV?$function@$$A6AXAAVPart@@PAVHunk@@1@Z@std@@@Z 0042bea0 f   PartList.obj
 0001:0002af20       ?ForEachHunk@Part@@QAEXV?$function@$$A6AXPAVHunk@@@Z@std@@@Z 0042bf20 f   PartList.obj
 0001:0002af80       ?ForEachHunk@PartList@@QAEXV?$function@$$A6AXAAVPart@@PAVHunk@@1@Z@std@@@Z 0042bf80 f   PartList.obj
 0001:0002afe0       ?ForEachHunkWithBreak@Part@@QAE_NV?$function@$$A6A_NAAVPart@@PAVHunk@@1@Z@std@@@Z 0042bfe0 f   PartList.obj
 0001:0002b070       ?ForEachHunkWithBreak@Part@@QAE_NV?$function@$$A6A_NPAVHunk@@@Z@std@@@Z 0042c070 f   PartList.obj
 0001:0002b0e0       ?ForEachHunkWithBreak@PartList@@QAE_NV?$function@$$A6A_NAAVPart@@PAVHunk@@1@Z@std@@@Z 0042c0e0 f   PartList.obj
 0001:0002b150       ?ForEachHunkWithBreak@PartList@@QAE_NV?$function@$$A6A_NPAVHunk@@@Z@std@@@Z 0042c150 f   PartList.obj
 0001:0002b1c0       ?ForEachPart@PartList@@QAEXV?$function@$$A6AXAAVPart@@H@Z@std@@@Z 0042c1c0 f   PartList.obj
 0001:0002b220       ?GetOrAddPart@PartList@@QAEAAVPart@@PBD_N@Z 0042c220 f   PartList.obj
 0001:0002b3a0       ?GetPartIndex@PartList@@QBEHPBD@Z 0042c3a0 f   PartList.obj
 0001:0002b470       ?InsertHunk@Part@@QAEXHPAVHunk@@@Z 0042c470 f   PartList.obj
 0001:0002b490       ?Link@PartList@@QAEPAVHunk@@PBDH@Z 0042c490 f   PartList.obj
 0001:0002b6a0       ?NeedsContinuationJump@PartList@@QBE_NPAVHunk@@0@Z 0042c6a0 f   PartList.obj
 0001:0002b6d0       ?RemoveHunk@Part@@QAEXPAVHunk@@@Z 0042c6d0 f   PartList.obj
 0001:0002b710       ?RemoveMatchingHunks@Part@@QAEXV?$function@$$A6A_NPAVHunk@@@Z@std@@@Z 0042c710 f   PartList.obj
 0001:0002bac0       ?_Growmap@?$deque@PAVHunk@@V?$allocator@PAVHunk@@@std@@@std@@AAEXI@Z 0042cac0 f i PartList.obj
 0001:0002bc80       ?_Xlen@?$deque@PAVHunk@@V?$allocator@PAVHunk@@@std@@@std@@CAXXZ 0042cc80 f i PartList.obj
 0001:0002bc90       ?insert@?$vector@PAVHunk@@V?$allocator@PAVHunk@@@std@@@std@@QAE?AV?$_Vector_iterator@V?$_Vector_val@U?$_Simple_types@PAVHunk@@@std@@@std@@@2@V?$_Vector_const_iterator@V?$_Vector_val@U?$_Simple_types@PAVHunk@@@std@@@std@@@2@ABQAVHunk@@@Z 0042cc90 f i PartList.obj
 0001:0002bd00       ??$_Emplace_reallocate@AAV?$basic_string@DU?$char_traits@D@std@@V?$allocator@D@2@@std@@AA_N@?$vector@VReusePart@@V?$allocator@VReusePart@@@std@@@std@@AAEPAVReusePart@@QAV2@AAV?$basic_string@DU?$char_traits@D@std@@V?$allocator@D@2@@1@AA_N@Z 0042cd00 f i Reuse.obj
 0001:0002be70       ??$_Emplace_reallocate@AAVPart@@@?$vector@VReusePart@@V?$allocator@VReusePart@@@std@@@std@@AAEPAVReusePart@@QAV2@AAVPart@@@Z 0042ce70 f i Reuse.obj
 0001:0002bfd0       ??$_Emplace_reallocate@ABV?$basic_string@DU?$char_traits@D@std@@V?$allocator@D@2@@std@@@?$vector@V?$basic_string@DU?$char_traits@D@std@@V?$allocator@D@2@@std@@V?$allocator@V?$basic_string@DU?$char_traits@D@std@@V?$allocator@D@2@@std@@@2@@std@@AAEPAV?$basic_string@DU?$char_traits@D@std@@V?$allocator@D@2@@1@QAV21@ABV21@@Z 0042cfd0 f i Reuse.obj
 0001:0002c190       ??$_Emplace_reallocate@V?$vector@PAVHunk@@V?$allocator@PAVHunk@@@std@@@std@@@?$vector@V?$vector@PAVHunk@@V?$allocator@PAVHunk@@@std@@@std@@V?$allocator@V?$vector@PAVHunk@@V?$allocator@PAVHunk@@@std@@@std@@@2@@std@@AAEPAV?$vector@PAVHunk@@V?$allocator@PAVHunk@@@std@@@1@QAV21@$$QAV21@@Z 0042d190 f i Reuse.obj
 0001:0002c360       ??$_Eqrange@V?$basic_string@DU?$char_traits@D@std@@V?$allocator@D@2@@std@@@?$_Tree@V?$_Tmap_traits@V?$basic_string@DU?$char_traits@D@std@@V?$allocator@D@2@@std@@PAVModelList4k@@U?$less@V?$basic_string@DU?$char_traits@D@std@@V?$allocator@D@2@@std@@@2@V?$allocator@U?$pair@$$CBV?$basic_string@DU?$char_traits@D@std@@V?$allocator@D@2@@std@@PAVModelList4k@@@std@@@2@$0A@@std@@@std@@IBE?AU?$pair@PAU?$_Tree_node@U?$pair@$$CBV?$basic_string@DU?$char_traits@D@std@@V?$allocator@D@2@@std@@PAVModelList4k@@@std@@PAX@std@@PAU12@@1@ABV?$basic_string@DU?$char_traits@D@std@@V?$allocator@D@2@@1@@Z 0042d360 f i Reuse.obj
 0001:0002c5f0       ??$_Find_last@V?$basic_string@DU?$char_traits@D@std@@V?$allocator@D@2@@std@@@?$_Hash@V?$_Umap_traits@V?$basic_string@DU?$char_traits@D@std@@V?$allocator@D@2@@std@@PAVHunk@@V?$_Uhash_compare@V?$basic_string@DU?$char_traits@D@std@@V?$allocator@D@2@@std@@U?$hash@V?$basic_string@DU?$char_traits@D@std@@V?$allocator@D@2@@std@@@2@U?$equal_to@V?$basic_string@DU?$char_traits@D@std@@V?$allocator@D@2@@std@@@2@@2@V?$allocator@U?$pair@$$CBV?$basic_string@DU?$char_traits@D@std@@V?$allocator@D@2@@std@@PAVHunk@@@std@@@2@$0A@@std@@@std@@IBE?AU?$_Hash_find_last_result@PAU?$_List_node@U?$pair@$$CBV?$basic_string@DU?$char_traits@D@std@@V?$allocator@D@2@@std@@PAVHunk@@@std@@PAX@std@@@1@ABV?$basic_string@DU?$char_traits@D@std@@V?$allocator@D@2@@1@I@Z 0042d5f0 f i Reuse.obj
 0001:0002c680       ??$_Find_lower_bound@V?$basic_string@DU?$char_traits@D@std@@V?$allocator@D@2@@std@@@?$_Tree@V?$_Tmap_traits@V?$basic_string@DU?$char_traits@D@std@@V?$allocator@D@2@@std@@HU?$less@V?$basic_string@DU?$char_traits@D@std@@V?$allocator@D@2@@std@@@2@V?$allocator@U?$pair@$$CBV?$basic_string@DU?$char_traits@D@std@@V?$allocator@D@2@@std@@H@std@@@2@$0A@@std@@@std@@IBE?AU?$_Tree_find_result@PAU?$_Tree_node@U?$pair@$$CBV?$basic_string@DU?$char_traits@D@std@@V?$allocator@D@2@@std@@H@std@@PAX@std@@@1@ABV?$basic_string@DU?$char_traits@D@std@@V?$allocator@D@2@@1@@Z 0042d680 f i CmdParamFlags.obj
 0001:0002c680       ??$_Find_lower_bound@V?$basic_string@DU?$char_traits@D@std@@V?$allocator@D@2@@std@@@?$_Tree@V?$_Tmap_traits@V?$basic_string@DU?$char_traits@D@std@@V?$allocator@D@2@@std@@PAVModelList4k@@U?$less@V?$basic_string@DU?$char_traits@D@std@@V?$allocator@D@2@@std@@@2@V?$allocator@U?$pair@$$CBV?$basic_string@DU?$char_traits@D@std@@V?$allocator@D@2@@std@@PAVModelList4k@@@std@@@2@$0A@@std@@@std@@IBE?AU?$_Tree_find_result@PAU?$_Tree_node@U?$pair@$$CBV?$basic_string@DU?$char_traits@D@std@@V?$allocator@D@2@@std@@PAVModelList4k@@@std@@PAX@std@@@1@ABV?$basic_string@DU?$char_traits@D@std@@V?$allocator@D@2@@1@@Z 0042d680 f i Reuse.obj
 0001:0002c780       ??$_Hash_array_representation@D@std@@YAIQBDI@Z 0042d780 f i Reuse.obj
 0001:0002c7b0       ??$_Try_emplace@ABV?$basic_string@DU?$char_traits@D@std@@V?$allocator@D@2@@std@@$$V@?$_Hash@V?$_Umap_traits@V?$basic_string@DU?$char_traits@D@std@@V?$allocator@D@2@@std@@PAVHunk@@V?$_Uhash_compare@V?$basic_string@DU?$char_traits@D@std@@V?$allocator@D@2@@std@@U?$hash@V?$basic_string@DU?$char_traits@D@std@@V?$allocator@D@2@@std@@@2@U?$equal_to@V?$basic_string@DU?$char_traits@D@std@@V?$allocator@D@2@@std@@@2@@2@V?$allocator@U?$pair@$$CBV?$basic_string@DU?$char_traits@D@std@@V?$allocator@D@2@@std@@PAVHunk@@@std@@@2@$0A@@std@@@std@@IAE?AU?$pair@PAU?$_List_node@U?$pair@$$CBV?$basic_string@DU?$char_traits@D@std@@V?$allocator@D@2@@std@@PAVHunk@@@std@@PAX@std@@_N@1@ABV?$basic_string@DU?$char_traits@D@std@@V?$allocator@D@2@@1@@Z 0042d7b0 f i Reuse.obj
 0001:0002c950       ??$_Uninitialized_move@PAV?$vector@PAVHunk@@V?$allocator@PAVHunk@@@std@@@std@@V?$allocator@V?$vector@PAVHunk@@V?$allocator@PAVHunk@@@std@@@std@@@2@@std@@YAPAV?$vector@PAVHunk@@V?$allocator@PAVHunk@@@std@@@0@QAV10@0PAV10@AAV?$allocator@V?$vector@PAVHunk@@V?$allocator@PAVHunk@@@std@@@std@@@0@@Z 0042d950 f i Reuse.obj
 0001:0002c9b0       ??$_Uninitialized_move@PAVReusePart@@V?$allocator@VReusePart@@@std@@@std@@YAPAVReusePart@@QAV1@0PAV1@AAV?$allocator@VReusePart@@@0@@Z 0042d9b0 f i Reuse.obj
 0001:0002ca50       ??$erase@V?$_List_iterator@V?$_List_val@U?$_List_simple_types@U?$pair@$$CBV?$basic_string@DU?$char_traits@D@std@@V?$allocator@D@2@@std@@PAVHunk@@@std@@@std@@@std@@@std@@$0A@@?$_Hash@V?$_Umap_traits@V?$basic_string@DU?$char_traits@D@std@@V?$allocator@D@2@@std@@PAVHunk@@V?$_Uhash_compare@V?$basic_string@DU?$char_traits@D@std@@V?$allocator@D@2@@std@@U?$hash@V?$basic_string@DU?$char_traits@D@std@@V?$allocator@D@2@@std@@@2@U?$equal_to@V?$basic_string@DU?$char_traits@D@std@@V?$allocator@D@2@@std@@@2@@2@V?$allocator@U?$pair@$$CBV?$basic_string@DU?$char_traits@D@std@@V?$allocator@D@2@@std@@PAVHunk@@@std@@@2@$0A@@std@@@std@@QAE?AV?$_List_iterator@V?$_List_val@U?$_List_simple_types@U?$pair@$$CBV?$basic_string@DU?$char_traits@D@std@@V?$allocator@D@2@@std@@PAVHunk@@@std@@@std@@@std@@@1@V21@@Z 0042da50 f i Reuse.obj
 0001:0002cae0       ??$fill@PAV?$_List_unchecked_iterator@V?$_List_val@U?$_List_simple_types@U?$pair@$$CBV?$basic_string@DU?$char_traits@D@std@@V?$allocator@D@2@@std@@PAVHunk@@@std@@@std@@@std@@@std@@V12@@std@@YAXQAV?$_List_unchecked_iterator@V?$_List_val@U?$_List_simple_types@U?$pair@$$CBV?$basic_string@DU?$char_traits@D@std@@V?$allocator@D@2@@std@@PAVHunk@@@std@@@std@@@std@@@0@0ABV10@@Z 0042dae0 f i Reuse.obj
 0001:0002cb40       ??$uninitialized_fill@PAV?$_List_unchecked_iterator@V?$_List_val@U?$_List_simple_types@U?$pair@$$CBV?$basic_string@DU?$char_traits@D@std@@V?$allocator@D@2@@std@@PAVHunk@@@std@@@std@@@std@@@std@@V12@@std@@YAXQAV?$_List_unchecked_iterator@V?$_List_val@U?$_List_simple_types@U?$pair@$$CBV?$basic_string@DU?$char_traits@D@std@@V?$allocator@D@2@@std@@PAVHunk@@@std@@@std@@@std@@@0@0ABV10@@Z 0042db40 f i Reuse.obj
 0001:0002cb60       ??0?$map@V?$basic_string@DU?$char_traits@D@std@@V?$allocator@D@2@@std@@PAVModelList4k@@U?$less@V?$basic_string@DU?$char_traits@D@std@@V?$allocator@D@2@@std@@@2@V?$allocator@U?$pair@$$CBV?$basic_string@DU?$char_traits@D@std@@V?$allocator@D@2@@std@@PAVModelList4k@@@std@@@2@@std@@QAE@XZ 0042db60 f i Reuse.obj
 0001:0002cb90       ??0Reuse@@QAE@AAVPartList@@H@Z 0042db90 f   Reuse.obj
 0001:0002cbf0       ??0Reuse@@QAE@XZ           0042dbf0 f   Reuse.obj
 0001:0002cc10       ??0ReusePart@@QAE@AAVPart@@@Z 0042dc10 f   Reuse.obj
 0001:0002cce0       ??0ReusePart@@QAE@V?$basic_string@DU?$char_traits@D@std@@V?$allocator@D@2@@std@@_N@Z 0042dce0 f   Reuse.obj
 0001:0002cd20       ??1?$_Hash_vec@V?$allocator@V?$_List_unchecked_iterator@V?$_List_val@U?$_List_simple_types@U?$pair@$$CBV?$basic_string@DU?$char_traits@D@std@@V?$allocator@D@2@@std@@PAVHunk@@@std@@@std@@@std@@@std@@@std@@@std@@QAE@XZ 0042dd20 f i Reuse.obj
 0001:0002cd80       ??1?$list@U?$pair@$$CBV?$basic_string@DU?$char_traits@D@std@@V?$allocator@D@2@@std@@PAVHunk@@@std@@V?$allocator@U?$pair@$$CBV?$basic_string@DU?$char_traits@D@std@@V?$allocator@D@2@@std@@PAVHunk@@@std@@@2@@std@@QAE@XZ 0042dd80 f i Reuse.obj
 0001:0002cdd0       ??1_Reallocation_guard@?$vector@VReusePart@@V?$allocator@VReusePart@@@std@@@std@@QAE@XZ 0042ddd0 f i Reuse.obj
 0001:0002ce40       ?AskForReuseMode@@YA?AW4ReuseType@@W41@@Z 0042de40 f   Reuse.obj
 0001:0002d050       ?LoadReuseFile@@YAPAVReuse@@PBD@Z 0042e050 f   Reuse.obj
 0001:0002dc70       ?PartsFromHunkList@Reuse@@QAE_NAAVPartList@@AAVPart@@@Z 0042ec70 f   Reuse.obj
 0001:0002e270       ?Save@Reuse@@QBEXPBD@Z     0042f270 f   Reuse.obj
 0001:0002e4b0       ?_Assign_grow@?$_Hash_vec@V?$allocator@V?$_List_unchecked_iterator@V?$_List_val@U?$_List_simple_types@U?$pair@$$CBV?$basic_string@DU?$char_traits@D@std@@V?$allocator@D@2@@std@@PAVHunk@@@std@@@std@@@std@@@std@@@std@@@std@@QAEXIV?$_List_unchecked_iterator@V?$_List_val@U?$_List_simple_types@U?$pair@$$CBV?$basic_string@DU?$char_traits@D@std@@V?$allocator@D@2@@std@@PAVHunk@@@std@@@std@@@std@@@2@@Z 0042f4b0 f i Reuse.obj
 0001:0002e550       ?_Change_array@?$vector@VReusePart@@V?$allocator@VReusePart@@@std@@@std@@AAEXQAVReusePart@@II@Z 0042f550 f i Reuse.obj
 0001:0002e7f0       ?_Extract@?$_Tree_val@U?$_Tree_simple_types@U?$pair@$$CBV?$basic_string@DU?$char_traits@D@std@@V?$allocator@D@2@@std@@PAVModelList4k@@@std@@@std@@@std@@QAEPAU?$_Tree_node@U?$pair@$$CBV?$basic_string@DU?$char_traits@D@std@@V?$allocator@D@2@@std@@PAVModelList4k@@@std@@PAX@2@V?$_Tree_unchecked_const_iterator@V?$_Tree_val@U?$_Tree_simple_types@U?$pair@$$CBV?$basic_string@DU?$char_traits@D@std@@V?$allocator@D@2@@std@@PAVModelList4k@@@std@@@std@@@std@@U_Iterator_base0@2@@2@@Z 0042f7f0 f i Reuse.obj
 0001:0002eb00       ?_Forced_rehash@?$_Hash@V?$_Umap_traits@V?$basic_string@DU?$char_traits@D@std@@V?$allocator@D@2@@std@@PAVHunk@@V?$_Uhash_compare@V?$basic_string@DU?$char_traits@D@std@@V?$allocator@D@2@@std@@U?$hash@V?$basic_string@DU?$char_traits@D@std@@V?$allocator@D@2@@std@@@2@U?$equal_to@V?$basic_string@DU?$char_traits@D@std@@V?$allocator@D@2@@std@@@2@@2@V?$allocator@U?$pair@$$CBV?$basic_string@DU?$char_traits@D@std@@V?$allocator@D@2@@std@@PAVHunk@@@std@@@2@$0A@@std@@@std@@IAEXI@Z 0042fb00 f i Reuse.obj
 0001:0002ece0       ?_Lrotate@?$_Tree_val@U?$_Tree_simple_types@U?$pair@$$CBV?$basic_string@DU?$char_traits@D@std@@V?$allocator@D@2@@std@@PAVModelList4k@@@std@@@std@@@std@@QAEXPAU?$_Tree_node@U?$pair@$$CBV?$basic_string@DU?$char_traits@D@std@@V?$allocator@D@2@@std@@PAVModelList4k@@@std@@PAX@2@@Z 0042fce0 f i Reuse.obj
 0001:0002ed30       ?_Min@?$_Tree_val@U?$_Tree_simple_types@U?$pair@$$CBV?$basic_string@DU?$char_traits@D@std@@V?$allocator@D@2@@std@@PAVModelList4k@@@std@@@std@@@std@@SAPAU?$_Tree_node@U?$pair@$$CBV?$basic_string@DU?$char_traits@D@std@@V?$allocator@D@2@@std@@PAVModelList4k@@@std@@PAX@2@PAU32@@Z 0042fd30 f i Reuse.obj
 0001:0002ed50       ?_Rrotate@?$_Tree_val@U?$_Tree_simple_types@U?$pair@$$CBV?$basic_string@DU?$char_traits@D@std@@V?$allocator@D@2@@std@@PAVModelList4k@@@std@@@std@@@std@@QAEXPAU?$_Tree_node@U?$pair@$$CBV?$basic_string@DU?$char_traits@D@std@@V?$allocator@D@2@@std@@PAVModelList4k@@@std@@PAX@2@@Z 0042fd50 f i Reuse.obj
 0001:0002ee00       _fprintf                   0042fe00 f i Reuse.obj
 0001:0002ee30       _sscanf                    0042fe30 f i Reuse.obj
 0001:0002ee60       ??0Symbol@@QAE@PBDHIPAVHunk@@0@Z 0042fe60 f   Symbol.obj
 0001:0002f040       ?GetUndecoratedName@Symbol@@QBE?AV?$basic_string@DU?$char_traits@D@std@@V?$allocator@D@2@@std@@XZ 00430040 f   Symbol.obj
 0001:0002f1c0       ?Error@Log@@SAXPBD0ZZ      004301c0 f   Log.obj
 0001:0002f220       ?NonfatalError@Log@@SAXPBD0ZZ 00430220 f   Log.obj
 0001:0002f280       ?Warning@Log@@SAXPBD0ZZ    00430280 f   Log.obj
 0001:0002f2e0       _vsprintf_s                004302e0 f i Log.obj
 0001:0002f310       ??0MemoryFile@@QAE@PBD_N@Z 00430310 f   MemoryFile.obj
 0001:0002f3c0       ??1MemoryFile@@QAE@XZ      004303c0 f   MemoryFile.obj
 0001:0002f3d0       ?Write@MemoryFile@@QBE_NPBD@Z 004303d0 f   MemoryFile.obj
 0001:0002f420       ?EnableMiniDumps@@YAXXZ    00430420 f   MiniDump.obj
 0001:0002f440       ?ExitWithDump@@YGJPAU_EXCEPTION_POINTERS@@@Z 00430440 f   MiniDump.obj
 0001:0002f590       ?Align@@YAHHH@Z            00430590 f   Misc.obj
 0001:0002f5b0       ?ReadBigEndian@@YAHPBE@Z   004305b0 f   Misc.obj
 0001:0002f5e0       ?RoundInt64@@YA_K_KH@Z     004305e0 f   Misc.obj
 0001:0002f660       ?StripCrinklerSymbolPrefix@@YA?AV?$basic_string@DU?$char_traits@D@std@@V?$allocator@D@2@@std@@PBD@Z 00430660 f   NameMangling.obj
 0001:0002f700       ?StripSymbolPrefix@@YA?AV?$basic_string@DU?$char_traits@D@std@@V?$allocator@D@2@@std@@PBD@Z 00430700 f   NameMangling.obj
 0001:0002f790       ?UndecorateSymbolName@@YA?AV?$basic_string@DU?$char_traits@D@std@@V?$allocator@D@2@@std@@PBD@Z 00430790 f   NameMangling.obj
 0001:0002f880       ??$_Emplace_reallocate@PBDH@?$vector@V?$basic_string@DU?$char_traits@D@std@@V?$allocator@D@2@@std@@V?$allocator@V?$basic_string@DU?$char_traits@D@std@@V?$allocator@D@2@@std@@@2@@std@@AAEPAV?$basic_string@DU?$char_traits@D@std@@V?$allocator@D@2@@1@QAV21@$$QAPBD$$QAH@Z 00430880 f i StringMisc.obj
 0001:0002fa60       ?Base64Encode@@YA?AV?$basic_string@DU?$char_traits@D@std@@V?$allocator@D@2@@std@@PBDH@Z 00430a60 f   StringMisc.obj
 0001:00030090       ?EndsWith@@YA_NPBD0@Z      00431090 f   StringMisc.obj
 0001:00030120       ?IntoLines@@YA?AV?$vector@V?$basic_string@DU?$char_traits@D@std@@V?$allocator@D@2@@std@@V?$allocator@V?$basic_string@DU?$char_traits@D@std@@V?$allocator@D@2@@std@@@2@@std@@PBDH@Z 00431120 f   StringMisc.obj
 0001:000301d0       ?StartsWith@@YA_NPBD0@Z    004311d0 f   StringMisc.obj
 0001:00030200       ?StripPath@@YA?AV?$basic_string@DU?$char_traits@D@std@@V?$allocator@D@2@@std@@ABV12@@Z 00431200 f   StringMisc.obj
 0001:000302a0       ?ToLower@@YA?AV?$basic_string@DU?$char_traits@D@std@@V?$allocator@D@2@@std@@ABV12@@Z 004312a0 f   StringMisc.obj
 0001:000302f0       ?ToUpper@@YA?AV?$basic_string@DU?$char_traits@D@std@@V?$allocator@D@2@@std@@ABV12@@Z 004312f0 f   StringMisc.obj
 0001:00030340       _sprintf_s                 00431340 f i StringMisc.obj
 0001:00030370       ??0CmdLineInterface@@QAE@PBDH@Z 00431370 f   CmdLineInterface.obj
 0001:000303d0       ??1CmdLineInterface@@QAE@XZ 004313d0 f   CmdLineInterface.obj
 0001:000303f0       ?AddParams@CmdLineInterface@@QAAXPAVCmdParam@@ZZ 004313f0 f   CmdLineInterface.obj
 0001:00030430       ?AddTokens@CmdLineInterface@@AAEXPBD@Z 00431430 f   CmdLineInterface.obj
 0001:000305f0       ?Parse@CmdLineInterface@@QAE_NXZ 004315f0 f   CmdLineInterface.obj
 0001:00030e10       ?PrintHeader@CmdLineInterface@@QAEXXZ 00431e10 f   CmdLineInterface.obj
 0001:00030e30       ?PrintSyntax@CmdLineInterface@@QAEXXZ 00431e30 f   CmdLineInterface.obj
 0001:00030ed0       ?RemoveToken@CmdLineInterface@@QAE_NPBD@Z 00431ed0 f   CmdLineInterface.obj
 0001:00030fd0       ?SetCmdParameters@CmdLineInterface@@QAE_NHQAPAD@Z 00431fd0 f   CmdLineInterface.obj
 0001:000310f0       ??0CmdParam@@QAE@PBD00H@Z  004320f0 f   CmdParam.obj
 0001:00031180       ?ToString@CmdParam@@UBE?AV?$basic_string@DU?$char_traits@D@std@@V?$allocator@D@2@@std@@XZ 00432180 f   CmdParam.obj
 0001:00031280       ??0CmdParamFlags@@QAA@PBD0HH0HZZ 00432280 f   CmdParamFlags.obj
 0001:000316b0       ??_ECmdParamFlags@@UAEPAXI@Z 004326b0 f i CmdParamFlags.obj
 0001:000316b0       ??_GCmdParamFlags@@UAEPAXI@Z 004326b0 f i CmdParamFlags.obj
 0001:00031710       ?Parse@CmdParamFlags@@UAEHPBDPADH@Z 00432710 f   CmdParamFlags.obj
 0001:00031930       ??0CmdParamInt@@QAE@PBD00HHHH@Z 00432930 f   CmdParamInt.obj
 0001:00031970       ??_ECmdParamInt@@UAEPAXI@Z 00432970 f i CmdParamInt.obj
 0001:00031970       ??_GCmdParamInt@@UAEPAXI@Z 00432970 f i CmdParamInt.obj
 0001:000319b0       ?Parse@CmdParamInt@@UAEHPBDPADH@Z 004329b0 f   CmdParamInt.obj
 0001:00031a40       ??$_Emplace_reallocate@U?$pair@V?$basic_string@DU?$char_traits@D@std@@V?$allocator@D@2@@std@@V12@@std@@@?$vector@U?$pair@V?$basic_string@DU?$char_traits@D@std@@V?$allocator@D@2@@std@@V12@@std@@V?$allocator@U?$pair@V?$basic_string@DU?$char_traits@D@std@@V?$allocator@D@2@@std@@V12@@std@@@2@@std@@AAEPAU?$pair@V?$basic_string@DU?$char_traits@D@std@@V?$allocator@D@2@@std@@V12@@1@QAU21@$$QAU21@@Z 00432a40 f i CmdParamMultiAssign.obj
 0001:00031c50       ??0?$pair@V?$basic_string@DU?$char_traits@D@std@@V?$allocator@D@2@@std@@V12@@std@@QAE@$$QAU01@@Z 00432c50 f i CmdParamMultiAssign.obj
 0001:00031cd0       ??0CmdParamMultiAssign@@QAE@PBD00H@Z 00432cd0 f   CmdParamMultiAssign.obj
 0001:00031d20       ??1?$vector@U?$pair@V?$basic_string@DU?$char_traits@D@std@@V?$allocator@D@2@@std@@V12@@std@@V?$allocator@U?$pair@V?$basic_string@DU?$char_traits@D@std@@V?$allocator@D@2@@std@@V12@@std@@@2@@std@@QAE@XZ 00432d20 f i CmdParamMultiAssign.obj
 0001:00031dc0       ??_ECmdParamMultiAssign@@UAEPAXI@Z 00432dc0 f i CmdParamMultiAssign.obj
 0001:00031dc0       ??_GCmdParamMultiAssign@@UAEPAXI@Z 00432dc0 f i CmdParamMultiAssign.obj
 0001:00031e10       ?Parse@CmdParamMultiAssign@@UAEHPBDPADH@Z 00432e10 f   CmdParamMultiAssign.obj
 0001:000321e0       ??0CmdParamString@@QAE@PBD00H0@Z 004331e0 f   CmdParamString.obj
 0001:000322f0       ??_ECmdParamString@@UAEPAXI@Z 004332f0 f i CmdParamString.obj
 0001:000322f0       ??_GCmdParamString@@UAEPAXI@Z 004332f0 f i CmdParamString.obj
 0001:00032340       ?Parse@CmdParamString@@UAEHPBDPADH@Z 00433340 f   CmdParamString.obj
 0001:00032430       ??0CmdParamSwitch@@QAE@PBD0H@Z 00433430 f   CmdParamSwitch.obj
 0001:00032460       ??_ECmdParamSwitch@@UAEPAXI@Z 00433460 f i CmdParamSwitch.obj
 0001:00032460       ??_GCmdParamSwitch@@UAEPAXI@Z 00433460 f i CmdParamSwitch.obj
 0001:000324a0       ?Parse@CmdParamSwitch@@UAEHPBDPADH@Z 004334a0 f   CmdParamSwitch.obj
 0001:000324b0       ??0Relocation@@QAE@XZ      004334b0 f i CoffLibraryLoader.obj
 0001:000324e0       ??_ECoffObjectLoader@@UAEPAXI@Z 004334e0 f i CoffLibraryLoader.obj
 0001:000324e0       ??_GCoffObjectLoader@@UAEPAXI@Z 004334e0 f i CoffLibraryLoader.obj
 0001:00032500       ??_ECoffLibraryLoader@@UAEPAXI@Z 00433500 f i MultiLoader.obj
 0001:00032500       ??_EHunkLoader@@UAEPAXI@Z  00433500 f i CoffLibraryLoader.obj
 0001:00032500       ??_ELTCGLoader@@UAEPAXI@Z  00433500 f i MultiLoader.obj
 0001:00032500       ??_GCoffLibraryLoader@@UAEPAXI@Z 00433500 f i MultiLoader.obj
 0001:00032500       ??_GHunkLoader@@UAEPAXI@Z  00433500 f i CoffLibraryLoader.obj
 0001:00032500       ??_GLTCGLoader@@UAEPAXI@Z  00433500 f i MultiLoader.obj
 0001:00032530       ?Clicks@CoffLibraryLoader@@UBE_NPBDH@Z 00433530 f   CoffLibraryLoader.obj
 0001:00032590       ?Load@CoffLibraryLoader@@UAE_NAAVPart@@PBDH1_N@Z 00433590 f   CoffLibraryLoader.obj
 0001:00032ad0       ?MakeCallStub@@YAPAVHunk@@PBD@Z 00433ad0 f   CoffLibraryLoader.obj
 0001:00032d90       ??$_Resize_reallocate@U_Value_init_tag@std@@@?$vector@PAVHunk@@V?$allocator@PAVHunk@@@std@@@std@@AAEXIABU_Value_init_tag@1@@Z 00433d90 f i CoffObjectLoader.obj
 0001:00032ea0       ??1CoffObjectLoader@@UAE@XZ 00433ea0 f   CoffObjectLoader.obj
 0001:00032eb0       ?Clicks@CoffObjectLoader@@UBE_NPBDH@Z 00433eb0 f   CoffObjectLoader.obj
 0001:00033040       ?Load@CoffObjectLoader@@UAE_NAAVPart@@PBDH1_N@Z 00434040 f   CoffObjectLoader.obj
 0001:00033c40       ?resize@?$vector@PAVHunk@@V?$allocator@PAVHunk@@@std@@@std@@QAEXI@Z 00434c40 f i CoffObjectLoader.obj
 0001:00033ca0       ?LoadFromFile@HunkLoader@@QAE_NAAVPart@@PBD@Z 00434ca0 f   HunkLoader.obj
 0001:00033cf0       ??0MultiLoader@@QAE@XZ     00434cf0 f   MultiLoader.obj
 0001:00033dd0       ??1MultiLoader@@UAE@XZ     00434dd0 f   MultiLoader.obj
 0001:00033e60       ??_EMultiLoader@@UAEPAXI@Z 00434e60 f i MultiLoader.obj
 0001:00033e60       ??_GMultiLoader@@UAEPAXI@Z 00434e60 f i MultiLoader.obj
 0001:00033e80       ?Clicks@MultiLoader@@UBE_NPBDH@Z 00434e80 f   MultiLoader.obj
 0001:00033ec0       ?Load@MultiLoader@@UAE_NAAVPart@@PBDH1_N@Z 00434ec0 f   MultiLoader.obj
 0001:000340e0       ?SortHunkList@EmpiricalHunkSorter@@SAHAAVPartList@@AAVTransform@@_NHPAVProgressBar@@2@Z 004350e0 f   EmpiricalHunkSorter.obj
 0001:00034360       ?TryHunkCombination@EmpiricalHunkSorter@@CAHAAVPartList@@AAVTransform@@_N2@Z 00435360 f   EmpiricalHunkSorter.obj
 0001:00034950       ?SortHunkList@HeuristicHunkSorter@@SAXAAVPartList@@@Z 00435950 f   HeuristicHunkSorter.obj
 0001:00034a50       ?DoTransform@CallTransform@@UAE_NPAVHunk@@H_N@Z 00435a50 f   CallTransform.obj
 0001:00034b30       ?GetDetransformer@CallTransform@@UAEPAVHunk@@XZ 00435b30 f   CallTransform.obj
 0001:00034ba0       ?LinkAndTransform@Transform@@QAE_NAAVPartList@@PAVSymbol@@HPAPAVHunk@@2_N@Z 00435ba0 f   Transform.obj
 0001:00034ca0       ?AddProgressBar@CompositeProgressBar@@QAEXPAVProgressBar@@@Z 00435ca0 f   CompositeProgressBar.obj
 0001:00034cd0       ?BeginTask@CompositeProgressBar@@UAEXPBD@Z 00435cd0 f   CompositeProgressBar.obj
 0001:00034d00       ?Deinit@CompositeProgressBar@@UAEXXZ 00435d00 f   CompositeProgressBar.obj
 0001:00034d30       ?EndTask@CompositeProgressBar@@UAEXXZ 00435d30 f   CompositeProgressBar.obj
 0001:00034d60       ?Init@CompositeProgressBar@@UAEXXZ 00435d60 f   CompositeProgressBar.obj
 0001:00034d90       ?Update@CompositeProgressBar@@UAEXHH@Z 00435d90 f   CompositeProgressBar.obj
 0001:00034dc0       ?BeginTask@ConsoleProgressBar@@UAEXPBD@Z 00435dc0 f   ConsoleProgressBar.obj
 0001:00034e50       ?Update@ConsoleProgressBar@@UAEXHH@Z 00435e50 f   ConsoleProgressBar.obj
 0001:00034ef0       ?BeginTask@WindowProgressBar@@UAEXPBD@Z 00435ef0 f   WindowProgressBar.obj
 0001:00035120       ?DlgProc@@YGJPAUHWND__@@IIJ@Z 00436120 f   WindowProgressBar.obj
 0001:000351c0       ?Init@WindowProgressBar@@UAEXXZ 004361c0 f   WindowProgressBar.obj
 0001:00035250       ?ThreadProc@@YGKPAX@Z      00436250 f   WindowProgressBar.obj
 0001:00035270       ?Update@WindowProgressBar@@UAEXHH@Z 00436270 f   WindowProgressBar.obj
 0001:00035396       _MiniDumpWriteDump@28      00436396 f   Dbghelp:dbghelp.dll
 0001:000353a0       _distorm_decode64          004363a0 f   distorm:distorm.obj
 0001:00035410       _distorm_version           00436410 f   distorm:distorm.obj
 0001:00035420       _internal_decode           00436420 f   distorm:decoder.obj
 0001:000359d0       _ADDR_SIZE_AFFECT          004369d0 f   distorm:decoder.obj
 0001:00035a10       _OP_SIZE_AFFECT            00436a10 f   distorm:decoder.obj
 0001:000362a0       @strcpy_WS@8               004372a0 f   distorm:wstring.obj
 0001:000362d0       @strcpylen_WS@12           004372d0 f   distorm:wstring.obj
 0001:000362f0       @strcatlen_WS@12           004372f0 f   distorm:wstring.obj
 0001:00036320       _is_prefix                 00437320 f   distorm:prefix.obj
 0001:00036430       _decode_prefixes           00437430 f   distorm:prefix.obj
 0001:00036c10       _get_unused_prefixes_list  00437c10 f   distorm:prefix.obj
 0001:00036d60       _str_seg_text              00437d60 f   distorm:prefix.obj
 0001:00036e10       _get_prefix_flag           00437e10 f   distorm:prefix.obj
 0001:00037010       @str_hex_b@8               00438010 f   distorm:textdefs.obj
 0001:00037030       @str_code_hb@8             00438030 f   distorm:textdefs.obj
 0001:00037060       @str_hex_sp_b@8            00438060 f   distorm:textdefs.obj
 0001:00037080       @str_code_sp_hb@8          00438080 f   distorm:textdefs.obj
 0001:000370c0       @str_hex_sp_w@8            004380c0 f   distorm:textdefs.obj
 0001:00037120       @str_code_hw@8             00438120 f   distorm:textdefs.obj
 0001:000371a0       @str_hex_sp_dw@8           004381a0 f   distorm:textdefs.obj
 0001:00037240       @str_code_hdw@8            00438240 f   distorm:textdefs.obj
 0001:000372a0       @str_hex_sp_qw@8           004382a0 f   distorm:textdefs.obj
 0001:000373d0       @str_code_hqw@8            004383d0 f   distorm:textdefs.obj
 0001:00037460       @str_off64@12              00438460 f   distorm:textdefs.obj
 0001:000374e0       _locate_inst               004384e0 f   distorm:instructions.obj
 0001:00037620       _locate_3dnow_inst         00438620 f   distorm:instructions.obj
 0001:00037670       _str_indirection_text      00438670 f   distorm:instructions.obj
 0001:00037c00       _extract_operand           00438c00 f   distorm:operands.obj
 0001:0003a370       ??0ModelList4k@@QAE@ABV0@@Z 0043b370 f   Compressor:ModelList.obj
 0001:0003a370       ??4ModelList4k@@QAEAAV0@ABV0@@Z 0043b370 f   Compressor:ModelList.obj
 0001:0003a3b0       ??0ModelList4k@@QAE@XZ     0043b3b0 f   Compressor:ModelList.obj
 0001:0003a3c0       ??AModelList4k@@QAEAAUModel@@I@Z 0043b3c0 f   Compressor:ModelList.obj
 0001:0003a3c0       ??AModelList4k@@QBEABUModel@@I@Z 0043b3c0 f   Compressor:ModelList.obj
 0001:0003a3d0       ?AddModel@ModelList4k@@QAEXUModel@@@Z 0043b3d0 f   Compressor:ModelList.obj
 0001:0003a3f0       ?DetectCompressionType@ModelList4k@@QBE?AW4CompressionType@@XZ 0043b3f0 f   Compressor:ModelList.obj
 0001:0003a4f0       ?GetMaskList@ModelList4k@@QBEIPAE_N@Z 0043b4f0 f   Compressor:ModelList.obj
 0001:0003a5d0       ?Print@ModelList1k@@QBEXXZ 0043b5d0 f   Compressor:ModelList.obj
 0001:0003a5f0       ?Print@ModelList4k@@QBEXPAU_iobuf@@@Z 0043b5f0 f   Compressor:ModelList.obj
 0001:0003a660       ?SetFromModelsAndMask@ModelList4k@@QAEXPBEHPA_N@Z 0043b660 f   Compressor:ModelList.obj
 0001:0003a6f0       ??$_Allocate_at_least_helper@V?$allocator@I@std@@@std@@YAPAIAAV?$allocator@I@0@AAI@Z 0043b6f0 f i Compressor:CompressionStream.obj
 0001:0003a750       ??$_Resize_reallocate@U_Value_init_tag@std@@@?$vector@HV?$allocator@H@std@@@std@@AAEXIABU_Value_init_tag@1@@Z 0043b750 f i Compressor:CompressionStream.obj
 0001:0003a880       ??$_Uninitialized_fill_n@V?$allocator@I@std@@@std@@YAPAIPAIIABIAAV?$allocator@I@0@@Z 0043b880 f i Compressor:CompressionStream.obj
 0001:0003a8e0       ??$fill_n@V?$_Vb_iterator@U?$_Wrap_alloc@V?$allocator@I@std@@@std@@@std@@I_N@std@@YA?AV?$_Vb_iterator@U?$_Wrap_alloc@V?$allocator@I@std@@@std@@@0@V10@IAB_N@Z 0043b8e0 f i Compressor:CompressionStream.obj
 0001:0003aa30       ??0CompressionStream@@QAE@PAEPAHH_N@Z 0043ba30 f   Compressor:CompressionStream.obj
 0001:0003aa80       ??H?$_Vb_iterator@U?$_Wrap_alloc@V?$allocator@I@std@@@std@@@std@@QBE?AV01@H@Z 0043ba80 f i Compressor:CompressionStream.obj
 0001:0003aae0       ?Close@CompressionStream@@QAEHXZ 0043bae0 f   Compressor:CompressionStream.obj
 0001:0003ab00       ?CompressFromHashBits@CompressionStream@@QAEXABUHashBits@@PAUTinyHashEntry@@HH@Z 0043bb00 f   Compressor:CompressionStream.obj
 0001:0003ae10       ?ComputeHashBits@@YA?AUHashBits@@PBEHPAEABVModelList4k@@_N3@Z 0043be10 f   Compressor:CompressionStream.obj
 0001:0003b8c0       ?EvaluateSize@CompressionStream@@QAEHPBEHABVModelList4k@@HPADH@Z 0043c8c0 f   Compressor:CompressionStream.obj
 0001:0003bd40       ?_Insert_x@?$vector@_NV?$allocator@_N@std@@@std@@QAEIV?$_Vb_const_iterator@U?$_Wrap_alloc@V?$allocator@I@std@@@std@@@2@I@Z 0043cd40 f i Compressor:CompressionStream.obj
 0001:0003bf20       ?end@?$vector@_NV?$allocator@_N@std@@@std@@QAE?AV?$_Vb_iterator@U?$_Wrap_alloc@V?$allocator@I@std@@@std@@@2@XZ 0043cf20 f i Compressor:CompressionStream.obj
 0001:0003bf80       ?reserve@?$vector@IV?$allocator@I@std@@@std@@QAEXI@Z 0043cf80 f i Compressor:CompressionStream.obj
 0001:0003bfe0       ??$?0H@?$_Optimistic_temporary_buffer@VModelList4k@@@std@@QAE@H@Z 0043cfe0 f i Compressor:Compressor.obj
 0001:0003c810       ??$_Buffered_rotate_unchecked@PAVModelList4k@@@std@@YAPAVModelList4k@@QAV1@00HH0H@Z 0043d810 f i Compressor:Compressor.obj
 0001:0003cb10       ??$_Move_backward_unchecked@PAVModelList4k@@PAV1@@std@@YAPAVModelList4k@@PAV1@00@Z 0043db10 f i Compressor:Compressor.obj
 0001:0003cb50       ??$_Move_unchecked@PAVModelList4k@@PAV1@@std@@YAPAVModelList4k@@PAV1@00@Z 0043db50 f i Compressor:Compressor.obj
 0001:0003d250       ??$_Rotate_one_left@PAVModelList4k@@@std@@YAXPAVModelList4k@@00@Z 0043e250 f i Compressor:Compressor.obj
 0001:0003d2b0       ??$_Rotate_one_right@PAVModelList4k@@@std@@YAXPAVModelList4k@@00@Z 0043e2b0 f i Compressor:Compressor.obj
 0001:0003d3c0       ??$_Uninitialized_move_unchecked@PAVModelList4k@@PAV1@@std@@YAPAVModelList4k@@PAV1@QAV1@0@Z 0043e3c0 f i Compressor:Compressor.obj
 0001:0003d400       ??$reverse@PAVModelList4k@@@std@@YAXQAVModelList4k@@0@Z 0043e400 f i Compressor:Compressor.obj
 0001:0003e3d0       ?ApproximateModels1k@@YA?AVModelList1k@@PBEHPAHP6AXPAXHH@Z2@Z 0043f3d0 f   Compressor:Compressor.obj
 0001:0003e5f0       ?ApproximateModels4k@@YA?AVModelList4k@@PBEHQBEW4CompressionType@@_NHPAHP6AXPAXHH@Z5@Z 0043f5f0 f   Compressor:Compressor.obj
 0001:0003ebd0       ?ApproximateWeights@@YAIAAVCompressionState@@AAVModelList4k@@@Z 0043fbd0 f   Compressor:Compressor.obj
 0001:0003ec40       ?Compress1k@@YAHPBEHPAEHAAVModelList1k@@PAH3@Z 0043fc40 f   Compressor:Compressor.obj
 0001:0003eed0       ?Compress4k@@YAHPBEHPBHPAEHPAPAVModelList4k@@_NHHPAH@Z 0043fed0 f   Compressor:Compressor.obj
 0001:0003f320       ?CompressFromHashBits4k@@YAHPBUHashBits@@PAUTinyHashEntry@@HPAEH_NHHPAH@Z 00440320 f   Compressor:Compressor.obj
 0001:0003f380       ?CompressionTypeName@@YAPBDW4CompressionType@@@Z 00440380 f   Compressor:Compressor.obj
 0001:0003f3c0       ?Evaluate1K@@YAHPAEHPAH111I@Z 004403c0 f   Compressor:Compressor.obj
 0001:0003f650       ?EvaluateSize4k@@YAHPBEHPBHPAHPAPAVModelList4k@@H_N@Z 00440650 f   Compressor:Compressor.obj
 0001:0003fab0       ?InitCompressor@@YAXXZ     00440ab0 f   Compressor:Compressor.obj
 0001:0003fac0       ?InstantModels4k@@YA?AVModelList4k@@XZ 00440ac0 f   Compressor:Compressor.obj
 0001:0003fbf0       ?OptimizeWeights@@YAIAAVCompressionState@@AAVModelList4k@@@Z 00440bf0 f   Compressor:Compressor.obj
 0001:0003fda0       ?_Receive_range@?$_Worker_proxy@K@Concurrency@@QAE_NPAV?$_Range@K@2@@Z 00440da0 f i Compressor:Compressor.obj
 0001:0003ff10       ?_Tidy@?$vector@VModelList4k@@V?$allocator@VModelList4k@@@std@@@std@@AAEXXZ 00440f10 f i Compressor:Compressor.obj
 0001:0003ff90       ?AritCode@@YAXPAUAritState@@IIH@Z 00440f90 f   Compressor:AritCode.obj
 0001:00040090       ?AritCodeEnd@@YAHPAUAritState@@@Z 00441090 f   Compressor:AritCode.obj
 0001:000400f0       ?AritCodeInit@@YAXPAUAritState@@PAX@Z 004410f0 f   Compressor:AritCode.obj
 0001:00040110       ?AritCodePos@@YAIPAUAritState@@@Z 00441110 f   Compressor:AritCode.obj
 0001:00040170       ?ModelHash@@YAIPBEHI@Z     00441170 f   Compressor:Model.obj
 0001:000401c0       ?ModelHashStart@@YAII@Z    004411c0 f   Compressor:Model.obj
 0001:00040490       ??0CompressionState@@QAE@PBEHH_NPAVCompressionStateEvaluator@@0@Z 00441490 f   Compressor:CompressionState.obj
 0001:00040590       ??1CompressionState@@QAE@XZ 00441590 f   Compressor:CompressionState.obj
 0001:00040ae0       ?ApplyModel@CompressionState@@AAE?AUModelPredictions@@PBEHE@Z 00441ae0 f   Compressor:CompressionState.obj
 0001:00040e10       ?SetModels@CompressionState@@QAEHABVModelList4k@@@Z 00441e10 f   Compressor:CompressionState.obj
 0001:00040e40       ?UpdateWeights@@YAXPAUWeights@@H_N@Z 00441e40 f   Compressor:CompressionState.obj
 0001:00041070       ?InitCounterStates@@YAXXZ  00442070 f   Compressor:CounterState.obj
 0001:00041340       ??0CompressionStateEvaluator@@QAE@XZ 00442340 f   Compressor:CompressionStateEvaluator.obj
 0001:00041380       ??1CompressionStateEvaluator@@QAE@XZ 00442380 f   Compressor:CompressionStateEvaluator.obj
 0001:00041e40       ?Evaluate@CompressionStateEvaluator@@QAE_JABVModelList4k@@@Z 00442e40 f   Compressor:CompressionStateEvaluator.obj
 0001:000421b0       ?Init@CompressionStateEvaluator@@QAE_NPAUModelPredictions@@HHM@Z 004431b0 f   Compressor:CompressionStateEvaluator.obj
 0001:00042320       ?_Copy@?$_Func_impl_no_alloc@P6A_JXZ_J$$V@std@@EBEPAV?$_Func_base@_J$$V@2@PAX@Z 00443320 f i Compressor:CompressionStateEvaluator.obj
 0001:00042320       ?_Move@?$_Func_impl_no_alloc@P6A_JXZ_J$$V@std@@EAEPAV?$_Func_base@_J$$V@2@PAX@Z 00443320 f i Compressor:CompressionStateEvaluator.obj
 0001:00042340       ?_DefaultInit@?$combinable@_J@Concurrency@@CA_JXZ 00443340 f i Compressor:CompressionStateEvaluator.obj
 0001:00042350       ?_Do_call@?$_Func_impl_no_alloc@P6A_JXZ_J$$V@std@@EAE_JXZ 00443350 f i Compressor:CompressionStateEvaluator.obj
 0001:00042360       ?_Target_type@?$_Func_impl_no_alloc@P6A_JXZ_J$$V@std@@EBEABVtype_info@@XZ 00443360 f i Compressor:CompressionStateEvaluator.obj
 0001:00042366       ??0_Init_locks@std@@QAE@XZ 00443366 f   libcpmt:xlock.obj
 0001:00042393       ??0_Lockit@std@@QAE@H@Z    00443393 f   libcpmt:xlock.obj
 0001:000423c4       ??1_Init_locks@std@@QAE@XZ 004433c4 f   libcpmt:xlock.obj
 0001:000423eb       ??1_Lockit@std@@QAE@XZ     004433eb f   libcpmt:xlock.obj
 0001:000430a0       ___std_find_first_of_trivial_pos_1@16 004440a0 f   libcpmt:vector_algorithms.obj
 0001:00043130       ___std_find_last_trivial_1@12 00444130 f   libcpmt:vector_algorithms.obj
 0001:00043140       ___std_find_trivial_1@12   00444140 f   libcpmt:vector_algorithms.obj
 0001:00043150       ___std_find_trivial_2@12   00444150 f   libcpmt:vector_algorithms.obj
 0001:00043160       ___std_find_trivial_4@12   00444160 f   libcpmt:vector_algorithms.obj
 0001:00043170       ___std_search_1@16         00444170 f   libcpmt:vector_algorithms.obj
 0001:00043179       ??0bad_function_call@std@@QAE@ABV01@@Z 00444179 f i libcpmt:xthrow.obj
 0001:00043194       ??0bad_function_call@std@@QAE@XZ 00444194 f i libcpmt:xthrow.obj
 0001:000431ab       ??0exception@std@@QAE@QBD@Z 004441ab f i libcpmt:xthrow.obj
 0001:000431e6       ??0length_error@std@@QAE@ABV01@@Z 004441e6 f i libcpmt:xthrow.obj
 0001:00043201       ??0length_error@std@@QAE@PBD@Z 00444201 f i libcpmt:xthrow.obj
 0001:00043220       ??0out_of_range@std@@QAE@ABV01@@Z 00444220 f i libcpmt:xthrow.obj
 0001:0004323b       ??0out_of_range@std@@QAE@PBD@Z 0044423b f i libcpmt:xthrow.obj
 0001:0004325a       ??0runtime_error@std@@QAE@PBD@Z 0044425a f i libcpmt:xthrow.obj
 0001:00043279       ??_E_Interruption_exception@details@Concurrency@@UAEPAXI@Z 00444279 f i libconcrt:Chores.obj
 0001:00043279       ??_E__non_rtti_object@std@@UAEPAXI@Z 00444279 f i libvcruntime:rtti.obj
 0001:00043279       ??_Ebad_exception@std@@UAEPAXI@Z 00444279 f i libvcruntime:frame.obj
 0001:00043279       ??_Ebad_function_call@std@@UAEPAXI@Z 00444279 f i libcpmt:xthrow.obj
 0001:00043279       ??_Ebad_typeid@std@@UAEPAXI@Z 00444279 f i libvcruntime:rtti.obj
 0001:00043279       ??_Econtext_self_unblock@Concurrency@@UAEPAXI@Z 00444279 f i libconcrt:Exceptions.obj
 0001:00043279       ??_Econtext_unblock_unbalanced@Concurrency@@UAEPAXI@Z 00444279 f i libconcrt:Exceptions.obj
 0001:00043279       ??_Eimproper_lock@Concurrency@@UAEPAXI@Z 00444279 f i libconcrt:rtlocks.obj
 0001:00043279       ??_Eimproper_scheduler_attach@Concurrency@@UAEPAXI@Z 00444279 f i libconcrt:SchedulerBase.obj
 0001:00043279       ??_Eimproper_scheduler_reference@Concurrency@@UAEPAXI@Z 00444279 f i libconcrt:SchedulerBase.obj
 0001:00043279       ??_Einvalid_multiple_scheduling@Concurrency@@UAEPAXI@Z 00444279 f i libconcrt:TaskCollection.obj
 0001:00043279       ??_Einvalid_operation@Concurrency@@UAEPAXI@Z 00444279 f i libconcrt:ResourceManager.obj
 0001:00043279       ??_Einvalid_oversubscribe_operation@Concurrency@@UAEPAXI@Z 00444279 f i libconcrt:Exceptions.obj
 0001:00043279       ??_Einvalid_scheduler_policy_key@Concurrency@@UAEPAXI@Z 00444279 f i libconcrt:Exceptions.obj
 0001:00043279       ??_Einvalid_scheduler_policy_thread_specification@Concurrency@@UAEPAXI@Z 00444279 f i libconcrt:Exceptions.obj
 0001:00043279       ??_Einvalid_scheduler_policy_value@Concurrency@@UAEPAXI@Z 00444279 f i libconcrt:Exceptions.obj
 0001:00043279       ??_Elength_error@std@@UAEPAXI@Z 00444279 f i libcpmt:xthrow.obj
 0001:00043279       ??_Emissing_wait@Concurrency@@UAEPAXI@Z 00444279 f i libconcrt:Chores.obj
 0001:00043279       ??_Enested_scheduler_missing_detach@Concurrency@@UAEPAXI@Z 00444279 f i libconcrt:Exceptions.obj
 0001:00043279       ??_Eout_of_range@std@@UAEPAXI@Z 00444279 f i libcpmt:xthrow.obj
 0001:00043279       ??_G_Interruption_exception@details@Concurrency@@UAEPAXI@Z 00444279 f i libconcrt:Chores.obj
 0001:00043279       ??_G__non_rtti_object@std@@UAEPAXI@Z 00444279 f i libvcruntime:rtti.obj
 0001:00043279       ??_Gbad_exception@std@@UAEPAXI@Z 00444279 f i libvcruntime:frame.obj
 0001:00043279       ??_Gbad_function_call@std@@UAEPAXI@Z 00444279 f i libcpmt:xthrow.obj
 0001:00043279       ??_Gbad_typeid@std@@UAEPAXI@Z 00444279 f i libvcruntime:rtti.obj
 0001:00043279       ??_Gcontext_self_unblock@Concurrency@@UAEPAXI@Z 00444279 f i libconcrt:Exceptions.obj
 0001:00043279       ??_Gcontext_unblock_unbalanced@Concurrency@@UAEPAXI@Z 00444279 f i libconcrt:Exceptions.obj
 0001:00043279       ??_Gimproper_lock@Concurrency@@UAEPAXI@Z 00444279 f i libconcrt:rtlocks.obj
 0001:00043279       ??_Gimproper_scheduler_attach@Concurrency@@UAEPAXI@Z 00444279 f i libconcrt:SchedulerBase.obj
 0001:00043279       ??_Gimproper_scheduler_reference@Concurrency@@UAEPAXI@Z 00444279 f i libconcrt:SchedulerBase.obj
 0001:00043279       ??_Ginvalid_multiple_scheduling@Concurrency@@UAEPAXI@Z 00444279 f i libconcrt:TaskCollection.obj
 0001:00043279       ??_Ginvalid_operation@Concurrency@@UAEPAXI@Z 00444279 f i libconcrt:ResourceManager.obj
 0001:00043279       ??_Ginvalid_oversubscribe_operation@Concurrency@@UAEPAXI@Z 00444279 f i libconcrt:Exceptions.obj
 0001:00043279       ??_Ginvalid_scheduler_policy_key@Concurrency@@UAEPAXI@Z 00444279 f i libconcrt:Exceptions.obj
 0001:00043279       ??_Ginvalid_scheduler_policy_thread_specification@Concurrency@@UAEPAXI@Z 00444279 f i libconcrt:Exceptions.obj
 0001:00043279       ??_Ginvalid_scheduler_policy_value@Concurrency@@UAEPAXI@Z 00444279 f i libconcrt:Exceptions.obj
 0001:00043279       ??_Glength_error@std@@UAEPAXI@Z 00444279 f i libcpmt:xthrow.obj
 0001:00043279       ??_Gmissing_wait@Concurrency@@UAEPAXI@Z 00444279 f i libconcrt:Chores.obj
 0001:00043279       ??_Gnested_scheduler_missing_detach@Concurrency@@UAEPAXI@Z 00444279 f i libconcrt:Exceptions.obj
 0001:00043279       ??_Gout_of_range@std@@UAEPAXI@Z 00444279 f i libcpmt:xthrow.obj
 0001:000432a6       ?_Xbad_alloc@std@@YAXXZ    004442a6 f   libcpmt:xthrow.obj
 0001:000432a6       ?__scrt_throw_std_bad_alloc@@YAXXZ 004442a6 f   LIBCMT:throw_bad_alloc.obj
 0001:000432c3       ?_Xbad_function_call@std@@YAXXZ 004442c3 f   libcpmt:xthrow.obj
 0001:000432e0       ?_Xlength_error@std@@YAXPBD@Z 004442e0 f   libcpmt:xthrow.obj
 0001:00043300       ?_Xout_of_range@std@@YAXPBD@Z 00444300 f   libcpmt:xthrow.obj
 0001:00043320       ?_Xruntime_error@std@@YAXPBD@Z 00444320 f   libcpmt:xthrow.obj
 0001:00043340       ?what@bad_function_call@std@@UBEPBDXZ 00444340 f i libcpmt:xthrow.obj
 0001:00043346       ?GetCurrentThreadId@platform@details@Concurrency@@YAJXZ 00444346 f   libcpmt:ppltasks.obj
 0001:00043346       __Thrd_id                  00444346 f   libcpmt:cthread.obj
 0001:0004334c       __Thrd_join                0044434c f   libcpmt:cthread.obj
 0001:0004339b       ??1?$lock_guard@Vmutex@std@@@std@@QAE@XZ 0044439b f i libcpmt:xnotify.obj
 0001:000433a4       ?_Verify_ownership_levels@_Mutex_base@std@@IAE_NXZ 004443a4 f i libcpmt:xnotify.obj
 0001:000433ba       ?lock@_Mutex_base@std@@QAEXXZ 004443ba f i libcpmt:xnotify.obj
 0001:000433e1       __Cnd_do_broadcast_at_thread_exit 004443e1 f   libcpmt:xnotify.obj
 0001:000434a5       ??0_System_error@std@@IAE@Verror_code@1@ABV?$basic_string@DU?$char_traits@D@std@@V?$allocator@D@2@@1@@Z 004444a5 f i libcpmt:thread0.obj
 0001:00043511       ??0runtime_error@std@@QAE@ABV?$basic_string@DU?$char_traits@D@std@@V?$allocator@D@2@@1@@Z 00444511 f i libcpmt:thread0.obj
 0001:00043539       ??0system_error@std@@QAE@HABVerror_category@1@PBD@Z 00444539 f i libcpmt:thread0.obj
 0001:00043589       ?_Makestr@_System_error@std@@CA?AV?$basic_string@DU?$char_traits@D@std@@V?$allocator@D@2@@2@Verror_code@2@V32@@Z 00444589 f i libcpmt:thread0.obj
 0001:000435ff       ?_Throw_Cpp_error@std@@YAXH@Z 004445ff f   libcpmt:thread0.obj
 0001:00043634       ?message@error_code@std@@QBE?AV?$basic_string@DU?$char_traits@D@std@@V?$allocator@D@2@@2@XZ 00444634 f i libcpmt:thread0.obj
 0001:0004365c       ??0_Locimp@locale@std@@AAE@_N@Z 0044465c f i libcpmt:locale0.obj
 0001:0004369d       ??1_Fac_node@std@@QAE@XZ   0044469d f i libcpmt:locale0.obj
 0001:000436ce       ??1_Fac_tidy_reg_t@std@@QAE@XZ 004446ce f i libcpmt:locale0.obj
 0001:000436f2       ??1_Locimp@locale@std@@MAE@XZ 004446f2 f i libcpmt:locale0.obj
 0001:00043712       ??1locale@std@@QAE@XZ      00444712 f i libcpmt:locale0.obj
 0001:00043747       ??4?$_Yarn@D@std@@QAEAAV01@PBD@Z 00444747 f i libcpmt:locale0.obj
 0001:00043790       ??_E_Locimp@locale@std@@MAEPAXI@Z 00444790 f i libcpmt:locale0.obj
 0001:00043790       ??_G_Locimp@locale@std@@MAEPAXI@Z 00444790 f i libcpmt:locale0.obj
 0001:000437b2       ?_Facet_Register@std@@YAXPAV_Facet_base@1@@Z 004447b2 f   libcpmt:locale0.obj
 0001:000437df       ?_Getgloballocale@locale@std@@CAPAV_Locimp@12@XZ 004447df f   libcpmt:locale0.obj
 0001:000437e5       ?_Init@locale@std@@CAPAV_Locimp@12@_N@Z 004447e5 f   libcpmt:locale0.obj
 0001:00043872       ?_Locimp_dtor@_Locimp@locale@std@@CAXPAV123@@Z 00444872 f   libcpmt:locale0.obj
 0001:000438e3       ?_Locinfo_ctor@_Locinfo@std@@SAXPAV12@PBD@Z 004448e3 f   libcpmt:locale0.obj
 0001:0004392f       ?_Locinfo_dtor@_Locinfo@std@@SAXPAV12@@Z 0044492f f   libcpmt:locale0.obj
 0001:00043949       ?_New_Locimp@_Locimp@locale@std@@CAPAV123@_N@Z 00444949 f   libcpmt:locale0.obj
 0001:0004396c       ?_Setgloballocale@locale@std@@CAXPAX@Z 0044496c f   libcpmt:locale0.obj
 0001:00043994       ?_Tidy@?$_Yarn@D@std@@AAEXXZ 00444994 f i libcpmt:locale0.obj
 0001:000439ac       __Deletegloballocale       004449ac f   libcpmt:locale0.obj
 0001:00043a14       __Getcvt                   00444a14 f   libcpmt:xwctomb.obj
 0001:00043a87       ___std_fs_code_page@0      00444a87 f   libcpmt:filesystem.obj
 0001:00043aa4       ___std_fs_convert_narrow_to_wide@20 00444aa4 f   libcpmt:filesystem.obj
 0001:00043ad8       ___std_fs_convert_wide_to_narrow@20 00444ad8 f   libcpmt:filesystem.obj
 0001:00043b8b       ___std_get_string_size_without_trailing_whitespace@8 00444b8b f   libcpmt:syserror_import_lib.obj
 0001:00043baf       ___std_system_error_allocate_message@8 00444baf f   libcpmt:syserror_import_lib.obj
 0001:00043c29       ___std_system_error_deallocate_message@4 00444c29 f   libcpmt:syserror_import_lib.obj
 0001:00043c2f       ?_Syserror_map@std@@YAPBDH@Z 00444c2f f   libcpmt:syserror.obj
 0001:00043c54       ?_Winerror_map@std@@YAHH@Z 00444c54 f   libcpmt:syserror.obj
 0001:00043c76       __Mtxdst                   00444c76 f   libcpmt:xmtx.obj
 0001:00043c84       __Mtxinit                  00444c84 f   libcpmt:xmtx.obj
 0001:00043c99       __Mtxlock                  00444c99 f   libcpmt:xmtx.obj
 0001:00043ca7       __Mtxunlock                00444ca7 f   libcpmt:xmtx.obj
 0001:00043cb5       __Timespec64_get_sys       00444cb5 f   libcpmt:xtime.obj
 0001:00043cf3       __Xtime_get_ticks          00444cf3 f   libcpmt:xtime.obj
 0001:00043d1a       __Mtx_lock                 00444d1a f   libcpmt:mutex.obj
 0001:00043d2b       __Mtx_unlock               00444d2b f   libcpmt:mutex.obj
 0001:00043e79       ?_Primitive_wait@@YAXQAU_Cnd_internal_imp_t@@QAU_Mtx_internal_imp_t@@@Z 00444e79 f i libcpmt:cond.obj
 0001:00043e96       ?_Primitive_wait_for@@YA_NQAU_Cnd_internal_imp_t@@QAU_Mtx_internal_imp_t@@I@Z 00444e96 f i libcpmt:cond.obj
 0001:00043eb9       __Cnd_broadcast            00444eb9 f   libcpmt:cond.obj
 0001:00043ecd       __Cnd_wait                 00444ecd f   libcpmt:cond.obj
 0001:00043ef5       __Mtx_reset_owner          00444ef5 f   libcpmt:cond.obj
 0001:00043f09       ??1_Init_atexit@@QAE@XZ    00444f09 f i libcpmt:iosptrs.obj
 0001:00043f71       ?_Atexit@@YAXP6AXXZ@Z      00444f71 f   libcpmt:iosptrs.obj
 0001:00043fd4       ___crtGetSystemTimePreciseAsFileTime 00444fd4 f   libcpmt:winapisupp.obj
 0001:00044029       __freea_crt                00445029 f i libcpmt:StlLCMapStringA.obj
 0001:00044047       ??0AllocatorBucket@details@Concurrency@@QAE@XZ 00445047 f   libconcrt:SubAllocator.obj
 0001:0004405f       ??1AllocatorBucket@details@Concurrency@@QAE@XZ 0044505f f   libconcrt:SubAllocator.obj
 0001:000440b7       ?Alloc@AllocatorBucket@details@Concurrency@@QAEPATAllocationEntry@23@XZ 004450b7 f   libconcrt:SubAllocator.obj
 0001:000440d0       ?Alloc@SubAllocator@details@Concurrency@@QAEPAXI@Z 004450d0 f   libconcrt:SubAllocator.obj
 0001:00044120       ?CurrentContext@SchedulerBase@details@Concurrency@@SAPAVContextBase@23@XZ 00445120 f i libconcrt:SubAllocator.obj
 0001:00044142       ?Free@AllocatorBucket@details@Concurrency@@QAE_NPATAllocationEntry@23@@Z 00445142 f   libconcrt:SubAllocator.obj
 0001:0004416c       ?Free@Concurrency@@YAXPAX@Z 0044516c f   libconcrt:SubAllocator.obj
 0001:00044196       ?Free@SubAllocator@details@Concurrency@@QAEXPAX@Z 00445196 f   libconcrt:SubAllocator.obj
 0001:000441cd       ?GetBucketIndex@SubAllocator@details@Concurrency@@SAHI@Z 004451cd f   libconcrt:SubAllocator.obj
 0001:0004421e       ?StaticAlloc@SubAllocator@details@Concurrency@@SAPAXI@Z 0044521e f   libconcrt:SubAllocator.obj
 0001:00044257       ?Block@Context@Concurrency@@SAXXZ 00445257 f   libconcrt:Context.obj
 0001:00044274       ?CurrentContext@Context@Concurrency@@SAPAV12@XZ 00445274 f   libconcrt:Context.obj
 0001:00044279       ?_CurrentContext@_Context@details@Concurrency@@SA?AV123@XZ 00445279 f   libconcrt:Context.obj
 0001:0004428a       ?_IsSynchronouslyBlocked@_Context@details@Concurrency@@QBE_NXZ 0044528a f   libconcrt:Context.obj
 0001:000442a2       ?_Yield@_Context@details@Concurrency@@SAXXZ 004452a2 f   libconcrt:Context.obj
 0001:000442bf       ?GetNumberOfVirtualProcessors@CurrentScheduler@Concurrency@@SAIXZ 004452bf f   libconcrt:CurrentScheduler.obj
 0001:000442e5       ?_GetNumberOfVirtualProcessors@_CurrentScheduler@details@Concurrency@@SAIXZ 004452e5 f   libconcrt:CurrentScheduler.obj
 0001:00044302       ??0LockQueueNode@details@Concurrency@@QAE@I@Z 00445302 f i libconcrt:rtlocks.obj
 0001:00044366       ??0_NonReentrantBlockingLock@details@Concurrency@@QAE@XZ 00445366 f   libconcrt:rtlocks.obj
 0001:00044366       ??0_ReentrantBlockingLock@details@Concurrency@@QAE@XZ 00445366 f   libconcrt:rtlocks.obj
 0001:00044386       ??0Slot@?$Mailbox@VInternalContextBase@details@Concurrency@@@details@Concurrency@@QAE@XZ 00445386 f   libconcrt:VirtualProcessor.obj
 0001:00044386       ??0Slot@?$Mailbox@V_UnrealizedChore@details@Concurrency@@@details@Concurrency@@QAE@XZ 00445386 f   libconcrt:ContextBase.obj
 0001:00044386       ??0_ReaderWriterLock@details@Concurrency@@QAE@XZ 00445386 f   libconcrt:rtlocks.obj
 0001:00044396       ??0critical_section@Concurrency@@QAE@XZ 00445396 f   libconcrt:rtlocks.obj
 0001:000443c1       ??0improper_lock@Concurrency@@QAE@ABV01@@Z 004453c1 f i libconcrt:rtlocks.obj
 0001:000443dc       ??0scoped_lock@critical_section@Concurrency@@QAE@AAV12@@Z 004453dc f   libconcrt:rtlocks.obj
 0001:00044411       ??1_NonReentrantBlockingLock@details@Concurrency@@QAE@XZ 00445411 f   libconcrt:rtlocks.obj
 0001:00044411       ??1_ReentrantBlockingLock@details@Concurrency@@QAE@XZ 00445411 f   libconcrt:rtlocks.obj
 0001:00044419       ??1scoped_lock@critical_section@Concurrency@@QAE@XZ 00445419 f   libconcrt:rtlocks.obj
 0001:00044454       ?Block@LockQueueNode@details@Concurrency@@QAEXI@Z 00445454 f i libconcrt:rtlocks.obj
 0001:000444e1       ?DerefTimerNode@LockQueueNode@details@Concurrency@@QAEXXZ 004454e1 f i libconcrt:rtlocks.obj
 0001:00044500       ?DispatchNodeTimeoutTimer@LockQueueNode@details@Concurrency@@SGXPAU_TP_CALLBACK_INSTANCE@@PAXPAU_TP_TIMER@@@Z 00445500 f i libconcrt:rtlocks.obj
 0001:00044547       ?TryCompensateTimer@LockQueueNode@details@Concurrency@@QAEXXZ 00445547 f i libconcrt:rtlocks.obj
 0001:0004456c       ?Unblock@LockQueueNode@details@Concurrency@@QAE_NXZ 0044556c f i libconcrt:rtlocks.obj
 0001:0004459e       ?UpdateQueuePosition@LockQueueNode@details@Concurrency@@QAEXPAV123@@Z 0044559e f i libconcrt:rtlocks.obj
 0001:00044606       ?WaitForNextNode@LockQueueNode@details@Concurrency@@QAEPAV123@XZ 00445606 f i libconcrt:rtlocks.obj
 0001:00044638       ?_Acquire@_NonReentrantBlockingLock@details@Concurrency@@QAEXXZ 00445638 f   libconcrt:rtlocks.obj
 0001:00044638       ?_Acquire@_ReentrantBlockingLock@details@Concurrency@@QAEXXZ 00445638 f   libconcrt:rtlocks.obj
 0001:00044640       ?_AcquireRead@_ReaderWriterLock@details@Concurrency@@QAEXXZ 00445640 f   libconcrt:rtlocks.obj
 0001:00044670       ?_AcquireWrite@_ReaderWriterLock@details@Concurrency@@QAEXXZ 00445670 f   libconcrt:rtlocks.obj
 0001:0004469e       ?_Acquire_lock@critical_section@Concurrency@@QAE_NPAX_N@Z 0044569e f   libconcrt:rtlocks.obj
 0001:00044739       ?_FlushWriteOwners@_ReaderWriterLock@details@Concurrency@@QAEXXZ 00445739 f   libconcrt:rtlocks.obj
 0001:0004474f       ?_Flush_current_owner@critical_section@Concurrency@@QAEXXZ 0044574f f   libconcrt:rtlocks.obj
 0001:00044767       ?_Initialize@_SpinCount@details@Concurrency@@SAXXZ 00445767 f   libconcrt:rtlocks.obj
 0001:0004477e       ?_Release@_NonReentrantBlockingLock@details@Concurrency@@QAEXXZ 0044577e f   libconcrt:rtlocks.obj
 0001:0004477e       ?_Release@_ReentrantBlockingLock@details@Concurrency@@QAEXXZ 0044577e f   libconcrt:rtlocks.obj
 0001:00044786       ?_ReleaseRead@_ReaderWriterLock@details@Concurrency@@QAEXXZ 00445786 f   libconcrt:rtlocks.obj
 0001:0004478a       ?_ReleaseWrite@_ReaderWriterLock@details@Concurrency@@QAEXXZ 0044578a f   libconcrt:rtlocks.obj
 0001:00044795       ?_SetSpinCount@?$_SpinWait@$0A@@details@Concurrency@@QAEXI@Z 00445795 f i libconcrt:rtlocks.obj
 0001:000447b7       ?_SpinOnce@?$_SpinWait@$0A@@details@Concurrency@@QAE_NXZ 004457b7 f i libconcrt:rtlocks.obj
 0001:00044833       ?_Switch_to_active@critical_section@Concurrency@@AAEXPAX@Z 00445833 f   libconcrt:rtlocks.obj
 0001:00044882       ?_TryAcquireWrite@_ReaderWriterLock@details@Concurrency@@QAE_NXZ 00445882 f   libconcrt:rtlocks.obj
 0001:00044899       ?_Value@_SpinCount@details@Concurrency@@SAIXZ 00445899 f   libconcrt:rtlocks.obj
 0001:0004489f       ?_WaitEquals@_ReaderWriterLock@details@Concurrency@@CAXADJJJ@Z 0044589f f   libconcrt:rtlocks.obj
 0001:000448e1       ?lock@critical_section@Concurrency@@QAEXXZ 004458e1 f   libconcrt:rtlocks.obj
 0001:0004490f       ?unlock@critical_section@Concurrency@@QAEXXZ 0044590f f   libconcrt:rtlocks.obj
 0001:00044983       __concrt_static_cleanup    00445983 f   libconcrt:utils.obj
 0001:00044991       ??0scheduler_resource_allocation_error@Concurrency@@QAE@ABV01@@Z 00445991 f i libconcrt:utils.obj
 0001:000449b5       ??1GlobalCore@details@Concurrency@@QAE@XZ 004459b5 f i libconcrt:utils.obj
 0001:000449c2       ??_EGlobalCore@details@Concurrency@@QAEPAXI@Z 004459c2 f i libconcrt:utils.obj
 0001:00044a51       ??_Escheduler_resource_allocation_error@Concurrency@@UAEPAXI@Z 00445a51 f i libconcrt:utils.obj
 0001:00044a51       ??_Escheduler_worker_creation_error@Concurrency@@UAEPAXI@Z 00445a51 f i libconcrt:Exceptions.obj
 0001:00044a51       ??_Gscheduler_resource_allocation_error@Concurrency@@UAEPAXI@Z 00445a51 f i libconcrt:utils.obj
 0001:00044a51       ??_Gscheduler_worker_creation_error@Concurrency@@UAEPAXI@Z 00445a51 f i libconcrt:Exceptions.obj
 0001:00044a7e       ?DecodePointer@Security@details@Concurrency@@SAPAXPAX@Z 00445a7e f   libconcrt:utils.obj
 0001:00044a7e       ?EncodePointer@Security@details@Concurrency@@SAPAXPAX@Z 00445a7e f   libconcrt:utils.obj
 0001:00044a8c       ?DeleteAsyncTimerAndUnloadLibrary@details@Concurrency@@YAXPAU_TP_TIMER@@@Z 00445a8c f   libconcrt:utils.obj
 0001:00044ac8       ?FreeLibraryAndDestroyThread@details@Concurrency@@YAXK@Z 00445ac8 f   libconcrt:utils.obj
 0001:00044af2       ?InitializeCookie@Security@details@Concurrency@@SAKXZ 00445af2 f   libconcrt:utils.obj
 0001:00044b3e       ?LoadLibraryAndCreateThread@details@Concurrency@@YAPAXPAU_SECURITY_ATTRIBUTES@@KP6GKPAX@Z1KPAK@Z 00445b3e f   libconcrt:utils.obj
 0001:00044b84       ?ReferenceLoadLibrary@details@Concurrency@@YAXXZ 00445b84 f   libconcrt:utils.obj
 0001:00044c1a       ?RegisterAsyncTimerAndLoadLibrary@details@Concurrency@@YAPAU_TP_TIMER@@KP6GXPAU_TP_CALLBACK_INSTANCE@@PAXPAU3@@Z1_N@Z 00445c1a f   libconcrt:utils.obj
 0001:00044c73       ?RegisterAsyncWaitAndLoadLibrary@details@Concurrency@@YAPAU_TP_WAIT@@PAXP6GXPAU_TP_CALLBACK_INSTANCE@@0PAU3@K@Z0@Z 00445c73 f   libconcrt:utils.obj
 0001:00044ca8       ?UnRegisterAsyncTimerAndUnloadLibrary@details@Concurrency@@YAXPAU_TP_CALLBACK_INSTANCE@@PAU_TP_TIMER@@@Z 00445ca8 f   libconcrt:utils.obj
 0001:00044cdc       ?UnRegisterAsyncWaitAndUnloadLibrary@details@Concurrency@@YAXPAU_TP_CALLBACK_INSTANCE@@PAU_TP_WAIT@@@Z 00445cdc f   libconcrt:utils.obj
 0001:00044d0f       ?_Acquire@_CriticalNonReentrantLock@details@Concurrency@@QAEXXZ 00445d0f f   libconcrt:utils.obj
 0001:00044d0f       ?_Acquire@_HyperNonReentrantLock@details@Concurrency@@QAEXXZ 00445d0f f   libconcrt:utils.obj
 0001:00044d1f       ?_Acquire@_NonReentrantLock@details@Concurrency@@QAEXXZ 00445d1f f i libconcrt:utils.obj
 0001:00044d57       ?_Release@_CriticalNonReentrantLock@details@Concurrency@@QAEXXZ 00445d57 f   libconcrt:utils.obj
 0001:00044d57       ?_Release@_HyperNonReentrantLock@details@Concurrency@@QAEXXZ 00445d57 f   libconcrt:utils.obj
 0001:00044d62       ?_Sleep0@details@Concurrency@@YAXXZ 00445d62 f   libconcrt:utils.obj
 0001:00044d6b       ?_TryAcquire@_CriticalNonReentrantLock@details@Concurrency@@QAE_NXZ 00445d6b f   libconcrt:utils.obj
 0001:00044d8b       ?_TryAcquire@_NonReentrantLock@details@Concurrency@@QAE_NXZ 00445d8b f i libconcrt:utils.obj
 0001:00044da0       ?_UnderlyingYield@details@Concurrency@@YAXXZ 00445da0 f   libconcrt:utils.obj
 0001:00044dc7       ??$wait@V<lambda_1>@?BE@??_DeregisterCallback@_CancellationTokenState@details@Concurrency@@QAEXPAV_CancellationTokenRegistration@45@@Z@@condition_variable@std@@QAEXAAV?$unique_lock@Vmutex@std@@@1@V<lambda_1>@?BE@??_DeregisterCallback@_CancellationTokenState@details@Concurrency@@QAEXPAV_CancellationTokenRegistration@67@@Z@@Z 00445dc7 f i libconcrt:Chores.obj
 0001:00044df2       ??0CancellationTokenRegistration_TaskProc@details@Concurrency@@QAE@P6AXPAX@Z0H@Z 00445df2 f i libconcrt:Chores.obj
 0001:00044e4d       ??0_Interruption_exception@details@Concurrency@@QAE@ABV012@@Z 00445e4d f i libconcrt:Chores.obj
 0001:00044e68       ??0_Interruption_exception@details@Concurrency@@QAE@XZ 00445e68 f i libconcrt:Chores.obj
 0001:00044e7f       ??0_Mutex_base@std@@QAE@H@Z 00445e7f f i libconcrt:Chores.obj
 0001:00044eb0       ??0missing_wait@Concurrency@@QAE@ABV01@@Z 00445eb0 f i libconcrt:Chores.obj
 0001:00044ecb       ??_ECancellationTokenRegistration_TaskProc@details@Concurrency@@UAEPAXI@Z 00445ecb f i libconcrt:Chores.obj
 0001:00044ecb       ??_GCancellationTokenRegistration_TaskProc@details@Concurrency@@UAEPAXI@Z 00445ecb f i libconcrt:Chores.obj
 0001:00044eee       ??_E_RefCounter@details@Concurrency@@UAEPAXI@Z 00445eee f i libconcrt:Chores.obj
 0001:00044eee       ??_G_RefCounter@details@Concurrency@@UAEPAXI@Z 00445eee f i libconcrt:Chores.obj
 0001:00044f11       ?AddTail@?$List@UListEntry@details@Concurrency@@VNoCount@CollectionTypes@23@@details@Concurrency@@QAEXPAUListEntry@23@@Z 00445f11 f i libconcrt:Chores.obj
 0001:00044f40       ?AddTail@?$SafeRWList@UListEntry@details@Concurrency@@VNoCount@CollectionTypes@23@V_ReaderWriterLock@23@@details@Concurrency@@QAEXPAUListEntry@23@@Z 00445f40 f i libconcrt:Chores.obj
 0001:00044f7c       ?Remove@?$List@UListEntry@details@Concurrency@@VNoCount@CollectionTypes@23@@details@Concurrency@@QAEXPAUListEntry@23@@Z 00445f7c f i libconcrt:Chores.obj
 0001:00044faa       ?Remove@?$SafeRWList@UListEntry@details@Concurrency@@VNoCount@CollectionTypes@23@V_ReaderWriterLock@23@@details@Concurrency@@QAEXPAUListEntry@23@@Z 00445faa f i libconcrt:Chores.obj
 0001:00044fe6       ?_CancelViaToken@_UnrealizedChore@details@Concurrency@@CAXPAVContextBase@23@@Z 00445fe6 f   libconcrt:Chores.obj
 0001:0004500d       ?_CheckTaskCollection@_UnrealizedChore@details@Concurrency@@IAEXXZ 0044600d f   libconcrt:Chores.obj
 0001:00045050       ?_DeregisterCallback@_CancellationTokenState@details@Concurrency@@QAEXPAV_CancellationTokenRegistration@23@@Z 00446050 f i libconcrt:Chores.obj
 0001:0004511a       ?_Destroy@_RefCounter@details@Concurrency@@MAEXXZ 0044611a f i libconcrt:Chores.obj
 0001:00045137       ?_Exec@CancellationTokenRegistration_TaskProc@details@Concurrency@@MAEXXZ 00446137 f i libconcrt:Chores.obj
 0001:0004514b       ?_InternalFree@_UnrealizedChore@details@Concurrency@@CAXPAV123@@Z 0044614b f   libconcrt:Chores.obj
 0001:00045169       ?_Invoke@_CancellationTokenRegistration@details@Concurrency@@AAEXXZ 00446169 f i libconcrt:Chores.obj
 0001:000451d4       ?_None@_CancellationTokenState@details@Concurrency@@SAPAV123@XZ 004461d4 f i libconcrt:Chores.obj
 0001:000451d8       ?_PrepareSteal@_UnrealizedChore@details@Concurrency@@QAEXPAVContextBase@23@@Z 004461d8 f   libconcrt:Chores.obj
 0001:000451f0       ?_PrepareStealStructured@_UnrealizedChore@details@Concurrency@@AAEXPAVContextBase@23@@Z 004461f0 f   libconcrt:Chores.obj
 0001:00045226       ?_PrepareStealUnstructured@_UnrealizedChore@details@Concurrency@@AAEXPAVContextBase@23@@Z 00446226 f   libconcrt:Chores.obj
 0001:000452a6       ?_RegisterCallback@_CancellationTokenState@details@Concurrency@@QAEPAV_CancellationTokenRegistration@23@P6AXPAX@Z0H@Z 004462a6 f i libconcrt:Chores.obj
 0001:000452e3       ?_RegisterCallback@_CancellationTokenState@details@Concurrency@@QAEXPAV_CancellationTokenRegistration@23@@Z 004462e3 f i libconcrt:Chores.obj
 0001:00045359       ?_Release@_RefCounter@details@Concurrency@@QAEJXZ 00446359 f i libconcrt:Chores.obj
 0001:00045380       ?_SetDetached@_UnrealizedChore@details@Concurrency@@QAEX_N@Z 00446380 f   libconcrt:Chores.obj
 0001:0004538d       ?_StructuredChoreWrapper@_UnrealizedChore@details@Concurrency@@CAXPAV123@@Z 0044638d f   libconcrt:Chores.obj
 0001:000454f9       ?_TaskCleanup@_StructuredTaskCollection@details@Concurrency@@AAE_NXZ 004464f9 f i libconcrt:Chores.obj
 0001:00045512       ?push_back@TokenRegistrationContainer@_CancellationTokenState@details@Concurrency@@QAEXPAV_CancellationTokenRegistration@34@@Z 00446512 f i libconcrt:Chores.obj
 0001:00045551       ?remove@TokenRegistrationContainer@_CancellationTokenState@details@Concurrency@@QAEXPAV_CancellationTokenRegistration@34@@Z 00446551 f i libconcrt:Chores.obj
 0001:00045597       ??0_TaskCollection@details@Concurrency@@AAE@PAV012@_N@Z 00446597 f   libconcrt:TaskCollection.obj
 0001:00045679       ??0_TaskCollectionBase@details@Concurrency@@QAE@XZ 00446679 f i libconcrt:TaskCollection.obj
 0001:0004569a       ??0invalid_multiple_scheduling@Concurrency@@QAE@ABV01@@Z 0044669a f i libconcrt:TaskCollection.obj
 0001:000456b5       ??1?$_MallocaArrayHolder@PAVevent@Concurrency@@@details@Concurrency@@UAE@XZ 004466b5 f i libconcrt:TaskCollection.obj
 0001:000456d5       ??1TaskStack@details@Concurrency@@QAE@XZ 004466d5 f   libconcrt:TaskCollection.obj
 0001:000456e5       ??1_Scoped_lock_read@?$SafeRWList@UListEntry@details@Concurrency@@VNoCount@CollectionTypes@23@V_ReaderWriterLock@23@@details@Concurrency@@QAE@XZ 004466e5 f i libconcrt:TaskCollection.obj
 0001:00045723       ??1_StructuredTaskCollection@details@Concurrency@@QAE@XZ 00446723 f   libconcrt:TaskCollection.obj
 0001:000457a7       ??1_TaskCollection@details@Concurrency@@QAE@XZ 004467a7 f   libconcrt:TaskCollection.obj
 0001:00045881       ??1exception_ptr@std@@QAE@XZ 00446881 f i libconcrt:TaskCollection.obj
 0001:00045889       ??_E?$_MallocaArrayHolder@PAVevent@Concurrency@@@details@Concurrency@@UAEPAXI@Z 00446889 f i libconcrt:TaskCollection.obj
 0001:00045889       ??_G?$_MallocaArrayHolder@PAVevent@Concurrency@@@details@Concurrency@@UAEPAXI@Z 00446889 f i libconcrt:TaskCollection.obj
 0001:000458ab       ?AddArbitraryAlias@ContextBase@details@Concurrency@@QAEXPAV_TaskCollection@23@0@Z 004468ab f i libconcrt:TaskCollection.obj
 0001:000458ce       ?Find@?$Hash@II@details@Concurrency@@QAEPAUListNode@123@ABIPAI@Z 004468ce f i libconcrt:SchedulerBase.obj
 0001:000458ce       ?Find@?$Hash@PAV_TaskCollection@details@Concurrency@@PAV123@@details@Concurrency@@QAEPAUListNode@123@ABQAV_TaskCollection@23@PAPAV523@@Z 004468ce f i libconcrt:TaskCollection.obj
 0001:00045904       ?FindAndDelete@?$Hash@PAV_TaskCollection@details@Concurrency@@PAV123@@details@Concurrency@@QAE_NABQAV_TaskCollection@23@PAPAV423@@Z 00446904 f i libconcrt:TaskCollection.obj
 0001:00045946       ?GetArbitraryAlias@ContextBase@details@Concurrency@@QAEPAV_TaskCollection@23@PAV423@@Z 00446946 f i libconcrt:TaskCollection.obj
 0001:000459a6       ?HashValue@?$Hash@II@details@Concurrency@@CAIABIH@Z 004469a6 f i libconcrt:SchedulerBase.obj
 0001:000459a6       ?HashValue@?$Hash@PAV_TaskCollection@details@Concurrency@@PAV123@@details@Concurrency@@CAIABQAV_TaskCollection@23@H@Z 004469a6 f i libconcrt:TaskCollection.obj
 0001:000459d2       ?Insert@?$Hash@II@details@Concurrency@@QAEPAUListNode@123@ABI0@Z 004469d2 f i libconcrt:SchedulerBase.obj
 0001:000459d2       ?Insert@?$Hash@PAV_TaskCollection@details@Concurrency@@PAV123@@details@Concurrency@@QAEPAUListNode@123@ABQAV_TaskCollection@23@0@Z 004469d2 f i libconcrt:TaskCollection.obj
 0001:00045a3d       ?Lookup@?$Hash@II@details@Concurrency@@AAEPAUListNode@123@ABIH@Z 00446a3d f i libconcrt:SchedulerBase.obj
 0001:00045a3d       ?Lookup@?$Hash@PAV_TaskCollection@details@Concurrency@@PAV123@@details@Concurrency@@AAEPAUListNode@123@ABQAV_TaskCollection@23@H@Z 00446a3d f i libconcrt:TaskCollection.obj
 0001:00045a67       ?Remove@?$Hash@PAV_TaskCollection@details@Concurrency@@PAV123@@details@Concurrency@@AAEPAUListNode@123@ABQAV_TaskCollection@23@H@Z 00446a67 f i libconcrt:TaskCollection.obj
 0001:00045aab       ?_Abort@_StructuredTaskCollection@details@Concurrency@@AAEXXZ 00446aab f   libconcrt:TaskCollection.obj
 0001:00045b68       ?_Abort@_TaskCollection@details@Concurrency@@AAEX_N@Z 00446b68 f   libconcrt:TaskCollection.obj
 0001:00045c9f       ?_AbortiveSweep@_TaskCollection@details@Concurrency@@AAEXPAX@Z 00446c9f f   libconcrt:TaskCollection.obj
 0001:00045cfb       ?_Alias@_TaskCollection@details@Concurrency@@AAEPAV123@XZ 00446cfb f   libconcrt:TaskCollection.obj
 0001:00045d8a       ?_Cancel@_StructuredTaskCollection@details@Concurrency@@QAEXXZ 00446d8a f   libconcrt:TaskCollection.obj
 0001:00045dda       ?_Cancel@_TaskCollection@details@Concurrency@@AAEX_NPAV123@@Z 00446dda f   libconcrt:TaskCollection.obj
 0001:00045e79       ?_CancelDirectAliases@_TaskCollection@details@Concurrency@@AAEX_NPAV123@@Z 00446e79 f   libconcrt:TaskCollection.obj
 0001:00045e98       ?_CancelFromArbitraryThread@_TaskCollection@details@Concurrency@@AAEX_N@Z 00446e98 f   libconcrt:TaskCollection.obj
 0001:00045f3c       ?_CancelStolenContexts@_TaskCollection@details@Concurrency@@AAEX_N0@Z 00446f3c f   libconcrt:TaskCollection.obj
 0001:00045fc0       ?_CleanupToken@_StructuredTaskCollection@details@Concurrency@@AAEXXZ 00446fc0 f   libconcrt:TaskCollection.obj
 0001:00045ff6       ?_CollectionMatchPredicate@_TaskCollection@details@Concurrency@@CA_NPAV_UnrealizedChore@23@PAX@Z 00446ff6 f   libconcrt:TaskCollection.obj
 0001:00046009       ?_CountUp@_StructuredTaskCollection@details@Concurrency@@AAEXXZ 00447009 f   libconcrt:TaskCollection.obj
 0001:00046037       ?_FullAliasWait@_TaskCollection@details@Concurrency@@AAEXPAV123@@Z 00447037 f   libconcrt:TaskCollection.obj
 0001:0004613e       ?_GetStealTrackingList@_TaskCollection@details@Concurrency@@ABEPAXXZ 0044713e f   libconcrt:TaskCollection.obj
 0001:00046142       ?_Initialize@_StructuredTaskCollection@details@Concurrency@@AAEXXZ 00447142 f   libconcrt:TaskCollection.obj
 0001:00046197       ?_Initialize@_TaskCollection@details@Concurrency@@AAEXXZ 00447197 f   libconcrt:TaskCollection.obj
 0001:000461ad       ?_IsDirectAlias@_TaskCollection@details@Concurrency@@ABE_NXZ 004471ad f   libconcrt:TaskCollection.obj
 0001:000461bf       ?_IsIndirectAlias@_TaskCollection@details@Concurrency@@ABE_NXZ 004471bf f   libconcrt:TaskCollection.obj
 0001:000461d1       ?_IsMarkedForAbnormalExit@_TaskCollection@details@Concurrency@@QBE_NXZ 004471d1 f   libconcrt:TaskCollection.obj
 0001:000461dc       ?_IsStaleAlias@_TaskCollection@details@Concurrency@@ABE_NXZ 004471dc f   libconcrt:TaskCollection.obj
 0001:000461e4       ?_NotifyCompletedChoreAndFree@_TaskCollection@details@Concurrency@@AAEXPAV_UnrealizedChore@23@@Z 004471e4 f   libconcrt:TaskCollection.obj
 0001:00046233       ?_OriginalCollection@_TaskCollection@details@Concurrency@@QBEPAV123@XZ 00447233 f   libconcrt:TaskCollection.obj
 0001:00046237       ?_ReleaseAlias@_TaskCollection@details@Concurrency@@AAEXXZ 00447237 f   libconcrt:TaskCollection.obj
 0001:00046271       ?_Reset@_TaskCollection@details@Concurrency@@AAEXPAV123@@Z 00447271 f   libconcrt:TaskCollection.obj
 0001:0004637f       ?_RunAndWait@_StructuredTaskCollection@details@Concurrency@@QAG?AW4_TaskCollectionStatus@23@PAV_UnrealizedChore@23@@Z 0044737f f   libconcrt:TaskCollection.obj
 0001:00046650       ?_Schedule@_StructuredTaskCollection@details@Concurrency@@QAEXPAV_UnrealizedChore@23@@Z 00447650 f   libconcrt:TaskCollection.obj
 0001:000466a4       ?_SetCancelState@_TaskCollection@details@Concurrency@@AAE_NJ@Z 004476a4 f   libconcrt:TaskCollection.obj
 0001:000466de       ?_SweepAbortedChore@_TaskCollection@details@Concurrency@@CA_NPAV_UnrealizedChore@23@PAX@Z 004476de f   libconcrt:TaskCollection.obj
 0001:000466f7       ?_TaskCleanup@_TaskCollection@details@Concurrency@@AAE_N_N@Z 004476f7 f   libconcrt:TaskCollection.obj
 0001:00046750       ?_WaitOnStolenChores@_StructuredTaskCollection@details@Concurrency@@AAEXJ@Z 00447750 f   libconcrt:TaskCollection.obj
 0001:00046784       ??0?$Hash@II@details@Concurrency@@QAE@H@Z 00447784 f i libconcrt:SchedulerBase.obj
 0001:00046784       ??0?$Hash@PAV_TaskCollection@details@Concurrency@@PAV123@@details@Concurrency@@QAE@H@Z 00447784 f i libconcrt:ContextBase.obj
 0001:000467c2       ??0CancellationBeaconNode@CancellationBeaconStack@ContextBase@details@Concurrency@@QAE@XZ 004477c2 f i libconcrt:ContextBase.obj
 0001:000467dd       ??0CancellationBeaconStack@ContextBase@details@Concurrency@@QAE@XZ 004477dd f i libconcrt:ContextBase.obj
 0001:000467fc       ??0ContextBase@details@Concurrency@@QAE@PAVSchedulerBase@12@_N@Z 004477fc f   libconcrt:ContextBase.obj
 0001:000468d5       ??0_Cancellation_beacon@details@Concurrency@@QAE@XZ 004478d5 f   libconcrt:ContextBase.obj
 0001:000468ea       ??1?$Hash@II@details@Concurrency@@QAE@XZ 004478ea f i libconcrt:SchedulerBase.obj
 0001:000468ea       ??1?$Hash@PAV_TaskCollection@details@Concurrency@@PAV123@@details@Concurrency@@QAE@XZ 004478ea f i libconcrt:ContextBase.obj
 0001:000468fd       ??1?$StructuredWorkStealingQueue@VInternalContextBase@details@Concurrency@@V_HyperNonReentrantLock@23@@details@Concurrency@@QAE@XZ 004478fd f i libconcrt:VirtualProcessor.obj
 0001:000468fd       ??1?$StructuredWorkStealingQueue@V_UnrealizedChore@details@Concurrency@@V_CriticalNonReentrantLock@23@@details@Concurrency@@QAE@XZ 004478fd f i libconcrt:ContextBase.obj
 0001:00046914       ??1?$WorkStealingQueue@V_UnrealizedChore@details@Concurrency@@V_CriticalNonReentrantLock@23@@details@Concurrency@@QAE@XZ 00447914 f i libconcrt:ContextBase.obj
 0001:0004692b       ??1CancellationBeaconStack@ContextBase@details@Concurrency@@QAE@XZ 0044792b f i libconcrt:ContextBase.obj
 0001:00046967       ??1Context@Concurrency@@MAE@XZ 00447967 f i libconcrt:ContextBase.obj
 0001:0004696e       ??1ContextBase@details@Concurrency@@UAE@XZ 0044796e f i libconcrt:ContextBase.obj
 0001:0004699c       ??1QuickBitSet@details@Concurrency@@QAE@XZ 0044799c f i libconcrt:ContextBase.obj
 0001:000469a6       ??1Segment@?$Mailbox@VInternalContextBase@details@Concurrency@@@details@Concurrency@@QAE@XZ 004479a6 f i libconcrt:VirtualProcessor.obj
 0001:000469a6       ??1Segment@?$Mailbox@V_UnrealizedChore@details@Concurrency@@@details@Concurrency@@QAE@XZ 004479a6 f i libconcrt:ContextBase.obj
 0001:000469bd       ??1_Cancellation_beacon@details@Concurrency@@QAE@XZ 004479bd f   libconcrt:ContextBase.obj
 0001:000469fc       ??1_Scoped_lock@_CriticalNonReentrantLock@details@Concurrency@@QAE@XZ 004479fc f i libconcrt:ContextBase.obj
 0001:000469fc       ??1_Scoped_lock@_HyperNonReentrantLock@details@Concurrency@@QAE@XZ 004479fc f i libconcrt:SchedulerBase.obj
 0001:00046a37       ??8location@Concurrency@@QBE_NABV01@@Z 00447a37 f i libconcrt:ContextBase.obj
 0001:00046a5a       ??ACancellationBeaconStack@ContextBase@details@Concurrency@@QAEPAUCancellationBeacon@123@J@Z 00447a5a f i libconcrt:ContextBase.obj
 0001:00046a8c       ??_EContext@Concurrency@@MAEPAXI@Z 00447a8c f i libconcrt:ContextBase.obj
 0001:00046a8c       ??_GContext@Concurrency@@MAEPAXI@Z 00447a8c f i libconcrt:ContextBase.obj
 0001:00046aaf       ??_EContextBase@details@Concurrency@@UAEPAXI@Z 00447aaf f i libconcrt:ContextBase.obj
 0001:00046aaf       ??_GContextBase@details@Concurrency@@UAEPAXI@Z 00447aaf f i libconcrt:ContextBase.obj
 0001:00046ad4       ??_GWorkQueue@details@Concurrency@@QAEPAXI@Z 00447ad4 f i libconcrt:ContextBase.obj
 0001:00046b00       ?AcquirePushBeacon@CancellationBeaconStack@ContextBase@details@Concurrency@@QAEPAUCancellationBeacon@234@H@Z 00447b00 f i libconcrt:ContextBase.obj
 0001:00046b37       ?Add@?$ListArray@VWorkQueue@details@Concurrency@@@details@Concurrency@@QAEHPAVWorkQueue@23@@Z 00447b37 f i libconcrt:ContextBase.obj
 0001:00046cac       ?AddStealer@ContextBase@details@Concurrency@@QAEXPAV123@_N@Z 00447cac f   libconcrt:ContextBase.obj
 0001:00046cd6       ?AvoidOverflow@?$StructuredWorkStealingQueue@VInternalContextBase@details@Concurrency@@V_HyperNonReentrantLock@23@@details@Concurrency@@AAEXAAH@Z 00447cd6 f i libconcrt:InternalContextBase.obj
 0001:00046cd6       ?AvoidOverflow@?$StructuredWorkStealingQueue@V_UnrealizedChore@details@Concurrency@@V_CriticalNonReentrantLock@23@@details@Concurrency@@AAEXAAH@Z 00447cd6 f i libconcrt:ContextBase.obj
 0001:00046d2c       ?CancelCollection@ContextBase@details@Concurrency@@QAEXH@Z 00447d2c f   libconcrt:ContextBase.obj
 0001:00046d9a       ?CancelCollectionComplete@ContextBase@details@Concurrency@@QAE_NH@Z 00447d9a f   libconcrt:ContextBase.obj
 0001:00046dca       ?CancelStealers@ContextBase@details@Concurrency@@QAEXPAV_TaskCollectionBase@23@@Z 00447dca f   libconcrt:ContextBase.obj
 0001:00046eb6       ?CheckForDeletion@?$ListArray@VWorkQueue@details@Concurrency@@@details@Concurrency@@AAEXXZ 00447eb6 f i libconcrt:ContextBase.obj
 0001:00046edf       ?CheckForDeletionBridge@?$ListArray@VWorkQueue@details@Concurrency@@@details@Concurrency@@CAXPAV123@@Z 00447edf f i libconcrt:ContextBase.obj
 0001:00046eeb       ?Claim@Slot@?$Mailbox@VInternalContextBase@details@Concurrency@@@details@Concurrency@@QAE_NPAPAVInternalContextBase@34@@Z 00447eeb f i libconcrt:VirtualProcessor.obj
 0001:00046eeb       ?Claim@Slot@?$Mailbox@V_UnrealizedChore@details@Concurrency@@@details@Concurrency@@QAE_NPAPAV_UnrealizedChore@34@@Z 00447eeb f i libconcrt:ContextBase.obj
 0001:00046f32       ?Cleanup@ContextBase@details@Concurrency@@QAEXXZ 00447f32 f   libconcrt:ContextBase.obj
 0001:00046f6d       ?ClearAliasTable@ContextBase@details@Concurrency@@QAEXXZ 00447f6d f   libconcrt:ContextBase.obj
 0001:00046fb1       ?ClearContextTls@ContextBase@details@Concurrency@@AAEXXZ 00447fb1 f   libconcrt:ContextBase.obj
 0001:00046fc1       ?CreateStructuredWorkQueue@ContextBase@details@Concurrency@@QAEXXZ 00447fc1 f   libconcrt:ContextBase.obj
 0001:00047042       ?CreateWorkQueue@ContextBase@details@Concurrency@@QAEXXZ 00448042 f   libconcrt:ContextBase.obj
 0001:000470c2       ?DeleteElements@?$ListArray@VWorkQueue@details@Concurrency@@@details@Concurrency@@AAEXPAU_SINGLE_LIST_ENTRY@@@Z 004480c2 f i libconcrt:ContextBase.obj
 0001:000470e4       ?Dereference@Segment@?$Mailbox@VInternalContextBase@details@Concurrency@@@details@Concurrency@@QAEXXZ 004480e4 f i libconcrt:VirtualProcessor.obj
 0001:000470e4       ?Dereference@Segment@?$Mailbox@V_UnrealizedChore@details@Concurrency@@@details@Concurrency@@QAEXXZ 004480e4 f i libconcrt:ContextBase.obj
 0001:000470ff       ?DetachStealers@ContextBase@details@Concurrency@@QAEXXZ 004480ff f   libconcrt:ContextBase.obj
 0001:0004725a       ?EnterCriticalRegionHelper@ContextBase@details@Concurrency@@UAEHXZ 0044825a f i libconcrt:ContextBase.obj
 0001:00047262       ?EnterHyperCriticalRegionHelper@ContextBase@details@Concurrency@@UAEHXZ 00448262 f i libconcrt:ContextBase.obj
 0001:0004726d       ?ExitCriticalRegionHelper@ContextBase@details@Concurrency@@UAEHXZ 0044826d f i libconcrt:ContextBase.obj
 0001:00047275       ?ExitHyperCriticalRegionHelper@ContextBase@details@Concurrency@@UAEHXZ 00448275 f i libconcrt:ContextBase.obj
 0001:00047280       ?FlagCancellationBeacons@ContextBase@details@Concurrency@@QAEXH@Z 00448280 f   libconcrt:ContextBase.obj
 0001:000472cf       ?GetCriticalRegionType@ContextBase@details@Concurrency@@UBE?AW4CriticalRegionType@3@XZ 004482cf f i libconcrt:ContextBase.obj
 0001:000472e3       ?GetId@ContextBase@details@Concurrency@@UBEIXZ 004482e3 f   libconcrt:ContextBase.obj
 0001:000472e7       ?GetIndirectAlias@ContextBase@details@Concurrency@@QBEPAV_TaskCollection@23@XZ 004482e7 f   libconcrt:ContextBase.obj
 0001:000472eb       ?GetScheduleGroup@ContextBase@details@Concurrency@@QBEPAVScheduleGroupBase@23@XZ 004482eb f   libconcrt:ContextBase.obj
 0001:000472fc       ?GetScheduleGroupId@ContextBase@details@Concurrency@@UBEIXZ 004482fc f   libconcrt:ContextBase.obj
 0001:00047324       ?GetScheduleGroupSegment@ContextBase@details@Concurrency@@QBEPAVScheduleGroupSegmentBase@23@XZ 00448324 f   libconcrt:ContextBase.obj
 0001:00047328       ?GetScheduler@ContextBase@details@Concurrency@@QBEPAVSchedulerBase@23@XZ 00448328 f   libconcrt:ContextBase.obj
 0001:00047328       ?Id@ScheduleGroupBase@details@Concurrency@@UBEIXZ 00448328 f   libconcrt:SchedulerBase.obj
 0001:0004732c       ?Grow@CancellationBeaconStack@ContextBase@details@Concurrency@@AAEXXZ 0044832c f i libconcrt:ContextBase.obj
 0001:000473d0       ?GrowAndPush@?$StructuredWorkStealingQueue@VInternalContextBase@details@Concurrency@@V_HyperNonReentrantLock@23@@details@Concurrency@@AAEXPAVInternalContextBase@23@VSlot@?$Mailbox@VInternalContextBase@details@Concurrency@@@23@@Z 004483d0 f i libconcrt:InternalContextBase.obj
 0001:000473d0       ?GrowAndPush@?$StructuredWorkStealingQueue@V_UnrealizedChore@details@Concurrency@@V_CriticalNonReentrantLock@23@@details@Concurrency@@AAEXPAV_UnrealizedChore@23@VSlot@?$Mailbox@V_UnrealizedChore@details@Concurrency@@@23@@Z 004483d0 f i libconcrt:ContextBase.obj
 0001:0004754a       ?IsCanceledAtDepth@ContextBase@details@Concurrency@@AAE_NPAV_TaskCollectionBase@23@H@Z 0044854a f   libconcrt:ContextBase.obj
 0001:00047627       ?IsCancellationVisible@ContextBase@details@Concurrency@@QBE_NPAV_TaskCollectionBase@23@_N@Z 00448627 f   libconcrt:ContextBase.obj
 0001:0004765f       ?LockedSetOwningContext@WorkQueue@details@Concurrency@@QAEXPAVContextBase@23@@Z 0044865f f i libconcrt:ContextBase.obj
 0001:00047682       ?NextList@?$Hash@PAV_TaskCollection@details@Concurrency@@PAV123@@details@Concurrency@@AAEPAUListNode@123@PAH@Z 00448682 f i libconcrt:ContextBase.obj
 0001:000476b3       ?Pop@?$StructuredWorkStealingQueue@VInternalContextBase@details@Concurrency@@V_HyperNonReentrantLock@23@@details@Concurrency@@QAEPAVInternalContextBase@23@XZ 004486b3 f i libconcrt:VirtualProcessor.obj
 0001:000476b3       ?Pop@?$StructuredWorkStealingQueue@V_UnrealizedChore@details@Concurrency@@V_CriticalNonReentrantLock@23@@details@Concurrency@@QAEPAV_UnrealizedChore@23@XZ 004486b3 f i libconcrt:ContextBase.obj
 0001:000476fc       ?Pop@?$WorkStealingQueue@V_UnrealizedChore@details@Concurrency@@V_CriticalNonReentrantLock@23@@details@Concurrency@@QAEPAV_UnrealizedChore@23@XZ 004486fc f i libconcrt:ContextBase.obj
 0001:0004775b       ?PopContextFromTls@ContextBase@details@Concurrency@@AAEPAV123@XZ 0044875b f   libconcrt:ContextBase.obj
 0001:0004777c       ?PopGoverningTokenState@ContextBase@details@Concurrency@@QAEXPAV_CancellationTokenState@23@@Z 0044877c f   libconcrt:ContextBase.obj
 0001:000477df       ?PopStructured@ContextBase@details@Concurrency@@QAEPAV_UnrealizedChore@23@XZ 004487df f   libconcrt:ContextBase.obj
 0001:000477e7       ?Push@?$StructuredWorkStealingQueue@VInternalContextBase@details@Concurrency@@V_HyperNonReentrantLock@23@@details@Concurrency@@QAEXPAVInternalContextBase@23@@Z 004487e7 f i libconcrt:InternalContextBase.obj
 0001:000477e7       ?Push@?$StructuredWorkStealingQueue@V_UnrealizedChore@details@Concurrency@@V_CriticalNonReentrantLock@23@@details@Concurrency@@QAEXPAV_UnrealizedChore@23@@Z 004487e7 f i libconcrt:ContextBase.obj
 0001:00047840       ?PushCancellationBeacon@ContextBase@details@Concurrency@@QAEPAU_Beacon_reference@23@XZ 00448840 f   libconcrt:ContextBase.obj
 0001:0004787d       ?PushContextToTls@ContextBase@details@Concurrency@@AAEXPAV123@@Z 0044887d f   libconcrt:ContextBase.obj
 0001:00047898       ?PushGoverningTokenState@ContextBase@details@Concurrency@@QAEXPAV_CancellationTokenState@23@H@Z 00448898 f   libconcrt:ContextBase.obj
 0001:000478ab       ?PushStructured@ContextBase@details@Concurrency@@QAEXPAV_UnrealizedChore@23@@Z 004488ab f   libconcrt:ContextBase.obj
 0001:00047932       ?RecomputeMaximumCancellationDepth@ContextBase@details@Concurrency@@AAEXXZ 00448932 f   libconcrt:ContextBase.obj
 0001:000479af       ?ReferenceForCancellation@ContextBase@details@Concurrency@@QAEXXZ 004489af f   libconcrt:ContextBase.obj
 0001:000479b4       ?ReleaseWorkQueue@ContextBase@details@Concurrency@@IAEXXZ 004489b4 f   libconcrt:ContextBase.obj
 0001:00047a0d       ?Remove@?$ListArray@VWorkQueue@details@Concurrency@@@details@Concurrency@@QAE_NPAVWorkQueue@23@H_N@Z 00448a0d f i libconcrt:ContextBase.obj
 0001:00047afe       ?RemoveStealer@ContextBase@details@Concurrency@@QAEXPAV123@@Z 00448afe f   libconcrt:ContextBase.obj
 0001:00047b14       ?SetAsCurrentTls@ContextBase@details@Concurrency@@IAEXXZ 00448b14 f   libconcrt:ContextBase.obj
 0001:00047b23       ?StaticDelete@Segment@?$Mailbox@VInternalContextBase@details@Concurrency@@@details@Concurrency@@SAXPAU1234@@Z 00448b23 f i libconcrt:VirtualProcessor.obj
 0001:00047b23       ?StaticDelete@Segment@?$Mailbox@V_UnrealizedChore@details@Concurrency@@@details@Concurrency@@SAXPAU1234@@Z 00448b23 f i libconcrt:ContextBase.obj
 0001:00047b42       ?StaticEnterCriticalRegion@ContextBase@details@Concurrency@@SAXXZ 00448b42 f   libconcrt:ContextBase.obj
 0001:00047b42       ?StaticEnterHyperCriticalRegion@ContextBase@details@Concurrency@@SAXXZ 00448b42 f   libconcrt:ContextBase.obj
 0001:00047b42       ?StaticExitCriticalRegion@ContextBase@details@Concurrency@@SAXXZ 00448b42 f   libconcrt:ContextBase.obj
 0001:00047b42       ?StaticExitHyperCriticalRegion@ContextBase@details@Concurrency@@SAXXZ 00448b42 f   libconcrt:ContextBase.obj
 0001:00047b47       ?SweepAliasTable@ContextBase@details@Concurrency@@QAEXXZ 00448b47 f   libconcrt:ContextBase.obj
 0001:00047bcc       ?SweepUnstructured@ContextBase@details@Concurrency@@QAEXP6A_NPAV_UnrealizedChore@23@PAX@Z12@Z 00448bcc f   libconcrt:ContextBase.obj
 0001:00047bd8       ?SyncPop@?$WorkStealingQueue@V_UnrealizedChore@details@Concurrency@@V_CriticalNonReentrantLock@23@@details@Concurrency@@AAEPAV_UnrealizedChore@23@XZ 00448bd8 f i libconcrt:ContextBase.obj
 0001:00047c8f       ?ThrowContextEvent@ContextBase@details@Concurrency@@KAXW4ConcRT_EventType@3@EKK@Z 00448c8f f   libconcrt:ContextBase.obj
 0001:00047d00       ?TokenHidesCancellation@ContextBase@details@Concurrency@@QBE_NPAV_TaskCollectionBase@23@_N@Z 00448d00 f   libconcrt:ContextBase.obj
 0001:00047d4e       ?TraceContextEvent@ContextBase@details@Concurrency@@IAEXW4ConcRT_EventType@3@EKK@Z 00448d4e f i libconcrt:ContextBase.obj
 0001:00047d7b       ?TryPop@?$WorkStealingQueue@V_UnrealizedChore@details@Concurrency@@V_CriticalNonReentrantLock@23@@details@Concurrency@@QAEPAV_UnrealizedChore@23@H@Z 00448d7b f i libconcrt:ContextBase.obj
 0001:00047de6       ?TryPopUnstructured@ContextBase@details@Concurrency@@QAEPAV_UnrealizedChore@23@H@Z 00448de6 f   libconcrt:ContextBase.obj
 0001:00047df5       ?Wipe@?$Hash@II@details@Concurrency@@QAEXXZ 00448df5 f i libconcrt:SchedulerBase.obj
 0001:00047df5       ?Wipe@?$Hash@PAV_TaskCollection@details@Concurrency@@PAV123@@details@Concurrency@@QAEXXZ 00448df5 f i libconcrt:ContextBase.obj
 0001:00047e55       ?_Assign@location@Concurrency@@QAEXABV12@@Z 00448e55 f i libconcrt:ContextBase.obj
 0001:00047e8c       ?_Confirm_cancel@_Cancellation_beacon@details@Concurrency@@QAE_NXZ 00448e8c f   libconcrt:ContextBase.obj
 0001:00047eae       ?_SafeGetParent@_TaskCollectionBase@details@Concurrency@@IAEPAV123@XZ 00448eae f i libconcrt:ContextBase.obj
 0001:00047ec2       ??0Etw@details@Concurrency@@AAE@XZ 00448ec2 f   libconcrt:Trace.obj
 0001:00047fd3       ??1_Scoped_lock@_NonReentrantLock@details@Concurrency@@QAE@XZ 00448fd3 f i libconcrt:Trace.obj
 0001:00047fdd       ?ControlCallback@details@Concurrency@@YGKW4WMIDPREQUESTCODE@@PAXPAK1@Z 00448fdd f   libconcrt:Trace.obj
 0001:000480cb       ?GetEnableFlags@Etw@details@Concurrency@@QAEK_K@Z 004490cb f   libconcrt:Trace.obj
 0001:00048108       ?GetEnableLevel@Etw@details@Concurrency@@QAEE_K@Z 00449108 f   libconcrt:Trace.obj
 0001:00048145       ?GetLoggerHandle@Etw@details@Concurrency@@QAE_KPAX@Z 00449145 f   libconcrt:Trace.obj
 0001:00048182       ?PPL_Trace_Event@details@Concurrency@@YAXABU_GUID@@W4ConcRT_EventType@2@E@Z 00449182 f   libconcrt:Trace.obj
 0001:000481e5       ?RegisterGuids@Etw@details@Concurrency@@QAEKP6GKW4WMIDPREQUESTCODE@@PAXPAK1@ZPBU_GUID@@KPAU_TRACE_GUID_REGISTRATION@@PA_K@Z 004491e5 f   libconcrt:Trace.obj
 0001:00048229       ?Trace@Etw@details@Concurrency@@QAEK_KPAU_EVENT_TRACE_HEADER@@@Z 00449229 f   libconcrt:Trace.obj
 0001:00048262       ?UnregisterGuids@Etw@details@Concurrency@@QAEK_K@Z 00449262 f   libconcrt:Trace.obj
 0001:00048298       ?_GetConcRTTraceInfo@Concurrency@@YAPBU_CONCRT_TRACE_INFO@details@1@XZ 00449298 f   libconcrt:Trace.obj
 0001:000482ac       ?_RegisterConcRTEventTracing@details@Concurrency@@YAXXZ 004492ac f   libconcrt:Trace.obj
 0001:0004831e       ?_Trace_ppl_function@Concurrency@@YAXABU_GUID@@EW4ConcRT_EventType@1@@Z 0044931e f   libconcrt:Trace.obj
 0001:00048345       ?_UnregisterConcRTEventTracing@details@Concurrency@@YAXXZ 00449345 f   libconcrt:Trace.obj
 0001:0004838b       ?_GetCombinableSize@details@Concurrency@@YAIXZ 0044938b f   libconcrt:ppl.obj
 0001:000483ba       ??1DefaultWaiterPool@platform@details@Concurrency@@QAE@XZ 004493ba f i libconcrt:Platform.obj
 0001:000483e2       ??1WaiterThreadPool@platform@details@Concurrency@@QAE@XZ 004493e2 f i libconcrt:Platform.obj
 0001:000483f9       ?__CloseThreadHandle@platform@details@Concurrency@@YAXPAX@Z 004493f9 f   libconcrt:Platform.obj
 0001:00048407       ?__CreateAutoResetEvent@platform@details@Concurrency@@YAPAX_N@Z 00449407 f   libconcrt:Platform.obj
 0001:00048455       ?__CreateThread@platform@details@Concurrency@@YAPAXPAU_SECURITY_ATTRIBUTES@@IP6GKPAX@Z1KPAK@Z 00449455 f   libconcrt:Platform.obj
 0001:00048472       ?__GetCurrentProcessorNumberEx@platform@details@Concurrency@@YAXPAU_PROCESSOR_NUMBER@@@Z 00449472 f   libconcrt:Platform.obj
 0001:00048480       ?__GetLogicalProcessorInformationEx@platform@details@Concurrency@@YAPAU_SYSTEM_LOGICAL_PROCESSOR_INFORMATION_EX@@W4_LOGICAL_PROCESSOR_RELATIONSHIP@@PAK@Z 00449480 f   libconcrt:Platform.obj
 0001:00048503       ?__GetNumaHighestNodeNumber@platform@details@Concurrency@@YAKXZ 00449503 f   libconcrt:Platform.obj
 0001:00048548       ?__GetThreadGroupAffinity@platform@details@Concurrency@@YAHPAXPAU_GROUP_AFFINITY@@@Z 00449548 f   libconcrt:Platform.obj
 0001:0004855c       ?__GetThreadPriority@platform@details@Concurrency@@YAHPAX@Z 0044955c f   libconcrt:Platform.obj
 0001:0004856a       ?__GetTickCount64@platform@details@Concurrency@@YA_KXZ 0044956a f   libconcrt:Platform.obj
 0001:00048570       ?__InitializeCriticalSectionEx@platform@details@Concurrency@@YAHPAU_RTL_CRITICAL_SECTION@@K@Z 00449570 f   libconcrt:Platform.obj
 0001:00048583       ?__SetThreadGroupAffinity@platform@details@Concurrency@@YAHPAXPBU_GROUP_AFFINITY@@@Z 00449583 f   libconcrt:Platform.obj
 0001:00048599       ?__SetThreadPriority@platform@details@Concurrency@@YAXPAXH@Z 00449599 f   libconcrt:Platform.obj
 0001:000485dd       ?__SignalObjectAndWait@platform@details@Concurrency@@YAKPAX0KH@Z 004495dd f   libconcrt:Platform.obj
 0001:000485f4       ?__Sleep@platform@details@Concurrency@@YAXK@Z 004495f4 f   libconcrt:Platform.obj
 0001:00048602       ?__SwitchToThread@platform@details@Concurrency@@YAXXZ 00449602 f   libconcrt:Platform.obj
 0001:00048608       ?__TlsAlloc@platform@details@Concurrency@@YAKXZ 00449608 f   libconcrt:Platform.obj
 0001:00048647       ?__TlsFree@platform@details@Concurrency@@YAXK@Z 00449647 f   libconcrt:Platform.obj
 0001:00048655       ?__TlsGetValue@platform@details@Concurrency@@YAPAXK@Z 00449655 f   libconcrt:Platform.obj
 0001:00048663       ?__TlsSetValue@platform@details@Concurrency@@YAXKPAX@Z 00449663 f   libconcrt:Platform.obj
 0001:000486a7       ?__WaitForThread@platform@details@Concurrency@@YAKPAXK@Z 004496a7 f   libconcrt:Platform.obj
 0001:000486ba       ?notify@WaiterThread@platform@details@Concurrency@@AAEX_N@Z 004496ba f i libconcrt:Platform.obj
 0001:000486ee       ?stop@WaiterThread@platform@details@Concurrency@@QAEXXZ 004496ee f i libconcrt:Platform.obj
 0001:00048702       ??$_InternalDeleteHelper@VExternalContextBase@details@Concurrency@@@details@Concurrency@@YAXPAVExternalContextBase@01@@Z 00449702 f i libconcrt:SchedulerBase.obj
 0001:00048725       ??$_InternalDeleteHelper@VInternalContextBase@details@Concurrency@@@details@Concurrency@@YAXPAVInternalContextBase@01@@Z 00449725 f i libconcrt:SchedulerBase.obj
 0001:0004874a       ??$_InternalDeleteHelper@VScheduleGroupBase@details@Concurrency@@@details@Concurrency@@YAXPAVScheduleGroupBase@01@@Z 0044974a f i libconcrt:SchedulerBase.obj
 0001:0004876d       ??0?$ListArray@U?$ListArrayInlineLink@VWorkQueue@details@Concurrency@@@details@Concurrency@@@details@Concurrency@@QAE@PAVSchedulerBase@12@HH@Z 0044976d f i libconcrt:ScheduleGroupBase.obj
 0001:0004876d       ??0?$ListArray@VExternalStatistics@details@Concurrency@@@details@Concurrency@@QAE@PAVSchedulerBase@12@HH@Z 0044976d f i libconcrt:SchedulerBase.obj
 0001:0004876d       ??0?$ListArray@VScheduleGroupBase@details@Concurrency@@@details@Concurrency@@QAE@PAVSchedulerBase@12@HH@Z 0044976d f i libconcrt:SchedulerBase.obj
 0001:0004876d       ??0?$ListArray@VScheduleGroupSegmentBase@details@Concurrency@@@details@Concurrency@@QAE@PAVSchedulerBase@12@HH@Z 0044976d f i libconcrt:SchedulingRing.obj
 0001:0004876d       ??0?$ListArray@VVirtualProcessor@details@Concurrency@@@details@Concurrency@@QAE@PAVSchedulerBase@12@HH@Z 0044976d f i libconcrt:SchedulingNode.obj
 0001:0004876d       ??0?$ListArray@VWorkQueue@details@Concurrency@@@details@Concurrency@@QAE@PAVSchedulerBase@12@HH@Z 0044976d f i libconcrt:ScheduleGroupBase.obj
 0001:00048866       ??0CacheLocalScheduleGroupSegment@details@Concurrency@@QAE@PAVScheduleGroupBase@12@PAVSchedulingRing@12@PAVlocation@2@@Z 00449866 f i libconcrt:SchedulerBase.obj
 0001:000488a1       ??0FairScheduleGroupSegment@details@Concurrency@@QAE@PAVScheduleGroupBase@12@PAVSchedulingRing@12@PAVlocation@2@@Z 004498a1 f i libconcrt:SchedulerBase.obj
 0001:000488dc       ??0NumaInformation@SchedulerBase@details@Concurrency@@QAE@XZ 004498dc f i libconcrt:SchedulerBase.obj
 0001:000488ec       ??0QuickBitSet@details@Concurrency@@QAE@I@Z 004498ec f i libconcrt:SchedulerBase.obj
 0001:0004892f       ??0SchedulerBase@details@Concurrency@@QAE@ABVSchedulerPolicy@2@@Z 0044992f f   libconcrt:SchedulerBase.obj
 0001:00048bdc       ??0SubAllocator@details@Concurrency@@QAE@XZ 00449bdc f i libconcrt:SchedulerBase.obj
 0001:00048c0f       ??0improper_scheduler_attach@Concurrency@@QAE@ABV01@@Z 00449c0f f i libconcrt:SchedulerBase.obj
 0001:00048c2a       ??0improper_scheduler_reference@Concurrency@@QAE@ABV01@@Z 00449c2a f i libconcrt:SchedulerBase.obj
 0001:00048c45       ??1?$ListArray@VExternalStatistics@details@Concurrency@@@details@Concurrency@@QAE@XZ 00449c45 f i libconcrt:SchedulerBase.obj
 0001:00048ceb       ??1?$ListArray@VScheduleGroupBase@details@Concurrency@@@details@Concurrency@@QAE@XZ 00449ceb f i libconcrt:SchedulerBase.obj
 0001:00048d85       ??1NumaInformation@SchedulerBase@details@Concurrency@@QAE@XZ 00449d85 f i libconcrt:SchedulerBase.obj
 0001:00048d9c       ??1ReferenceCountedQuickBitSet@details@Concurrency@@QAE@XZ 00449d9c f i libconcrt:SchedulerBase.obj
 0001:00048db3       ??1ScheduleGroup@Concurrency@@MAE@XZ 00449db3 f i libconcrt:SchedulerBase.obj
 0001:00048dba       ??1Scheduler@Concurrency@@MAE@XZ 00449dba f i libconcrt:SchedulerBase.obj
 0001:00048dc1       ??1SchedulerBase@details@Concurrency@@UAE@XZ 00449dc1 f   libconcrt:SchedulerBase.obj
 0001:00048e7f       ??A?$ListArray@U?$ListArrayInlineLink@VWorkQueue@details@Concurrency@@@details@Concurrency@@@details@Concurrency@@QBEPAU?$ListArrayInlineLink@VWorkQueue@details@Concurrency@@@12@H@Z 00449e7f f i libconcrt:ScheduleGroupBase.obj
 0001:00048e7f       ??A?$ListArray@VExternalStatistics@details@Concurrency@@@details@Concurrency@@QBEPAVExternalStatistics@12@H@Z 00449e7f f i libconcrt:SchedulerBase.obj
 0001:00048e7f       ??A?$ListArray@VScheduleGroupSegmentBase@details@Concurrency@@@details@Concurrency@@QBEPAVScheduleGroupSegmentBase@12@H@Z 00449e7f f i libconcrt:SchedulerBase.obj
 0001:00048e7f       ??A?$ListArray@VVirtualProcessor@details@Concurrency@@@details@Concurrency@@QBEPAVVirtualProcessor@12@H@Z 00449e7f f i libconcrt:SchedulerBase.obj
 0001:00048e7f       ??A?$ListArray@VWorkQueue@details@Concurrency@@@details@Concurrency@@QBEPAVWorkQueue@12@H@Z 00449e7f f i libconcrt:ScheduleGroupBase.obj
 0001:00048ec7       ??_ENumaInformation@SchedulerBase@details@Concurrency@@QAEPAXI@Z 00449ec7 f i libconcrt:SchedulerBase.obj
 0001:00048f51       ??_ECacheLocalScheduleGroup@details@Concurrency@@UAEPAXI@Z 00449f51 f i libconcrt:SchedulerBase.obj
 0001:00048f51       ??_EScheduleGroupBase@details@Concurrency@@UAEPAXI@Z 00449f51 f i libconcrt:ScheduleGroupBase.obj
 0001:00048f51       ??_GCacheLocalScheduleGroup@details@Concurrency@@UAEPAXI@Z 00449f51 f i libconcrt:SchedulerBase.obj
 0001:00048f51       ??_GScheduleGroupBase@details@Concurrency@@UAEPAXI@Z 00449f51 f i libconcrt:ScheduleGroupBase.obj
 0001:00048f74       ??_ECacheLocalScheduleGroupSegment@details@Concurrency@@UAEPAXI@Z 00449f74 f i libconcrt:SchedulerBase.obj
 0001:00048f74       ??_EFairScheduleGroupSegment@details@Concurrency@@UAEPAXI@Z 00449f74 f i libconcrt:SchedulerBase.obj
 0001:00048f74       ??_GCacheLocalScheduleGroupSegment@details@Concurrency@@UAEPAXI@Z 00449f74 f i libconcrt:SchedulerBase.obj
 0001:00048f74       ??_GFairScheduleGroupSegment@details@Concurrency@@UAEPAXI@Z 00449f74 f i libconcrt:SchedulerBase.obj
 0001:00048f99       ??_EFairScheduleGroup@details@Concurrency@@UAEPAXI@Z 00449f99 f i libconcrt:SchedulerBase.obj
 0001:00048f99       ??_GFairScheduleGroup@details@Concurrency@@UAEPAXI@Z 00449f99 f i libconcrt:SchedulerBase.obj
 0001:00048fbc       ??_ERealizedChore@details@Concurrency@@UAEPAXI@Z 00449fbc f i libconcrt:SchedulerBase.obj
 0001:00048fbc       ??_GRealizedChore@details@Concurrency@@UAEPAXI@Z 00449fbc f i libconcrt:SchedulerBase.obj
 0001:00048fdf       ??_EScheduleGroup@Concurrency@@MAEPAXI@Z 00449fdf f i libconcrt:SchedulerBase.obj
 0001:00048fdf       ??_GScheduleGroup@Concurrency@@MAEPAXI@Z 00449fdf f i libconcrt:SchedulerBase.obj
 0001:00049002       ??_EScheduler@Concurrency@@MAEPAXI@Z 0044a002 f i libconcrt:SchedulerBase.obj
 0001:00049002       ??_GScheduler@Concurrency@@MAEPAXI@Z 0044a002 f i libconcrt:SchedulerBase.obj
 0001:00049025       ??_ESchedulerBase@details@Concurrency@@UAEPAXI@Z 0044a025 f i libconcrt:SchedulerBase.obj
 0001:00049025       ??_GSchedulerBase@details@Concurrency@@UAEPAXI@Z 0044a025 f i libconcrt:SchedulerBase.obj
 0001:0004904a       ??_GSubAllocator@details@Concurrency@@QAEPAXI@Z 0044a04a f i libconcrt:SchedulerBase.obj
 0001:000490b2       ?Add@?$ListArray@VScheduleGroupBase@details@Concurrency@@@details@Concurrency@@QAEHPAVScheduleGroupBase@23@@Z 0044a0b2 f i libconcrt:SchedulerBase.obj
 0001:00049227       ?AddContext@SchedulerBase@details@Concurrency@@QAEXPAVInternalContextBase@23@@Z 0044a227 f   libconcrt:SchedulerBase.obj
 0001:0004925e       ?AddHead@?$List@UBoostedObject@details@Concurrency@@VNoCount@CollectionTypes@23@@details@Concurrency@@QAEXPAUBoostedObject@23@@Z 0044a25e f i libconcrt:SchedulerBase.obj
 0001:00049292       ?AddTail@?$List@VWaitNode@SchedulerBase@details@Concurrency@@VNoCount@CollectionTypes@34@@details@Concurrency@@QAEXPAVWaitNode@SchedulerBase@23@@Z 0044a292 f i libconcrt:SchedulerBase.obj
 0001:000492bf       ?AddTail@?$SafeRWList@VWaitNode@SchedulerBase@details@Concurrency@@VNoCount@CollectionTypes@34@V_ReaderWriterLock@34@@details@Concurrency@@QAEXPAVWaitNode@SchedulerBase@23@@Z 0044a2bf f i libconcrt:SchedulerBase.obj
 0001:000492fb       ?AddVirtualProcessors@SchedulerBase@details@Concurrency@@IAEXPAPAUIVirtualProcessorRoot@3@I@Z 0044a2fb f   libconcrt:SchedulerBase.obj
 0001:00049391       ?AllocateSegment@CacheLocalScheduleGroup@details@Concurrency@@MAEPAVScheduleGroupSegmentBase@23@PAVSchedulingRing@23@PAVlocation@3@@Z 0044a391 f i libconcrt:SchedulerBase.obj
 0001:000493cc       ?AllocateSegment@FairScheduleGroup@details@Concurrency@@MAEPAVScheduleGroupSegmentBase@23@PAVSchedulingRing@23@PAVlocation@3@@Z 0044a3cc f i libconcrt:SchedulerBase.obj
 0001:00049418       ?Attach@SchedulerBase@details@Concurrency@@UAEXXZ 0044a418 f   libconcrt:SchedulerBase.obj
 0001:0004945e       ?AttachExternalContext@SchedulerBase@details@Concurrency@@AAEPAVExternalContextBase@23@_N@Z 0044a45e f   libconcrt:SchedulerBase.obj
 0001:000494ce       ?AttemptSchedulerSweep@SchedulerBase@details@Concurrency@@IAEXXZ 0044a4ce f   libconcrt:SchedulerBase.obj
 0001:000494f1       ?CancelAllContexts@SchedulerBase@details@Concurrency@@MAEXXZ 0044a4f1 f   libconcrt:SchedulerBase.obj
 0001:0004952f       ?ChangeThrottlingTimer@SchedulerBase@details@Concurrency@@AAEXK@Z 0044a52f f   libconcrt:SchedulerBase.obj
 0001:0004956a       ?CheckForDeletion@?$ListArray@VExternalStatistics@details@Concurrency@@@details@Concurrency@@AAEXXZ 0044a56a f i libconcrt:SchedulerBase.obj
 0001:000495a7       ?CheckForDeletion@?$ListArray@VScheduleGroupBase@details@Concurrency@@@details@Concurrency@@AAEXXZ 0044a5a7 f i libconcrt:SchedulerBase.obj
 0001:000495e1       ?CheckForDeletionBridge@?$ListArray@VExternalStatistics@details@Concurrency@@@details@Concurrency@@CAXPAV123@@Z 0044a5e1 f i libconcrt:SchedulerBase.obj
 0001:000495ed       ?CheckForDeletionBridge@?$ListArray@VScheduleGroupBase@details@Concurrency@@@details@Concurrency@@CAXPAV123@@Z 0044a5ed f i libconcrt:SchedulerBase.obj
 0001:000495f9       ?CheckOneShotStaticDestruction@SchedulerBase@details@Concurrency@@SAXXZ 0044a5f9 f   libconcrt:SchedulerBase.obj
 0001:00049630       ?CheckStaticConstruction@SchedulerBase@details@Concurrency@@CAXXZ 0044a630 f   libconcrt:SchedulerBase.obj
 0001:000496a2       ?Cleanup@SchedulerBase@details@Concurrency@@AAEXXZ 0044a6a2 f   libconcrt:SchedulerBase.obj
 0001:00049755       ?CommitSafePoints@SchedulerBase@details@Concurrency@@QAEXXZ 0044a755 f   libconcrt:SchedulerBase.obj
 0001:00049798       ?CommitToVersion@SchedulerBase@details@Concurrency@@AAEXK@Z 0044a798 f   libconcrt:SchedulerBase.obj
 0001:00049833       ?ComputeSafePointCommitVersion@SchedulerBase@details@Concurrency@@AAEKXZ 0044a833 f   libconcrt:SchedulerBase.obj
 0001:000498c6       ?CopyFrom@QuickBitSet@details@Concurrency@@IAEXABV123@@Z 0044a8c6 f i libconcrt:SchedulerBase.obj
 0001:0004996b       ?CreateContextFromDefaultScheduler@SchedulerBase@details@Concurrency@@SAPAVContextBase@23@XZ 0044a96b f   libconcrt:SchedulerBase.obj
 0001:00049997       ?CreateScheduleGroup@SchedulerBase@details@Concurrency@@UAEPAVScheduleGroup@3@AAVlocation@3@@Z 0044a997 f i libconcrt:SchedulerBase.obj
 0001:000499a0       ?CreateScheduleGroup@SchedulerBase@details@Concurrency@@UAEPAVScheduleGroup@3@XZ 0044a9a0 f i libconcrt:SchedulerBase.obj
 0001:000499bf       ?CreateWithoutInitializing@SchedulerBase@details@Concurrency@@SAPAV123@ABVSchedulerPolicy@3@@Z 0044a9bf f   libconcrt:SchedulerBase.obj
 0001:000499e3       ?CurrentScheduler@SchedulerBase@details@Concurrency@@SAPAV123@XZ 0044a9e3 f   libconcrt:SchedulerBase.obj
 0001:000499ef       ?DecrementInternalContextCount@SchedulerBase@details@Concurrency@@QAEXXZ 0044a9ef f   libconcrt:SchedulerBase.obj
 0001:00049a08       ?DeferredGetInternalContext@SchedulerBase@details@Concurrency@@QAEXXZ 0044aa08 f   libconcrt:SchedulerBase.obj
 0001:00049a21       ?Dequeue@?$SQueue@VInternalContextBase@details@Concurrency@@@details@Concurrency@@QAEPAVInternalContextBase@23@XZ 0044aa21 f i libconcrt:SchedulerBase.obj
 0001:00049a3e       ?Dequeue@?$SQueue@VRealizedChore@details@Concurrency@@@details@Concurrency@@QAEPAVRealizedChore@23@XZ 0044aa3e f i libconcrt:ScheduleGroupBase.obj
 0001:00049a3e       ?Dequeue@?$SQueue@VSafePointInvocation@details@Concurrency@@@details@Concurrency@@QAEPAVSafePointInvocation@23@XZ 0044aa3e f i libconcrt:SchedulerBase.obj
 0001:00049a58       ?Dequeue@?$SafeSQueue@VInternalContextBase@details@Concurrency@@V_HyperNonReentrantLock@23@@details@Concurrency@@QAEPAVInternalContextBase@23@XZ 0044aa58 f i libconcrt:SchedulerBase.obj
 0001:00049a94       ?DestroySchedulerEventHandlers@SchedulerBase@details@Concurrency@@MAEXXZ 0044aa94 f   libconcrt:SchedulerBase.obj
 0001:00049aab       ?DetachExternalContext@SchedulerBase@details@Concurrency@@AAEXPAVExternalContextBase@23@_N@Z 0044aaab f   libconcrt:SchedulerBase.obj
 0001:00049aed       ?FastCurrentContext@SchedulerBase@details@Concurrency@@SAPAVContextBase@23@XZ 0044aaed f   libconcrt:SchedulerBase.obj
 0001:00049afa       ?FastCurrentScheduler@SchedulerBase@details@Concurrency@@SAPAV123@XZ 0044aafa f   libconcrt:SchedulerBase.obj
 0001:00049b14       ?Fill@QuickBitSet@details@Concurrency@@QAEXXZ 0044ab14 f i libconcrt:SchedulerBase.obj
 0001:00049b78       ?Finalize@SchedulerBase@details@Concurrency@@AAEXXZ 0044ab78 f   libconcrt:SchedulerBase.obj
 0001:00049ca2       ?FindCurrentNode@SchedulerBase@details@Concurrency@@QAEPAVSchedulingNode@23@XZ 0044aca2 f   libconcrt:SchedulerBase.obj
 0001:00049ce3       ?FindNodeByLocation@SchedulerBase@details@Concurrency@@QAEPAVSchedulingNode@23@PAVlocation@3@@Z 0044ace3 f   libconcrt:SchedulerBase.obj
 0001:00049d3c       ?FindScheduleGroupSegment@SchedulingRing@details@Concurrency@@AAEPAVScheduleGroupSegmentBase@23@HHPAHPAV?$ListArray@VScheduleGroupSegmentBase@details@Concurrency@@@23@@Z 0044ad3c f i libconcrt:SchedulerBase.obj
 0001:00049d67       ?FindVirtualProcessor@SchedulingNode@details@Concurrency@@QAEPAVVirtualProcessor@23@HHPAH@Z 0044ad67 f i libconcrt:SchedulerBase.obj
 0001:00049d96       ?FoundAvailableVirtualProcessor@SchedulerBase@details@Concurrency@@QAE_NAAVClaimTicket@VirtualProcessor@23@Vlocation@3@K@Z 0044ad96 f   libconcrt:SchedulerBase.obj
 0001:00049ea3       ?FoundBlockedContexts@SchedulerBase@details@Concurrency@@AAE_NXZ 0044aea3 f   libconcrt:SchedulerBase.obj
 0001:00049ecf       ?FoundUnstartedChores@SchedulerBase@details@Concurrency@@AAE_NXZ 0044aecf f   libconcrt:SchedulerBase.obj
 0001:00049fa7       ?GetAnonymousScheduleGroupSegment@SchedulerBase@details@Concurrency@@QAEPAVScheduleGroupSegmentBase@23@XZ 0044afa7 f   libconcrt:SchedulerBase.obj
 0001:00049fb0       ?GetBitSet@SchedulerBase@details@Concurrency@@QAE?AVQuickBitSet@23@PBVlocation@3@@Z 0044afb0 f   libconcrt:SchedulerBase.obj
 0001:0004a066       ?GetDefaultScheduler@SchedulerBase@details@Concurrency@@CAPAV123@XZ 0044b066 f   libconcrt:SchedulerBase.obj
 0001:0004a106       ?GetExternalContext@SchedulerBase@details@Concurrency@@AAEPAVExternalContextBase@23@_N@Z 0044b106 f   libconcrt:SchedulerBase.obj
 0001:0004a166       ?GetInternalContext@SchedulerBase@details@Concurrency@@QAEPAVInternalContextBase@23@_N@Z 0044b166 f   libconcrt:SchedulerBase.obj
 0001:0004a29a       ?GetNewContextId@SchedulerBase@details@Concurrency@@QAEIXZ 0044b29a f   libconcrt:SchedulerBase.obj
 0001:0004a2a7       ?GetNewScheduleGroupId@SchedulerBase@details@Concurrency@@QAEIXZ 0044b2a7 f   libconcrt:SchedulerBase.obj
 0001:0004a2b4       ?GetNewWorkQueueId@SchedulerBase@details@Concurrency@@SAIXZ 0044b2b4 f   libconcrt:SchedulerBase.obj
 0001:0004a2c1       ?GetNextPriorityObject@SchedulerBase@details@Concurrency@@QAEPAUBoostedObject@23@XZ 0044b2c1 f   libconcrt:SchedulerBase.obj
 0001:0004a2f6       ?GetNextScheduleGroupSegment@SchedulingRing@details@Concurrency@@AAEPAVScheduleGroupSegmentBase@23@PAHHPAV?$ListArray@VScheduleGroupSegmentBase@details@Concurrency@@@23@@Z 0044b2f6 f i libconcrt:SchedulerBase.obj
 0001:0004a332       ?GetNextSchedulingRing@SchedulerBase@details@Concurrency@@QAEPAVSchedulingRing@23@PBV423@PAV423@@Z 0044b332 f   libconcrt:SchedulerBase.obj
 0001:0004a357       ?GetNextSchedulingRing@SchedulerBase@details@Concurrency@@QAEPAVSchedulingRing@23@XZ 0044b357 f   libconcrt:SchedulerBase.obj
 0001:0004a378       ?GetNextValidSchedulingRingIndex@SchedulerBase@details@Concurrency@@AAEHH@Z 0044b378 f   libconcrt:SchedulerBase.obj
 0001:0004a39a       ?GetNextVirtualProcessor@SchedulingNode@details@Concurrency@@QAEPAVVirtualProcessor@23@PAHH@Z 0044b39a f i libconcrt:SchedulerBase.obj
 0001:0004a3cf       ?GetAvailableNodeCount@ResourceManager@details@Concurrency@@UBEIXZ 0044b3cf f i libconcrt:ResourceManager.obj
 0001:0004a3cf       ?GetNumberOfVirtualProcessors@SchedulerBase@details@Concurrency@@UBEIXZ 0044b3cf f i libconcrt:SchedulerBase.obj
 0001:0004a3d3       ?GetPolicy@SchedulerBase@details@Concurrency@@UBE?AVSchedulerPolicy@3@XZ 0044b3d3 f   libconcrt:SchedulerBase.obj
 0001:0004a3ea       ?GetRealizedChore@SchedulerBase@details@Concurrency@@QAEPAVRealizedChore@23@P6AXPAX@Z0@Z 0044b3ea f   libconcrt:SchedulerBase.obj
 0001:0004a44a       ?GetReservedContext@SchedulerBase@details@Concurrency@@QAEPAVInternalContextBase@23@XZ 0044b44a f i libconcrt:SchedulerBase.obj
 0001:0004a461       ?GetRunnableContext@CacheLocalScheduleGroupSegment@details@Concurrency@@EAEPAVInternalContextBase@23@XZ 0044b461 f i libconcrt:SchedulerBase.obj
 0001:0004a461       ?GetRunnableContext@FairScheduleGroupSegment@details@Concurrency@@EAEPAVInternalContextBase@23@XZ 0044b461 f i libconcrt:SchedulerBase.obj
 0001:0004a474       ?GetSubAllocator@SchedulerBase@details@Concurrency@@SAPAVSubAllocator@23@_N@Z 0044b474 f   libconcrt:SchedulerBase.obj
 0001:0004a4d4       ?GetValidSchedulingRingIndex@SchedulerBase@details@Concurrency@@AAEHH@Z 0044b4d4 f   libconcrt:SchedulerBase.obj
 0001:0004a4f7       ?Grow@QuickBitSet@details@Concurrency@@QAEXI@Z 0044b4f7 f i libconcrt:SchedulerBase.obj
 0001:0004a5c6       ?Grow@ReferenceCountedQuickBitSet@details@Concurrency@@QAEXI@Z 0044b5c6 f i libconcrt:SchedulerBase.obj
 0001:0004a641       ?HasCompletedShutdown@SchedulerBase@details@Concurrency@@QAE_NXZ 0044b641 f   libconcrt:SchedulerBase.obj
 0001:0004a654       ?Id@SchedulerBase@details@Concurrency@@UBEIXZ 0044b654 f i libconcrt:SchedulerBase.obj
 0001:0004a65b       ?Initialize@SchedulerBase@details@Concurrency@@AAEXXZ 0044b65b f   libconcrt:SchedulerBase.obj
 0001:0004aaf1       ?InitializeSchedulerEventHandlers@SchedulerBase@details@Concurrency@@MAEXXZ 0044baf1 f   libconcrt:SchedulerBase.obj
 0001:0004aaf9       ?InternalCreateScheduleGroup@SchedulerBase@details@Concurrency@@AAEPAVScheduleGroup@3@PAVlocation@3@@Z 0044baf9 f   libconcrt:SchedulerBase.obj
 0001:0004abca       ?InternalRelease@ScheduleGroupBase@details@Concurrency@@IAEJXZ 0044bbca f i libconcrt:SchedulerBase.obj
 0001:0004ac04       ?Intersects@QuickBitSet@details@Concurrency@@QBE_NABV123@@Z 0044bc04 f i libconcrt:SchedulerBase.obj
 0001:0004ac40       ?InvokeAtNextSafePoint@SafePointInvocation@details@Concurrency@@QAEXP6AXPAX@Z0PAVSchedulerBase@23@@Z 0044bc40 f   libconcrt:SchedulerBase.obj
 0001:0004ac7c       ?InvokeOnSafePoint@SchedulerBase@details@Concurrency@@AAEXPAVSafePointInvocation@23@@Z 0044bc7c f   libconcrt:SchedulerBase.obj
 0001:0004acc3       ?IsActive@ExternalStatistics@details@Concurrency@@QAE_NXZ 0044bcc3 f i libconcrt:SchedulerBase.obj
 0001:0004acdf       ?IsAvailableLocation@SchedulerBase@details@Concurrency@@UBE_NABVlocation@3@@Z 0044bcdf f   libconcrt:SchedulerBase.obj
 0001:0004ad13       ?MailChore@FairScheduleGroup@details@Concurrency@@UAE?AVSlot@?$Mailbox@V_UnrealizedChore@details@Concurrency@@@23@PAV_UnrealizedChore@23@PAVlocation@3@PAPAVScheduleGroupSegmentBase@23@@Z 0044bd13 f i libconcrt:SchedulerBase.obj
 0001:0004ad2a       ?MarkSafePoint@SchedulerBase@details@Concurrency@@QAE_NPAVSafePointMarker@23@@Z 0044bd2a f   libconcrt:SchedulerBase.obj
 0001:0004ad4c       ?NotifyThrottledContext@SchedulerBase@details@Concurrency@@AAE_NPAVInternalContextBase@23@@Z 0044bd4c f   libconcrt:SchedulerBase.obj
 0001:0004add7       ?PerformServiceScan@SchedulerBase@details@Concurrency@@AAEX_K@Z 0044bdd7 f   libconcrt:SchedulerBase.obj
 0001:0004afa0       ?PhaseOneShutdown@SchedulerBase@details@Concurrency@@AAEXXZ 0044bfa0 f   libconcrt:SchedulerBase.obj
 0001:0004b016       ?PhaseTwoShutdown@SchedulerBase@details@Concurrency@@AAEXXZ 0044c016 f   libconcrt:SchedulerBase.obj
 0001:0004b0b3       ?PublishNewDataVersion@SchedulerBase@details@Concurrency@@AAEKXZ 0044c0b3 f i libconcrt:SchedulerBase.obj
 0001:0004b0cb       ?Push@?$LockFreePushStack@VContextNode@SchedulerBase@details@Concurrency@@@details@Concurrency@@QAEXPAVContextNode@SchedulerBase@23@@Z 0044c0cb f i libconcrt:SchedulerBase.obj
 0001:0004b0e9       ?PushRunnableToInactive@SchedulerBase@details@Concurrency@@UAE_NPAVInternalContextBase@23@Vlocation@3@@Z 0044c0e9 f   libconcrt:SchedulerBase.obj
 0001:0004b159       ?Reallocate@QuickBitSet@details@Concurrency@@IAEXI@Z 0044c159 f i libconcrt:SchedulerBase.obj
 0001:0004b18d       ?Reference@ScheduleGroupBase@details@Concurrency@@UAEIXZ 0044c18d f i libconcrt:SchedulerBase.obj
 0001:0004b19d       ?Reference@SchedulerBase@details@Concurrency@@UAEIXZ 0044c19d f   libconcrt:SchedulerBase.obj
 0001:0004b20d       ?ReferenceForAttach@SchedulerBase@details@Concurrency@@IAEXXZ 0044c20d f   libconcrt:SchedulerBase.obj
 0001:0004b22c       ?RegisterShutdownEvent@SchedulerBase@details@Concurrency@@UAEXPAX@Z 0044c22c f   libconcrt:SchedulerBase.obj
 0001:0004b2d3       ?Release@ScheduleGroupBase@details@Concurrency@@UAEIXZ 0044c2d3 f i libconcrt:SchedulerBase.obj
 0001:0004b2d8       ?Release@SchedulerBase@details@Concurrency@@UAEIXZ 0044c2d8 f   libconcrt:SchedulerBase.obj
 0001:0004b2f0       ?ReleaseExternalContext@SchedulerBase@details@Concurrency@@AAEXPAVExternalContextBase@23@@Z 0044c2f0 f   libconcrt:SchedulerBase.obj
 0001:0004b332       ?ReleaseForDetach@SchedulerBase@details@Concurrency@@IAEXXZ 0044c332 f   libconcrt:SchedulerBase.obj
 0001:0004b351       ?ReleaseInternalContext@SchedulerBase@details@Concurrency@@QAEXPAVInternalContextBase@23@_N@Z 0044c351 f   libconcrt:SchedulerBase.obj
 0001:0004b39b       ?ReleaseRealizedChore@SchedulerBase@details@Concurrency@@QAEXPAVRealizedChore@23@@Z 0044c39b f   libconcrt:SchedulerBase.obj
 0001:0004b3eb       ?ReleaseReservedContexts@SchedulerBase@details@Concurrency@@QAEXXZ 0044c3eb f   libconcrt:SchedulerBase.obj
 0001:0004b455       ?ReleaseSuspendedVirtualProcessors@SchedulerBase@details@Concurrency@@AAEXJ@Z 0044c455 f   libconcrt:SchedulerBase.obj
 0001:0004b473       ?Remove@?$List@UBoostedObject@details@Concurrency@@VNoCount@CollectionTypes@23@@details@Concurrency@@QAEXPAUBoostedObject@23@@Z 0044c473 f i libconcrt:SchedulerBase.obj
 0001:0004b4a5       ?Remove@?$ListArray@VExternalStatistics@details@Concurrency@@@details@Concurrency@@QAE_NPAVExternalStatistics@23@H_N@Z 0044c4a5 f i libconcrt:SchedulerBase.obj
 0001:0004b59e       ?Remove@?$ListArray@VScheduleGroupBase@details@Concurrency@@@details@Concurrency@@QAE_NPAVScheduleGroupBase@23@H_N@Z 0044c59e f i libconcrt:SchedulerBase.obj
 0001:0004b697       ?RemoveHead@?$List@UBoostedObject@details@Concurrency@@VNoCount@CollectionTypes@23@@details@Concurrency@@QAEPAUBoostedObject@23@XZ 0044c697 f i libconcrt:SchedulerBase.obj
 0001:0004b6c2       ?RemoveHead@?$List@VWaitNode@SchedulerBase@details@Concurrency@@VNoCount@CollectionTypes@34@@details@Concurrency@@QAEPAVWaitNode@SchedulerBase@23@XZ 0044c6c2 f i libconcrt:SchedulerBase.obj
 0001:0004b6e9       ?RemoveHead@?$SafeRWList@VWaitNode@SchedulerBase@details@Concurrency@@VNoCount@CollectionTypes@34@V_ReaderWriterLock@34@@details@Concurrency@@QAEPAVWaitNode@SchedulerBase@23@XZ 0044c6e9 f i libconcrt:SchedulerBase.obj
 0001:0004b725       ?RemovePrioritizedObject@SchedulerBase@details@Concurrency@@QAEXPAUBoostedObject@23@@Z 0044c725 f   libconcrt:SchedulerBase.obj
 0001:0004b764       ?RemoveScheduleGroup@SchedulerBase@details@Concurrency@@QAEXPAVScheduleGroupBase@23@@Z 0044c764 f   libconcrt:SchedulerBase.obj
 0001:0004b77c       ?RemoveSegments@FairScheduleGroup@details@Concurrency@@MAEXXZ 0044c77c f i libconcrt:SchedulerBase.obj
 0001:0004b78d       ?RemoveVirtualProcessors@SchedulerBase@details@Concurrency@@IAEXPAPAUIVirtualProcessorRoot@3@I@Z 0044c78d f   libconcrt:SchedulerBase.obj
 0001:0004b884       ?Resurrect@SchedulerBase@details@Concurrency@@AAEXXZ 0044c884 f   libconcrt:SchedulerBase.obj
 0001:0004b8cb       ?ReturnSubAllocator@SchedulerBase@details@Concurrency@@SAXPAVSubAllocator@23@@Z 0044c8cb f   libconcrt:SchedulerBase.obj
 0001:0004b90c       ?SafeFastCurrentContext@SchedulerBase@details@Concurrency@@SAPAVContextBase@23@XZ 0044c90c f   libconcrt:SchedulerBase.obj
 0001:0004b928       ?SafeFastCurrentScheduler@SchedulerBase@details@Concurrency@@SAPAV123@XZ 0044c928 f   libconcrt:SchedulerBase.obj
 0001:0004b93b       ?SafeReference@SchedulerBase@details@Concurrency@@AAE_NXZ 0044c93b f   libconcrt:SchedulerBase.obj
 0001:0004b95d       ?ScheduleTask@SchedulerBase@details@Concurrency@@UAEXP6AXPAX@Z0@Z 0044c95d f   libconcrt:SchedulerBase.obj
 0001:0004b9ae       ?ScheduleTask@SchedulerBase@details@Concurrency@@UAEXP6AXPAX@Z0AAVlocation@3@@Z 0044c9ae f   libconcrt:SchedulerBase.obj
 0001:0004b9eb       ?SetNextSchedulingRing@SchedulerBase@details@Concurrency@@QAEXPAVSchedulingRing@23@@Z 0044c9eb f   libconcrt:SchedulerBase.obj
 0001:0004ba10       ?SpinUntilBitsReset@details@Concurrency@@YAJPCJJ@Z 0044ca10 f i libconcrt:SchedulerBase.obj
 0001:0004ba48       ?SpinUntilBitsSet@details@Concurrency@@YAJPCJJ@Z 0044ca48 f i libconcrt:SchedulerBase.obj
 0001:0004ba89       ?StartupNewVirtualProcessor@SchedulerBase@details@Concurrency@@UAEXPAVScheduleGroupSegmentBase@23@Vlocation@3@@Z 0044ca89 f i libconcrt:SchedulerBase.obj
 0001:0004baaf       ?StartupVirtualProcessor@SchedulerBase@details@Concurrency@@QAE_NPAVScheduleGroupSegmentBase@23@Vlocation@3@K@Z 0044caaf f   libconcrt:SchedulerBase.obj
 0001:0004bb07       ?StaticDestruction@SchedulerBase@details@Concurrency@@CAXXZ 0044cb07 f   libconcrt:SchedulerBase.obj
 0001:0004bb66       ?Statistics@SchedulerBase@details@Concurrency@@IAEXPAI00@Z 0044cb66 f   libconcrt:SchedulerBase.obj
 0001:0004bcac       ?SweepSchedulerForFinalize@SchedulerBase@details@Concurrency@@AAEXXZ 0044ccac f   libconcrt:SchedulerBase.obj
 0001:0004bd48       ?ThrottlerDispatch@SchedulerBase@details@Concurrency@@AAEXXZ 0044cd48 f   libconcrt:SchedulerBase.obj
 0001:0004be61       ?ThrottlerDispatchBridge@SchedulerBase@details@Concurrency@@CGXPAU_TP_CALLBACK_INSTANCE@@PAXPAU_TP_TIMER@@@Z 0044ce61 f i libconcrt:SchedulerBase.obj
 0001:0004be70       ?ThrottlerTrampoline@SchedulerBase@details@Concurrency@@CGXPAXE@Z 0044ce70 f   libconcrt:SchedulerBase.obj
 0001:0004beab       ?ThrottlingTime@SchedulerBase@details@Concurrency@@QAEKK@Z 0044ceab f   libconcrt:SchedulerBase.obj
 0001:0004bf42       ?ThrowSchedulerEvent@SchedulerBase@details@Concurrency@@CAXW4ConcRT_EventType@3@EI@Z 0044cf42 f   libconcrt:SchedulerBase.obj
 0001:0004bfad       ?TraceSchedulerEvent@SchedulerBase@details@Concurrency@@AAEXW4ConcRT_EventType@3@EI@Z 0044cfad f i libconcrt:SchedulerBase.obj
 0001:0004bfd7       ?TriggerCommitSafePoints@SchedulerBase@details@Concurrency@@QAEXPAVSafePointMarker@23@@Z 0044cfd7 f   libconcrt:SchedulerBase.obj
 0001:0004c00c       ?TypeOfWorkPending@SchedulerBase@details@Concurrency@@MAE?AW4PendingWorkType@123@XZ 0044d00c f   libconcrt:SchedulerBase.obj
 0001:0004c03a       ?UpdateCommitVersion@SchedulerBase@details@Concurrency@@AAEKK@Z 0044d03a f   libconcrt:SchedulerBase.obj
 0001:0004c082       ?UpdatePendingVersion@SchedulerBase@details@Concurrency@@AAEKXZ 0044d082 f   libconcrt:SchedulerBase.obj
 0001:0004c0b4       ?VirtualProcessorActive@SchedulerBase@details@Concurrency@@QAE_N_N@Z 0044d0b4 f   libconcrt:SchedulerBase.obj
 0001:0004c165       ?NotifyResourcesExternallyBusy@ThreadScheduler@details@Concurrency@@UAEXPAPAUIVirtualProcessorRoot@3@I@Z 0044d165 f i libconcrt:ThreadScheduler.obj
 0001:0004c165       ?NotifyResourcesExternallyIdle@ThreadScheduler@details@Concurrency@@UAEXPAPAUIVirtualProcessorRoot@3@I@Z 0044d165 f i libconcrt:ThreadScheduler.obj
 0001:0004c165       ?VirtualProcessorActiveNotification@SchedulerBase@details@Concurrency@@MAEX_NJ@Z 0044d165 f i libconcrt:SchedulerBase.obj
 0001:0004c168       ?VirtualProcessorIdle@SchedulerBase@details@Concurrency@@QAEX_N@Z 0044d168 f   libconcrt:SchedulerBase.obj
 0001:0004c1c5       ??0context_self_unblock@Concurrency@@QAE@XZ 0044d1c5 f   libconcrt:Exceptions.obj
 0001:0004c1dc       ??0context_unblock_unbalanced@Concurrency@@QAE@XZ 0044d1dc f   libconcrt:Exceptions.obj
 0001:0004c1f3       ??0improper_lock@Concurrency@@QAE@PBD@Z 0044d1f3 f   libconcrt:Exceptions.obj
 0001:0004c20e       ??0improper_scheduler_attach@Concurrency@@QAE@XZ 0044d20e f   libconcrt:Exceptions.obj
 0001:0004c225       ??0improper_scheduler_reference@Concurrency@@QAE@XZ 0044d225 f   libconcrt:Exceptions.obj
 0001:0004c23c       ??0invalid_multiple_scheduling@Concurrency@@QAE@XZ 0044d23c f   libconcrt:Exceptions.obj
 0001:0004c253       ??0invalid_oversubscribe_operation@Concurrency@@QAE@XZ 0044d253 f   libconcrt:Exceptions.obj
 0001:0004c26a       ??0invalid_scheduler_policy_key@Concurrency@@QAE@PBD@Z 0044d26a f   libconcrt:Exceptions.obj
 0001:0004c285       ??0invalid_scheduler_policy_thread_specification@Concurrency@@QAE@XZ 0044d285 f   libconcrt:Exceptions.obj
 0001:0004c29c       ??0invalid_scheduler_policy_value@Concurrency@@QAE@PBD@Z 0044d29c f   libconcrt:Exceptions.obj
 0001:0004c2b7       ??0missing_wait@Concurrency@@QAE@XZ 0044d2b7 f   libconcrt:Exceptions.obj
 0001:0004c2ce       ??0nested_scheduler_missing_detach@Concurrency@@QAE@XZ 0044d2ce f   libconcrt:Exceptions.obj
 0001:0004c2e5       ??0scheduler_resource_allocation_error@Concurrency@@QAE@J@Z 0044d2e5 f   libconcrt:Exceptions.obj
 0001:0004c308       ??0scheduler_worker_creation_error@Concurrency@@QAE@J@Z 0044d308 f   libconcrt:Exceptions.obj
 0001:0004c323       ??0HardwareAffinity@details@Concurrency@@QAE@PAX@Z 0044d323 f   libconcrt:ResourceManager.obj
 0001:0004c344       ??0ResourceManager@details@Concurrency@@AAE@XZ 0044d344 f   libconcrt:ResourceManager.obj
 0001:0004c3e1       ??0SchedulerCore@details@Concurrency@@QAE@XZ 0044d3e1 f i libconcrt:ResourceManager.obj
 0001:0004c408       ??0invalid_operation@Concurrency@@QAE@ABV01@@Z 0044d408 f i libconcrt:ResourceManager.obj
 0001:0004c423       ??0invalid_operation@Concurrency@@QAE@XZ 0044d423 f i libconcrt:ResourceManager.obj
 0001:0004c43a       ??1GlobalNode@details@Concurrency@@QAE@XZ 0044d43a f i libconcrt:ResourceManager.obj
 0001:0004c447       ??1ResourceManager@details@Concurrency@@AAE@XZ 0044d447 f   libconcrt:ResourceManager.obj
 0001:0004c522       ??1_Scoped_lock@_NonReentrantBlockingLock@details@Concurrency@@QAE@XZ 0044d522 f i libconcrt:ResourceManager.obj
 0001:0004c522       ??1_Scoped_lock@_ReentrantBlockingLock@details@Concurrency@@QAE@XZ 0044d522 f i libconcrt:SchedulerProxy.obj
 0001:0004c55d       ??_EGlobalNode@details@Concurrency@@QAEPAXI@Z 0044d55d f i libconcrt:ResourceManager.obj
 0001:0004c5ec       ??_GAffinityRestriction@ResourceManager@details@Concurrency@@QAEPAXI@Z 0044d5ec f i libconcrt:ResourceManager.obj
 0001:0004c615       ?AddTail@?$List@VSchedulerProxy@details@Concurrency@@VCount@CollectionTypes@23@@details@Concurrency@@QAEXPAVSchedulerProxy@23@@Z 0044d615 f i libconcrt:ResourceManager.obj
 0001:0004c64e       ?AdjustDynamicAllocation@ResourceManager@details@Concurrency@@AAEIIII@Z 0044d64e f   libconcrt:ResourceManager.obj
 0001:0004c71f       ?ApplyAffinityLimits@AffinityRestriction@ResourceManager@details@Concurrency@@QAEXPAU_GROUP_AFFINITY@@@Z 0044d71f f i libconcrt:ResourceManager.obj
 0001:0004c745       ?ApplyAffinityRestrictions@ResourceManager@details@Concurrency@@CAXPAU_GROUP_AFFINITY@@@Z 0044d745 f   libconcrt:ResourceManager.obj
 0001:0004c76c       ?ApplyTo@HardwareAffinity@details@Concurrency@@QAEXPAX@Z 0044d76c f   libconcrt:ResourceManager.obj
 0001:0004c77e       ?CaptureProcessAffinity@ResourceManager@details@Concurrency@@CAXXZ 0044d77e f   libconcrt:ResourceManager.obj
 0001:0004c84e       ?CleanupTopologyInformation@ResourceManager@details@Concurrency@@CAXXZ 0044d84e f   libconcrt:ResourceManager.obj
 0001:0004c86f       ?CommitStolenCores@ResourceManager@details@Concurrency@@AAEXPAVSchedulerProxy@23@@Z 0044d86f f   libconcrt:ResourceManager.obj
 0001:0004c97f       ?ComputeDesiredHWThreadsWithExternalThread@SchedulerProxy@details@Concurrency@@QBEIXZ 0044d97f f i libconcrt:ResourceManager.obj
 0001:0004c99f       ?CreateAllocatedNodeData@ResourceManager@details@Concurrency@@QAEPAUSchedulerNode@23@XZ 0044d99f f   libconcrt:ResourceManager.obj
 0001:0004cad9       ?CreateDynamicRMWorker@ResourceManager@details@Concurrency@@AAEXXZ 0044dad9 f   libconcrt:ResourceManager.obj
 0001:0004cb3a       ?CreateNodeTopology@ResourceManager@details@Concurrency@@UAEXIPAIPAPAI0@Z 0044db3a f   libconcrt:ResourceManager.obj
 0001:0004cb3d       ?CreateResourceManager@Concurrency@@YAPAUIResourceManager@1@XZ 0044db3d f   libconcrt:ResourceManager.obj
 0001:0004cb42       ?CreateSchedulerProxy@ResourceManager@details@Concurrency@@AAEPAVSchedulerProxy@23@PAUIScheduler@3@@Z 0044db42 f   libconcrt:ResourceManager.obj
 0001:0004cba4       ?CreateSingleton@ResourceManager@details@Concurrency@@SAPAV123@XZ 0044dba4 f   libconcrt:ResourceManager.obj
 0001:0004cc37       ?CurrentSubscriptionLevel@ResourceManager@details@Concurrency@@QAEIII@Z 0044dc37 f   libconcrt:ResourceManager.obj
 0001:0004cca1       ?DestroyAllocatedNodeData@ResourceManager@details@Concurrency@@QAEXPAUSchedulerNode@23@@Z 0044dca1 f   libconcrt:ResourceManager.obj
 0001:0004ccdb       ?DetermineTopology@ResourceManager@details@Concurrency@@AAEXXZ 0044dcdb f   libconcrt:ResourceManager.obj
 0001:0004cde7       ?DiscardExistingSchedulerStatistics@ResourceManager@details@Concurrency@@AAEXXZ 0044dde7 f   libconcrt:ResourceManager.obj
 0001:0004ce50       ?DistributeCoresToSurvivingScheduler@ResourceManager@details@Concurrency@@AAE_NXZ 0044de50 f   libconcrt:ResourceManager.obj
 0001:0004d022       ?DistributeExclusiveCores@ResourceManager@details@Concurrency@@AAEXIIIII@Z 0044e022 f   libconcrt:ResourceManager.obj
 0001:0004d197       ?DistributeIdleCores@ResourceManager@details@Concurrency@@AAEXII@Z 0044e197 f   libconcrt:ResourceManager.obj
 0001:0004d343       ?DoCoreMigration@ResourceManager@details@Concurrency@@AAEXXZ 0044e343 f   libconcrt:ResourceManager.obj
 0001:0004d592       ?DynamicAssignCores@ResourceManager@details@Concurrency@@AAEXPAVSchedulerProxy@23@II_N@Z 0044e592 f   libconcrt:ResourceManager.obj
 0001:0004d607       ?DynamicMigrateCores@ResourceManager@details@Concurrency@@AAEXPAUDynamicAllocationData@23@PAVSchedulerProxy@23@II@Z 0044e607 f   libconcrt:ResourceManager.obj
 0001:0004d763       ?DynamicRMThreadProc@ResourceManager@details@Concurrency@@CGKPAX@Z 0044e763 f   libconcrt:ResourceManager.obj
 0001:0004d77c       ?DynamicResourceManager@ResourceManager@details@Concurrency@@AAEXXZ 0044e77c f   libconcrt:ResourceManager.obj
 0001:0004d87d       ?FindBestFitExclusiveAllocation@ResourceManager@details@Concurrency@@AAEIAAI0PAUDynamicAllocationData@23@II@Z 0044e87d f   libconcrt:ResourceManager.obj
 0001:0004dbb4       ?FindBestFitIdleAllocation@ResourceManager@details@Concurrency@@AAEIIPAUDynamicAllocationData@23@I@Z 0044ebb4 f   libconcrt:ResourceManager.obj
 0001:0004dcd1       ?FindCoreForPartiallyFilledNode@ResourceManager@details@Concurrency@@AAE_NAAI0PAUDynamicAllocationData@23@I@Z 0044ecd1 f   libconcrt:ResourceManager.obj
 0001:0004ddc0       ?FindGroupAffinity@AffinityRestriction@ResourceManager@details@Concurrency@@QAEPAUHardwareAffinity@34@G@Z 0044edc0 f i libconcrt:ResourceManager.obj
 0001:0004ddf4       ?FlushStoreBuffers@ResourceManager@details@Concurrency@@QAEXXZ 0044edf4 f   libconcrt:ResourceManager.obj
 0001:0004ddfa       ?GetCoreCount@ResourceManager@details@Concurrency@@SAIXZ 0044edfa f   libconcrt:ResourceManager.obj
 0001:0004de48       ?GetCurrentNodeAndCore@ResourceManager@details@Concurrency@@QAEIPAI@Z 0044ee48 f   libconcrt:ResourceManager.obj
 0001:0004debb       ?GetExecutionResourceCount@TopologyObject@GlobalNode@details@Concurrency@@UBEIXZ 0044eebb f i libconcrt:ResourceManager.obj
 0001:0004debb       ?GetId@TopologyObject@GlobalCore@details@Concurrency@@UBEIXZ 0044eebb f i libconcrt:ResourceManager.obj
 0001:0004dec2       ?GetFirstExecutionResource@TopologyObject@GlobalNode@details@Concurrency@@UBEPAUITopologyExecutionResource@4@XZ 0044eec2 f i libconcrt:ResourceManager.obj
 0001:0004decc       ?GetFirstNode@ResourceManager@details@Concurrency@@UBEPAUITopologyNode@3@XZ 0044eecc f i libconcrt:ResourceManager.obj
 0001:0004ded3       ?GetId@TopologyObject@GlobalNode@details@Concurrency@@UBEIXZ 0044eed3 f i libconcrt:ResourceManager.obj
 0001:0004deda       ?GetNext@TopologyObject@GlobalCore@details@Concurrency@@UBEPAUITopologyExecutionResource@4@XZ 0044eeda f   libconcrt:ResourceManager.obj
 0001:0004def1       ?GetNext@TopologyObject@GlobalNode@details@Concurrency@@UBEPAUITopologyNode@4@XZ 0044eef1 f   libconcrt:ResourceManager.obj
 0001:0004df08       ?GetNextGlobalCore@GlobalNode@details@Concurrency@@QAEPAUGlobalCore@23@PBU423@@Z 0044ef08 f i libconcrt:ResourceManager.obj
 0001:0004df2d       ?GetNextGlobalNode@ResourceManager@details@Concurrency@@QAEPAUGlobalNode@23@PBU423@@Z 0044ef2d f i libconcrt:ResourceManager.obj
 0001:0004df52       ?GetNodeCount@ResourceManager@details@Concurrency@@SAIXZ 0044ef52 f   libconcrt:ResourceManager.obj
 0001:0004dfa0       ?GetNumaNode@TopologyObject@GlobalNode@details@Concurrency@@UBEKXZ 0044efa0 f i libconcrt:ResourceManager.obj
 0001:0004dfa7       ?GetOSVersion@Concurrency@@YA?AW4OSVersion@IResourceManager@1@XZ 0044efa7 f   libconcrt:ResourceManager.obj
 0001:0004dfac       ?GetProcessorCount@Concurrency@@YAIXZ 0044efac f   libconcrt:ResourceManager.obj
 0001:0004dfb1       ?GetProcessorNodeCount@Concurrency@@YAIXZ 0044efb1 f   libconcrt:ResourceManager.obj
 0001:0004dfb6       ?GetSchedulerId@Concurrency@@YAIXZ 0044efb6 f   libconcrt:ResourceManager.obj
 0001:0004dfc3       ?GetTopologyInformation@ResourceManager@details@Concurrency@@CAXW4_LOGICAL_PROCESSOR_RELATIONSHIP@@@Z 0044efc3 f   libconcrt:ResourceManager.obj
 0001:0004dfdc       ?HandleBorrowedCores@ResourceManager@details@Concurrency@@AAEXPAVSchedulerProxy@23@PAUAllocationData@23@@Z 0044efdc f   libconcrt:ResourceManager.obj
 0001:0004e0f4       ?HandleSharedCores@ResourceManager@details@Concurrency@@AAEXPAVSchedulerProxy@23@PAUDynamicAllocationData@23@@Z 0044f0f4 f   libconcrt:ResourceManager.obj
 0001:0004e23e       ?IncreaseFullyLoadedSchedulerAllocations@ResourceManager@details@Concurrency@@AAEXXZ 0044f23e f   libconcrt:ResourceManager.obj
 0001:0004e283       ?Initialize@GlobalCore@details@Concurrency@@QAEXPAUGlobalNode@23@IE@Z 0044f283 f i libconcrt:ResourceManager.obj
 0001:0004e2c0       ?Initialize@GlobalNode@details@Concurrency@@QAEXPAVResourceManager@23@GGKII@Z 0044f2c0 f i libconcrt:ResourceManager.obj
 0001:0004e3ea       ?InitializeRMBuffers@ResourceManager@details@Concurrency@@AAEXXZ 0044f3ea f   libconcrt:ResourceManager.obj
 0001:0004e4a3       ?InitializeSystemInformation@ResourceManager@details@Concurrency@@CAX_N@Z 0044f4a3 f   libconcrt:ResourceManager.obj
 0001:0004e5e5       ?IsWindowsVersionOrGreater@@YA_NGGG@Z 0044f5e5 f i libconcrt:ResourceManager.obj
 0001:0004e692       ?PerformAllocation@ResourceManager@details@Concurrency@@QAEPAVExecutionResource@23@PAVSchedulerProxy@23@_N1@Z 0044f692 f   libconcrt:ResourceManager.obj
 0001:0004e832       ?PopulateCommonAllocationData@ResourceManager@details@Concurrency@@AAEXIPAVSchedulerProxy@23@PAUAllocationData@23@@Z 0044f832 f   libconcrt:ResourceManager.obj
 0001:0004e8fb       ?PopulateDynamicAllocationData@ResourceManager@details@Concurrency@@AAEXXZ 0044f8fb f   libconcrt:ResourceManager.obj
 0001:0004ea2b       ?PreProcessDynamicAllocationData@ResourceManager@details@Concurrency@@AAEXXZ 0044fa2b f   libconcrt:ResourceManager.obj
 0001:0004eb05       ?PreProcessStaticAllocationData@ResourceManager@details@Concurrency@@AAEXXZ 0044fb05 f   libconcrt:ResourceManager.obj
 0001:0004eb34       ?PrepareReceiversForCoreTransfer@ResourceManager@details@Concurrency@@AAEII@Z 0044fb34 f   libconcrt:ResourceManager.obj
 0001:0004ed5e       ?RedistributeCoresAmongAll@ResourceManager@details@Concurrency@@AAEIPAVSchedulerProxy@23@III@Z 0044fd5e f   libconcrt:ResourceManager.obj
 0001:0004f185       ?Reference@ResourceManager@details@Concurrency@@UAEIXZ 00450185 f   libconcrt:ResourceManager.obj
 0001:0004f18f       ?RegisterScheduler@ResourceManager@details@Concurrency@@UAEPAUISchedulerProxy@3@PAUIScheduler@3@I@Z 0045018f f   libconcrt:ResourceManager.obj
 0001:0004f1d3       ?Release@ResourceManager@details@Concurrency@@UAEIXZ 004501d3 f   libconcrt:ResourceManager.obj
 0001:0004f280       ?ReleaseCoresOnExistingSchedulers@ResourceManager@details@Concurrency@@AAEIPAVSchedulerProxy@23@II@Z 00450280 f   libconcrt:ResourceManager.obj
 0001:0004f2e2       ?ReleaseSchedulerResources@ResourceManager@details@Concurrency@@AAE_NPAVSchedulerProxy@23@0I@Z 004502e2 f   libconcrt:ResourceManager.obj
 0001:0004f3ed       ?Remove@?$List@VSchedulerProxy@details@Concurrency@@VCount@CollectionTypes@23@@details@Concurrency@@QAEXPAVSchedulerProxy@23@@Z 004503ed f i libconcrt:ResourceManager.obj
 0001:0004f423       ?RemoveExecutionResource@ResourceManager@details@Concurrency@@QAEXPAVExecutionResource@23@@Z 00450423 f   libconcrt:ResourceManager.obj
 0001:0004f4b6       ?RequestInitialVirtualProcessors@ResourceManager@details@Concurrency@@QAEPAUIExecutionResource@3@PAVSchedulerProxy@23@_N@Z 004504b6 f   libconcrt:ResourceManager.obj
 0001:0004f5d9       ?ReserveAtHigherUseCounts@ResourceManager@details@Concurrency@@AAEIPAVSchedulerProxy@23@I@Z 004505d9 f   libconcrt:ResourceManager.obj
 0001:0004f60d       ?ReserveCores@ResourceManager@details@Concurrency@@AAEIPAVSchedulerProxy@23@II@Z 0045060d f   libconcrt:ResourceManager.obj
 0001:0004f7ff       ?ResetGlobalAllocationData@ResourceManager@details@Concurrency@@AAEXXZ 004507ff f   libconcrt:ResourceManager.obj
 0001:0004f85c       ?RetrieveSystemVersionInformation@ResourceManager@details@Concurrency@@CAXXZ 0045085c f   libconcrt:ResourceManager.obj
 0001:0004f883       ?RoundUpScaledAllocations@ResourceManager@details@Concurrency@@CAXPAPAUAllocationData@23@II@Z 00450883 f   libconcrt:ResourceManager.obj
 0001:0004fa60       ?SafeReference@ResourceManager@details@Concurrency@@AAE_NXZ 00450a60 f   libconcrt:ResourceManager.obj
 0001:0004fa7f       ?SendResourceNotifications@ResourceManager@details@Concurrency@@QAEXPAVSchedulerProxy@23@@Z 00450a7f f   libconcrt:ResourceManager.obj
 0001:0004fc5b       ?SetupStaticAllocationData@ResourceManager@details@Concurrency@@AAEXPAVSchedulerProxy@23@_N@Z 00450c5b f   libconcrt:ResourceManager.obj
 0001:0004fd4d       ?Shutdown@ResourceManager@details@Concurrency@@QAEXPAVSchedulerProxy@23@@Z 00450d4d f   libconcrt:ResourceManager.obj
 0001:0004fe23       ?SubscribeCurrentThread@ResourceManager@details@Concurrency@@QAEPAVExecutionResource@23@PAVSchedulerProxy@23@@Z 00450e23 f   libconcrt:ResourceManager.obj
 0001:0004fe7a       ?ToggleRMIdleState@ResourceManager@details@Concurrency@@AAEXPAUSchedulerNode@23@PAUSchedulerCore@23@PAUGlobalNode@23@PAUGlobalCore@23@PAUAllocationData@23@@Z 00450e7a f   libconcrt:ResourceManager.obj
 0001:0004fee6       ?Version@ResourceManager@details@Concurrency@@SA?AW4OSVersion@IResourceManager@3@XZ 00450ee6 f   libconcrt:ResourceManager.obj
 0001:0004ff32       ??0exception_ptr@std@@QAE@ABV01@@Z 00450f32 f i libconcrt:TaskCollectionBase.obj
 0001:0004ff57       ??0exception_ptr@std@@QAE@XZ 00450f57 f i libconcrt:TaskCollectionBase.obj
 0001:0004ff72       ?_FinishCancelState@_TaskCollectionBase@details@Concurrency@@IAEXI@Z 00450f72 f   libconcrt:TaskCollectionBase.obj
 0001:0004ff98       ?_GetTokenState@_TaskCollectionBase@details@Concurrency@@QAEPAV_CancellationTokenState@23@PAPAV_CancellationTokenRegistration@23@@Z 00450f98 f   libconcrt:TaskCollectionBase.obj
 0001:0004ffc0       ?_MarkCancellation@_TaskCollectionBase@details@Concurrency@@IAE_NXZ 00450fc0 f   libconcrt:TaskCollectionBase.obj
 0001:0004ffe8       ?_RaisedCancel@_TaskCollectionBase@details@Concurrency@@IAEXXZ 00450fe8 f   libconcrt:TaskCollectionBase.obj
 0001:00050013       ?_RaisedException@_TaskCollectionBase@details@Concurrency@@IAEXXZ 00451013 f   libconcrt:TaskCollectionBase.obj
 0001:00050071       ?_RethrowException@_TaskCollectionBase@details@Concurrency@@IAEXXZ 00451071 f   libconcrt:TaskCollectionBase.obj
 0001:000500dd       ?_WillInterruptForPendingCancel@_TaskCollectionBase@details@Concurrency@@IAE_NXZ 004510dd f   libconcrt:TaskCollectionBase.obj
 0001:00050145       ?current_exception@std@@YA?AVexception_ptr@1@XZ 00451145 f i libconcrt:TaskCollectionBase.obj
 0001:0005015e       ?rethrow_exception@std@@YAXVexception_ptr@1@@Z 0045115e f i libconcrt:TaskCollectionBase.obj
 0001:0005017b       ??0MultiWaitBlock@details@Concurrency@@QAE@I_N0@Z 0045117b f i libconcrt:event.obj
 0001:000501ba       ??0MultiWaitBlockHolder@details@Concurrency@@QAE@_NI00@Z 004511ba f   libconcrt:event.obj
 0001:0005024a       ??0WaitAnyBlock@details@Concurrency@@QAE@I_N0@Z 0045124a f i libconcrt:event.obj
 0001:00050272       ??0WaitBlock@details@Concurrency@@QAE@XZ 00451272 f i libconcrt:event.obj
 0001:00050295       ??0event@Concurrency@@QAE@XZ 00451295 f   libconcrt:event.obj
 0001:000502b9       ??1?$_MallocaArrayHolder@PAVContext@Concurrency@@@details@Concurrency@@UAE@XZ 004512b9 f i libconcrt:event.obj
 0001:000502d9       ??1MultiWaitBlockHolder@details@Concurrency@@QAE@XZ 004512d9 f   libconcrt:event.obj
 0001:000502f4       ??1event@Concurrency@@QAE@XZ 004512f4 f   libconcrt:event.obj
 0001:0005037b       ??_E?$_MallocaArrayHolder@PAVContext@Concurrency@@@details@Concurrency@@UAEPAXI@Z 0045137b f i libconcrt:event.obj
 0001:0005037b       ??_G?$_MallocaArrayHolder@PAVContext@Concurrency@@@details@Concurrency@@UAEPAXI@Z 0045137b f i libconcrt:event.obj
 0001:0005039d       ?Destroy@EventWaitNode@details@Concurrency@@QAEXXZ 0045139d f i libconcrt:event.obj
 0001:000503b6       ?Destroy@SingleWaitBlock@details@Concurrency@@UAEXXZ 004513b6 f   libconcrt:event.obj
 0001:000503b6       ?Reset@SingleWaitBlock@details@Concurrency@@UAE_NXZ 004513b6 f   libconcrt:event.obj
 0001:000503b6       ?Reset@WaitAnyBlock@details@Concurrency@@UAE_NXZ 004513b6 f   libconcrt:event.obj
 0001:000503b6       ?SweepResetNode@SingleWaitBlock@details@Concurrency@@UAE_NXZ 004513b6 f   libconcrt:event.obj
 0001:000503b6       ?SweepResetNode@WaitAnyBlock@details@Concurrency@@UAE_NXZ 004513b6 f   libconcrt:event.obj
 0001:000503b7       ?Destroy@WaitAllBlock@details@Concurrency@@UAEXXZ 004513b7 f   libconcrt:event.obj
 0001:000503bc       ?DispatchEventTimer@MultiWaitBlock@details@Concurrency@@SGXPAU_TP_CALLBACK_INSTANCE@@PAXPAU_TP_TIMER@@@Z 004513bc f   libconcrt:event.obj
 0001:0005041d       ?NotifyCompletedNode@MultiWaitBlock@details@Concurrency@@QAEXXZ 0045141d f   libconcrt:event.obj
 0001:00050436       ?Reset@WaitAllBlock@details@Concurrency@@UAE_NXZ 00451436 f   libconcrt:event.obj
 0001:0005046b       ?Satisfy@EventWaitNode@details@Concurrency@@QAE_NPAPAVContext@3@@Z 0045146b f i libconcrt:event.obj
 0001:0005048d       ?Satisfy@SingleWaitBlock@details@Concurrency@@UAE_NPAPAVContext@3@PAVEventWaitNode@23@@Z 0045148d f   libconcrt:event.obj
 0001:000504ea       ?Satisfy@WaitAllBlock@details@Concurrency@@UAE_NPAPAVContext@3@PAVEventWaitNode@23@@Z 004514ea f   libconcrt:event.obj
 0001:00050534       ?Satisfy@WaitAnyBlock@details@Concurrency@@UAE_NPAPAVContext@3@PAVEventWaitNode@23@@Z 00451534 f   libconcrt:event.obj
 0001:0005057a       ?Set@StructuredEvent@details@Concurrency@@QAEXXZ 0045157a f   libconcrt:event.obj
 0001:000505be       ?SingleSatisfy@MultiWaitBlock@details@Concurrency@@MAEXPAPAVContext@3@PAVEventWaitNode@23@@Z 004515be f   libconcrt:event.obj
 0001:0005064e       ?Sweep@details@Concurrency@@YAPAVEventWaitNode@12@PAV312@_N@Z 0045164e f   libconcrt:event.obj
 0001:00050688       ?SweepResetNode@EventWaitNode@details@Concurrency@@QAE_NXZ 00451688 f i libconcrt:event.obj
 0001:000506a1       ?SweepResetNode@WaitAllBlock@details@Concurrency@@UAE_NXZ 004516a1 f   libconcrt:event.obj
 0001:000506d4       ?SweepWaitNode@EventWaitNode@details@Concurrency@@QAE_NXZ 004516d4 f i libconcrt:event.obj
 0001:000506ed       ?SweepWaitNode@WaitAllBlock@details@Concurrency@@UAE_NXZ 004516ed f   libconcrt:event.obj
 0001:00050730       ?SweepWaitNode@WaitAnyBlock@details@Concurrency@@UAE_NXZ 00451730 f   libconcrt:event.obj
 0001:00050766       ?Wait@StructuredEvent@details@Concurrency@@QAEXXZ 00451766 f   libconcrt:event.obj
 0001:000507d6       ?set@event@Concurrency@@QAEXXZ 004517d6 f   libconcrt:event.obj
 0001:00050922       ?wait@event@Concurrency@@QAEII@Z 00451922 f   libconcrt:event.obj
 0001:00050a14       ?wait_for_multiple@event@Concurrency@@SAIPAPAV12@I_NI@Z 00451a14 f   libconcrt:event.obj
 0001:00050c75       ??0?$StructuredWorkStealingQueue@VInternalContextBase@details@Concurrency@@V_HyperNonReentrantLock@23@@details@Concurrency@@QAE@PAV_HyperNonReentrantLock@12@@Z 00451c75 f i libconcrt:VirtualProcessor.obj
 0001:00050c75       ??0?$StructuredWorkStealingQueue@V_UnrealizedChore@details@Concurrency@@V_CriticalNonReentrantLock@23@@details@Concurrency@@QAE@PAV_CriticalNonReentrantLock@12@@Z 00451c75 f i libconcrt:WorkQueue.obj
 0001:00050ce9       ??0?$WorkStealingQueue@V_UnrealizedChore@details@Concurrency@@V_CriticalNonReentrantLock@23@@details@Concurrency@@QAE@PAV_CriticalNonReentrantLock@12@@Z 00451ce9 f i libconcrt:WorkQueue.obj
 0001:00050d58       ??0WorkQueue@details@Concurrency@@QAE@XZ 00451d58 f   libconcrt:WorkQueue.obj
 0001:00050dbd       ?DeferToAffineSearchers@Slot@?$Mailbox@VInternalContextBase@details@Concurrency@@@details@Concurrency@@QBE_NXZ 00451dbd f i libconcrt:SchedulingNode.obj
 0001:00050dbd       ?DeferToAffineSearchers@Slot@?$Mailbox@V_UnrealizedChore@details@Concurrency@@@details@Concurrency@@QBE_NXZ 00451dbd f i libconcrt:WorkQueue.obj
 0001:00050e0e       ?IsEmpty@WorkQueue@details@Concurrency@@QBE_NXZ 00451e0e f i libconcrt:WorkQueue.obj
 0001:00050e25       ?RedetachFromScheduleGroupAtSafePoint@WorkQueue@details@Concurrency@@QAEXPAVScheduleGroupSegmentBase@23@@Z 00451e25 f   libconcrt:WorkQueue.obj
 0001:00050e49       ?Reinitialize@WorkQueue@details@Concurrency@@AAEXXZ 00451e49 f   libconcrt:WorkQueue.obj
 0001:00050e83       ?RetireAtSafePoint@WorkQueue@details@Concurrency@@QAEXPAVScheduleGroupSegmentBase@23@@Z 00451e83 f   libconcrt:WorkQueue.obj
 0001:00050ea7       ?StaticRedetachFromScheduleGroup@WorkQueue@details@Concurrency@@CAXPAV123@@Z 00451ea7 f   libconcrt:WorkQueue.obj
 0001:00050eb8       ?StaticRetire@WorkQueue@details@Concurrency@@CAXPAV123@@Z 00451eb8 f   libconcrt:WorkQueue.obj
 0001:00050ec9       ?Steal@WorkQueue@details@Concurrency@@QAEPAV_UnrealizedChore@23@_N@Z 00451ec9 f   libconcrt:WorkQueue.obj
 0001:00050f0f       ?Sweep@?$WorkStealingQueue@V_UnrealizedChore@details@Concurrency@@V_CriticalNonReentrantLock@23@@details@Concurrency@@QAEXP6A_NPAV_UnrealizedChore@23@PAX@Z12@Z 00451f0f f i libconcrt:WorkQueue.obj
 0001:00050fdd       ?SweepUnstructured@WorkQueue@details@Concurrency@@QAEXP6A_NPAV_UnrealizedChore@23@PAX@Z12@Z 00451fdd f   libconcrt:WorkQueue.obj
 0001:00050fe9       ?TryToSteal@WorkQueue@details@Concurrency@@QAEPAV_UnrealizedChore@23@_NAA_N@Z 00451fe9 f   libconcrt:WorkQueue.obj
 0001:00051057       ?UnlockedSteal@?$StructuredWorkStealingQueue@VInternalContextBase@details@Concurrency@@V_HyperNonReentrantLock@23@@details@Concurrency@@QAEPAVInternalContextBase@23@_N@Z 00452057 f i libconcrt:SchedulingNode.obj
 0001:00051057       ?UnlockedSteal@?$StructuredWorkStealingQueue@V_UnrealizedChore@details@Concurrency@@V_CriticalNonReentrantLock@23@@details@Concurrency@@QAEPAV_UnrealizedChore@23@_N@Z 00452057 f i libconcrt:WorkQueue.obj
 0001:000510da       ?UnlockedSteal@?$WorkStealingQueue@V_UnrealizedChore@details@Concurrency@@V_CriticalNonReentrantLock@23@@details@Concurrency@@QAEPAV_UnrealizedChore@23@_N0@Z 004520da f i libconcrt:WorkQueue.obj
 0001:00051170       ?UnlockedSteal@WorkQueue@details@Concurrency@@AAEPAV_UnrealizedChore@23@_N@Z 00452170 f   libconcrt:WorkQueue.obj
 0001:0005122c       ??0?$Mailbox@V_UnrealizedChore@details@Concurrency@@@details@Concurrency@@QAE@PAVSchedulerBase@12@ABVQuickBitSet@12@_NI@Z 0045222c f i libconcrt:ScheduleGroupBase.obj
 0001:000512a6       ??0QuickBitSet@details@Concurrency@@QAE@ABV012@@Z 004522a6 f i libconcrt:ScheduleGroupBase.obj
 0001:000512c8       ??0ScheduleGroupBase@details@Concurrency@@QAE@PAVSchedulerBase@12@PAVlocation@2@@Z 004522c8 f   libconcrt:ScheduleGroupBase.obj
 0001:00051321       ??0ScheduleGroupSegmentBase@details@Concurrency@@IAE@PAVScheduleGroupBase@12@PAVSchedulingRing@12@PAVlocation@2@@Z 00452321 f   libconcrt:ScheduleGroupBase.obj
 0001:000513e8       ??0Segment@?$Mailbox@V_UnrealizedChore@details@Concurrency@@@details@Concurrency@@QAE@PAVSchedulerBase@23@ABVQuickBitSet@23@II@Z 004523e8 f i libconcrt:ScheduleGroupBase.obj
 0001:0005144c       ??1?$ListArray@U?$ListArrayInlineLink@VWorkQueue@details@Concurrency@@@details@Concurrency@@@details@Concurrency@@QAE@XZ 0045244c f i libconcrt:ScheduleGroupBase.obj
 0001:000514f2       ??1?$ListArray@VWorkQueue@details@Concurrency@@@details@Concurrency@@QAE@XZ 004524f2 f i libconcrt:ScheduleGroupBase.obj
 0001:0005156e       ??1?$Mailbox@V_UnrealizedChore@details@Concurrency@@@details@Concurrency@@QAE@XZ 0045256e f i libconcrt:ScheduleGroupBase.obj
 0001:000515d9       ??1ScheduleGroupSegmentBase@details@Concurrency@@UAE@XZ 004525d9 f   libconcrt:ScheduleGroupBase.obj
 0001:00051627       ??4QuickBitSet@details@Concurrency@@QAEAAV012@$$QAV012@@Z 00452627 f i libconcrt:ScheduleGroupBase.obj
 0001:00051657       ??_EScheduleGroupSegmentBase@details@Concurrency@@UAEPAXI@Z 00452657 f i libconcrt:ScheduleGroupBase.obj
 0001:00051657       ??_GScheduleGroupSegmentBase@details@Concurrency@@UAEPAXI@Z 00452657 f i libconcrt:ScheduleGroupBase.obj
 0001:0005167c       ?Add@?$ListArray@U?$ListArrayInlineLink@VWorkQueue@details@Concurrency@@@details@Concurrency@@@details@Concurrency@@QAEHPAU?$ListArrayInlineLink@VWorkQueue@details@Concurrency@@@23@@Z 0045267c f i libconcrt:ScheduleGroupBase.obj
 0001:0005167c       ?Add@?$ListArray@VExternalStatistics@details@Concurrency@@@details@Concurrency@@QAEHPAVExternalStatistics@23@@Z 0045267c f i libconcrt:ScheduleGroupBase.obj
 0001:000517f0       ?Add@?$ListArray@VScheduleGroupSegmentBase@details@Concurrency@@@details@Concurrency@@QAEHPAVScheduleGroupSegmentBase@23@@Z 004527f0 f i libconcrt:ScheduleGroupBase.obj
 0001:00051968       ?AddRunnableContext@ScheduleGroupSegmentBase@details@Concurrency@@IAEXPAVInternalContextBase@23@Vlocation@3@@Z 00452968 f   libconcrt:ScheduleGroupBase.obj
 0001:00051a4a       ?CheckForDeletion@?$ListArray@U?$ListArrayInlineLink@VWorkQueue@details@Concurrency@@@details@Concurrency@@@details@Concurrency@@AAEXXZ 00452a4a f i libconcrt:ScheduleGroupBase.obj
 0001:00051a7f       ?CheckForDeletionBridge@?$ListArray@U?$ListArrayInlineLink@VWorkQueue@details@Concurrency@@@details@Concurrency@@@details@Concurrency@@CAXPAV123@@Z 00452a7f f i libconcrt:ScheduleGroupBase.obj
 0001:00051a8b       ?ClearQuickCacheSlotIf@SchedulerBase@details@Concurrency@@QAEXIPAVScheduleGroupSegmentBase@23@@Z 00452a8b f i libconcrt:ScheduleGroupBase.obj
 0001:00051ab0       ?CreateSegment@ScheduleGroupBase@details@Concurrency@@IAEPAVScheduleGroupSegmentBase@23@PAVlocation@3@PAVSchedulingRing@23@@Z 00452ab0 f   libconcrt:ScheduleGroupBase.obj
 0001:00051b51       ?DemandInitialize@?$Mailbox@V_UnrealizedChore@details@Concurrency@@@details@Concurrency@@AAEXXZ 00452b51 f i libconcrt:ScheduleGroupBase.obj
 0001:00051bd1       ?Dequeue@?$Mailbox@V_UnrealizedChore@details@Concurrency@@@details@Concurrency@@QAE_NPAPAV_UnrealizedChore@23@@Z 00452bd1 f i libconcrt:ScheduleGroupBase.obj
 0001:00051ca3       ?Dequeue@?$SafeSQueue@VRealizedChore@details@Concurrency@@V_HyperNonReentrantLock@23@@details@Concurrency@@QAEPAVRealizedChore@23@XZ 00452ca3 f i libconcrt:ScheduleGroupBase.obj
 0001:00051cdf       ?DetachActiveWorkQueue@ScheduleGroupSegmentBase@details@Concurrency@@IAEXPAVWorkQueue@23@@Z 00452cdf f   libconcrt:ScheduleGroupBase.obj
 0001:00051d1e       ?Enqueue@?$SafeSQueue@VRealizedChore@details@Concurrency@@V_HyperNonReentrantLock@23@@details@Concurrency@@QAEXPAVRealizedChore@23@@Z 00452d1e f i libconcrt:ScheduleGroupBase.obj
 0001:00051d64       ?FindSegment@ScheduleGroupBase@details@Concurrency@@MAEPAVScheduleGroupSegmentBase@23@PAVlocation@3@PAVSchedulingRing@23@@Z 00452d64 f   libconcrt:ScheduleGroupBase.obj
 0001:00051db8       ?GetDetachedWorkQueue@ScheduleGroupSegmentBase@details@Concurrency@@IAEPAVWorkQueue@23@XZ 00452db8 f   libconcrt:ScheduleGroupBase.obj
 0001:00051e1d       ?GetInternalContext@ScheduleGroupSegmentBase@details@Concurrency@@IAEPAVInternalContextBase@23@PAU_Chore@23@_N@Z 00452e1d f   libconcrt:ScheduleGroupBase.obj
 0001:00051e50       ?GetRealizedChore@ScheduleGroupSegmentBase@details@Concurrency@@IAEPAVRealizedChore@23@XZ 00452e50 f   libconcrt:ScheduleGroupBase.obj
 0001:00051e60       ?GetResourceMaskId@SchedulerBase@details@Concurrency@@QAEII@Z 00452e60 f i libconcrt:ScheduleGroupBase.obj
 0001:00051e7e       ?Grow@?$Mailbox@V_UnrealizedChore@details@Concurrency@@@details@Concurrency@@AAEPAUSegment@123@PAU4123@@Z 00452e7e f i libconcrt:ScheduleGroupBase.obj
 0001:00051ec8       ?HasRealizedChores@ScheduleGroupSegmentBase@details@Concurrency@@IBE_NXZ 00452ec8 f   libconcrt:ScheduleGroupBase.obj
 0001:00051ed0       ?HasUnrealizedChores@ScheduleGroupSegmentBase@details@Concurrency@@IAE_NXZ 00452ed0 f   libconcrt:ScheduleGroupBase.obj
 0001:00051edb       ?Initialize@?$Mailbox@V_UnrealizedChore@details@Concurrency@@@details@Concurrency@@QAEXABVQuickBitSet@23@@Z 00452edb f i libconcrt:ScheduleGroupBase.obj
 0001:00051f04       ?Initialize@ScheduleGroupBase@details@Concurrency@@QAEXPAVlocation@3@@Z 00452f04 f   libconcrt:ScheduleGroupBase.obj
 0001:00051f17       ?Initialize@ScheduleGroupSegmentBase@details@Concurrency@@IAEXPAVScheduleGroupBase@23@PAVSchedulingRing@23@PAVlocation@3@@Z 00452f17 f   libconcrt:ScheduleGroupBase.obj
 0001:00051f9c       ?LocateMailboxSegment@?$Mailbox@V_UnrealizedChore@details@Concurrency@@@details@Concurrency@@AAEPAUSegment@123@I_N@Z 00452f9c f i libconcrt:ScheduleGroupBase.obj
 0001:00051fe6       ?LocateSegment@ScheduleGroupBase@details@Concurrency@@UAEPAVScheduleGroupSegmentBase@23@PAVlocation@3@_N@Z 00452fe6 f   libconcrt:ScheduleGroupBase.obj
 0001:000520ce       ?LocateUnrealizedChores@ScheduleGroupSegmentBase@details@Concurrency@@IAEPAVWorkQueue@23@XZ 004530ce f   libconcrt:ScheduleGroupBase.obj
 0001:0005212d       ?MarkDetachment@?$WorkStealingQueue@V_UnrealizedChore@details@Concurrency@@V_CriticalNonReentrantLock@23@@details@Concurrency@@QAEXXZ 0045312d f i libconcrt:ScheduleGroupBase.obj
 0001:00052168       ?PullFromFreePool@?$ListArray@VScheduleGroupSegmentBase@details@Concurrency@@@details@Concurrency@@QAEPAVScheduleGroupSegmentBase@23@XZ 00453168 f i libconcrt:ScheduleGroupBase.obj
 0001:0005217c       ?RedetachQueue@ScheduleGroupSegmentBase@details@Concurrency@@QAEXPAVWorkQueue@23@@Z 0045317c f   libconcrt:ScheduleGroupBase.obj
 0001:00052195       ?ReleaseInternalContext@ScheduleGroupSegmentBase@details@Concurrency@@IAEXPAVInternalContextBase@23@@Z 00453195 f   libconcrt:ScheduleGroupBase.obj
 0001:000521bb       ?Remove@?$ListArray@U?$ListArrayInlineLink@VWorkQueue@details@Concurrency@@@details@Concurrency@@@details@Concurrency@@QAE_NPAU?$ListArrayInlineLink@VWorkQueue@details@Concurrency@@@23@H_N@Z 004531bb f i libconcrt:ScheduleGroupBase.obj
 0001:000522ac       ?Remove@ScheduleGroupSegmentBase@details@Concurrency@@IAEXXZ 004532ac f   libconcrt:ScheduleGroupBase.obj
 0001:000522cf       ?RemoveSegments@ScheduleGroupBase@details@Concurrency@@MAEXXZ 004532cf f   libconcrt:ScheduleGroupBase.obj
 0001:00052314       ?RetireDetachedQueue@ScheduleGroupSegmentBase@details@Concurrency@@QAEXPAVWorkQueue@23@@Z 00453314 f   libconcrt:ScheduleGroupBase.obj
 0001:0005233b       ?SafelyDeleteDetachedWorkQueue@ScheduleGroupSegmentBase@details@Concurrency@@IAE_NPAVWorkQueue@23@@Z 0045333b f   libconcrt:ScheduleGroupBase.obj
 0001:0005237f       ?ScheduleTask@ScheduleGroupBase@details@Concurrency@@QAEXP6AXPAX@Z0AAVlocation@3@@Z 0045337f f   libconcrt:ScheduleGroupBase.obj
 0001:000523af       ?ScheduleTask@ScheduleGroupBase@details@Concurrency@@UAEXP6AXPAX@Z0@Z 004533af f   libconcrt:ScheduleGroupBase.obj
 0001:000523d7       ?ScheduleTask@ScheduleGroupSegmentBase@details@Concurrency@@QAEXP6AXPAX@Z0@Z 004533d7 f   libconcrt:ScheduleGroupBase.obj
 0001:00052510       ?SetDeletionReferences@Segment@?$Mailbox@V_UnrealizedChore@details@Concurrency@@@details@Concurrency@@QAEXI@Z 00453510 f i libconcrt:ScheduleGroupBase.obj
 0001:00052536       ?StealUnrealizedChore@ScheduleGroupSegmentBase@details@Concurrency@@IAEPAV_UnrealizedChore@23@_N@Z 00453536 f   libconcrt:ScheduleGroupBase.obj
 0001:000526e5       ??0SchedulerPolicy@Concurrency@@QAA@IZZ 004536e5 f   libconcrt:SchedulerPolicyBase.obj
 0001:00052703       ??0SchedulerPolicy@Concurrency@@QAE@ABV01@@Z 00453703 f   libconcrt:SchedulerPolicyBase.obj
 0001:0005272a       ??0invalid_scheduler_policy_key@Concurrency@@QAE@ABV01@@Z 0045372a f i libconcrt:SchedulerPolicyBase.obj
 0001:00052745       ??0invalid_scheduler_policy_thread_specification@Concurrency@@QAE@ABV01@@Z 00453745 f i libconcrt:SchedulerPolicyBase.obj
 0001:00052760       ??0invalid_scheduler_policy_value@Concurrency@@QAE@ABV01@@Z 00453760 f i libconcrt:SchedulerPolicyBase.obj
 0001:0005277b       ??1SchedulerPolicy@Concurrency@@QAE@XZ 0045377b f   libconcrt:SchedulerPolicyBase.obj
 0001:00052787       ??4SchedulerPolicy@Concurrency@@QAEAAV01@ABV01@@Z 00453787 f   libconcrt:SchedulerPolicyBase.obj
 0001:000527a0       ?GetPolicyValue@SchedulerPolicy@Concurrency@@QBEIW4PolicyElementKey@2@@Z 004537a0 f   libconcrt:SchedulerPolicyBase.obj
 0001:000527d6       ?_AreConcurrencyLimitsValid@SchedulerPolicy@Concurrency@@CA_NII@Z 004537d6 f   libconcrt:SchedulerPolicyBase.obj
 0001:000527f4       ?_Initialize@SchedulerPolicy@Concurrency@@AAEXIPAPAD@Z 004537f4 f   libconcrt:SchedulerPolicyBase.obj
 0001:000528e2       ?_ResolvePolicyValues@SchedulerPolicy@Concurrency@@AAEXXZ 004538e2 f   libconcrt:SchedulerPolicyBase.obj
 0001:00052927       ?_StringFromPolicyKey@SchedulerPolicy@Concurrency@@CAPBDI@Z 00453927 f   libconcrt:SchedulerPolicyBase.obj
 0001:0005293d       ?_ValidPolicyValue@SchedulerPolicy@Concurrency@@CA_NW4PolicyElementKey@2@I@Z 0045393d f   libconcrt:SchedulerPolicyBase.obj
 0001:00052a29       ?_ValidateConcRTPolicy@SchedulerPolicy@Concurrency@@QBEXXZ 00453a29 f   libconcrt:SchedulerPolicyBase.obj
 0001:00052a63       ??$_InternalDeleteHelper@VScheduleGroupSegmentBase@details@Concurrency@@@details@Concurrency@@YAXPAVScheduleGroupSegmentBase@01@@Z 00453a63 f i libconcrt:SchedulingRing.obj
 0001:00052a63       ??$_InternalDeleteHelper@VVirtualProcessor@details@Concurrency@@@details@Concurrency@@YAXPAVVirtualProcessor@01@@Z 00453a63 f i libconcrt:VirtualProcessor.obj
 0001:00052a85       ??0VirtualProcessor@details@Concurrency@@QAE@XZ 00453a85 f   libconcrt:VirtualProcessor.obj
 0001:00052b70       ??0WorkSearchContext@details@Concurrency@@QAE@XZ 00453b70 f i libconcrt:VirtualProcessor.obj
 0001:00052b92       ??1VirtualProcessor@details@Concurrency@@UAE@XZ 00453b92 f   libconcrt:VirtualProcessor.obj
 0001:00052bfa       ??_EVirtualProcessor@details@Concurrency@@UAEPAXI@Z 00453bfa f i libconcrt:VirtualProcessor.obj
 0001:00052bfa       ??_GVirtualProcessor@details@Concurrency@@UAEPAXI@Z 00453bfa f i libconcrt:VirtualProcessor.obj
 0001:00052c1f       ?AcknowledgedAffinityMessage@SchedulerBase@details@Concurrency@@QAE_NI@Z 00453c1f f i libconcrt:VirtualProcessor.obj
 0001:00052c52       ?Affinitize@VirtualProcessor@details@Concurrency@@MAEXPAVInternalContextBase@23@@Z 00453c52 f   libconcrt:VirtualProcessor.obj
 0001:00052c9b       ?CheckAffinityNotification@VirtualProcessor@details@Concurrency@@QAE_NXZ 00453c9b f   libconcrt:VirtualProcessor.obj
 0001:00052cb9       ?CheckForDeletion@?$ListArray@VVirtualProcessor@details@Concurrency@@@details@Concurrency@@AAEXXZ 00453cb9 f i libconcrt:VirtualProcessor.obj
 0001:00052cee       ?CheckForDeletionBridge@?$ListArray@VVirtualProcessor@details@Concurrency@@@details@Concurrency@@CAXPAV123@@Z 00453cee f i libconcrt:VirtualProcessor.obj
 0001:00052cfa       ?ClaimExclusiveOwnership@VirtualProcessor@details@Concurrency@@QAE_NAAVClaimTicket@123@K_N@Z 00453cfa f   libconcrt:VirtualProcessor.obj
 0001:00052d88       ?ClearQuickCacheSlot@SchedulerBase@details@Concurrency@@QAEXI@Z 00453d88 f i libconcrt:VirtualProcessor.obj
 0001:00052dad       ?Deactivate@VirtualProcessor@details@Concurrency@@QAE_NPAUIExecutionContext@3@@Z 00453dad f   libconcrt:VirtualProcessor.obj
 0001:00052dcf       ?EnsureAllTasksVisible@VirtualProcessor@details@Concurrency@@QAEXPAUIExecutionContext@3@@Z 00453dcf f   libconcrt:VirtualProcessor.obj
 0001:00052df1       ?ExerciseClaim@VirtualProcessor@details@Concurrency@@AAE_NW4AvailabilityType@123@PAVScheduleGroupSegmentBase@23@PAVInternalContextBase@23@@Z 00453df1 f   libconcrt:VirtualProcessor.obj
 0001:00052e82       ?ExerciseWith@ClaimTicket@VirtualProcessor@details@Concurrency@@QAE_NPAVInternalContextBase@34@@Z 00453e82 f   libconcrt:VirtualProcessor.obj
 0001:00052eb0       ?GetCurrentSubAllocator@VirtualProcessor@details@Concurrency@@QAEPAVSubAllocator@23@XZ 00453eb0 f   libconcrt:VirtualProcessor.obj
 0001:00052ec6       ?GetLocalRunnableContext@VirtualProcessor@details@Concurrency@@AAEPAVInternalContextBase@23@XZ 00453ec6 f i libconcrt:VirtualProcessor.obj
 0001:00052edb       ?Initialize@VirtualProcessor@details@Concurrency@@MAEXPAVSchedulingNode@23@PAUIVirtualProcessorRoot@3@@Z 00453edb f   libconcrt:VirtualProcessor.obj
 0001:00053058       ?InterlockedClear@ReferenceCountedQuickBitSet@details@Concurrency@@QAEII@Z 00454058 f i libconcrt:VirtualProcessor.obj
 0001:00053098       ?InterlockedSet@ReferenceCountedQuickBitSet@details@Concurrency@@QAEII@Z 00454098 f i libconcrt:VirtualProcessor.obj
 0001:000530dc       ?MakeAvailable@VirtualProcessor@details@Concurrency@@IAEXW4AvailabilityType@123@_N@Z 004540dc f   libconcrt:VirtualProcessor.obj
 0001:0005314c       ?MarkForRetirement@VirtualProcessor@details@Concurrency@@AAEXXZ 0045414c f   libconcrt:VirtualProcessor.obj
 0001:00053212       ?Oversubscribe@VirtualProcessor@details@Concurrency@@EAEPAV123@XZ 00454212 f   libconcrt:VirtualProcessor.obj
 0001:00053245       ?Remove@?$ListArray@VVirtualProcessor@details@Concurrency@@@details@Concurrency@@QAE_NPAVVirtualProcessor@23@H_N@Z 00454245 f i libconcrt:VirtualProcessor.obj
 0001:00053339       ?Retire@VirtualProcessor@details@Concurrency@@MAEXXZ 00454339 f   libconcrt:VirtualProcessor.obj
 0001:00053474       ?SafePoint@VirtualProcessor@details@Concurrency@@QAE_NXZ 00454474 f   libconcrt:VirtualProcessor.obj
 0001:00053488       ?SaveRetiredVirtualProcessorStatistics@SchedulerBase@details@Concurrency@@QAEXPAVVirtualProcessor@23@@Z 00454488 f i libconcrt:VirtualProcessor.obj
 0001:000534c2       ?SpinUntilClear@QuickBitSet@details@Concurrency@@QBEXI@Z 004544c2 f i libconcrt:VirtualProcessor.obj
 0001:00053511       ?SpinUntilSet@QuickBitSet@details@Concurrency@@QBEXI@Z 00454511 f i libconcrt:VirtualProcessor.obj
 0001:00053560       ?StartupWorkerContext@VirtualProcessor@details@Concurrency@@EAE_NPAVScheduleGroupSegmentBase@23@PAVInternalContextBase@23@@Z 00454560 f   libconcrt:VirtualProcessor.obj
 0001:00053602       ?ThrowVirtualProcessorEvent@VirtualProcessor@details@Concurrency@@CAXW4ConcRT_EventType@3@EKK@Z 00454602 f   libconcrt:VirtualProcessor.obj
 0001:00053673       ?ToInternalContext@VirtualProcessor@details@Concurrency@@MAEPAVInternalContextBase@23@PAUIExecutionContext@3@@Z 00454673 f   libconcrt:VirtualProcessor.obj
 0001:0005367d       ?TraceVirtualProcessorEvent@VirtualProcessor@details@Concurrency@@AAEXW4ConcRT_EventType@3@EKK@Z 0045467d f i libconcrt:VirtualProcessor.obj
 0001:000536aa       ?UpdateWorkState@VirtualProcessor@details@Concurrency@@QAEX_N0@Z 004546aa f   libconcrt:VirtualProcessor.obj
 0001:00053708       ?Wipe@QuickBitSet@details@Concurrency@@QAEXXZ 00454708 f i libconcrt:VirtualProcessor.obj
 0001:0005376b       ??0SchedulingNode@details@Concurrency@@QAE@ABVQuickBitSet@12@KPAVSchedulingRing@12@@Z 0045476b f   libconcrt:SchedulingNode.obj
 0001:000537e3       ??1?$ListArray@VVirtualProcessor@details@Concurrency@@@details@Concurrency@@QAE@XZ 004547e3 f i libconcrt:SchedulingNode.obj
 0001:00053886       ??1SchedulingNode@details@Concurrency@@QAE@XZ 00454886 f   libconcrt:SchedulingNode.obj
 0001:000538af       ?Add@?$ListArray@VVirtualProcessor@details@Concurrency@@@details@Concurrency@@QAEHPAVVirtualProcessor@23@@Z 004548af f i libconcrt:SchedulingNode.obj
 0001:00053a24       ?AddVirtualProcessor@SchedulingNode@details@Concurrency@@QAEPAVVirtualProcessor@23@PAUIVirtualProcessorRoot@3@_N@Z 00454a24 f   libconcrt:SchedulingNode.obj
 0001:00053b20       ?FindMatchingVirtualProcessor@SchedulingNode@details@Concurrency@@QAEPAVVirtualProcessor@23@PAUIVirtualProcessorRoot@3@@Z 00454b20 f   libconcrt:SchedulingNode.obj
 0001:00053b5d       ?FindVirtualProcessorByLocation@SchedulingNode@details@Concurrency@@QAEPAVVirtualProcessor@23@PBVlocation@3@@Z 00454b5d f   libconcrt:SchedulingNode.obj
 0001:00053bbb       ?FoundAvailableVirtualProcessor@SchedulingNode@details@Concurrency@@AAE_NAAVClaimTicket@VirtualProcessor@23@Vlocation@3@K@Z 00454bbb f   libconcrt:SchedulingNode.obj
 0001:00053c2f       ?GetLocation@SchedulingNode@details@Concurrency@@QAE?AVlocation@3@XZ 00454c2f f   libconcrt:SchedulingNode.obj
 0001:00053c63       ?PullFromFreePool@?$ListArray@VVirtualProcessor@details@Concurrency@@@details@Concurrency@@QAEPAVVirtualProcessor@23@XZ 00454c63 f i libconcrt:SchedulingNode.obj
 0001:00053c77       ?Steal@?$StructuredWorkStealingQueue@VInternalContextBase@details@Concurrency@@V_HyperNonReentrantLock@23@@details@Concurrency@@QAEPAVInternalContextBase@23@_N@Z 00454c77 f i libconcrt:SchedulingNode.obj
 0001:00053cbd       ??0InternalContextBase@details@Concurrency@@QAE@PAVSchedulerBase@12@@Z 00454cbd f   libconcrt:InternalContextBase.obj
 0001:00053d7d       ??0context_self_unblock@Concurrency@@QAE@ABV01@@Z 00454d7d f i libconcrt:InternalContextBase.obj
 0001:00053d98       ??0context_unblock_unbalanced@Concurrency@@QAE@ABV01@@Z 00454d98 f i libconcrt:InternalContextBase.obj
 0001:00053db3       ??0invalid_oversubscribe_operation@Concurrency@@QAE@ABV01@@Z 00454db3 f i libconcrt:InternalContextBase.obj
 0001:00053dce       ??0nested_scheduler_missing_detach@Concurrency@@QAE@ABV01@@Z 00454dce f i libconcrt:InternalContextBase.obj
 0001:00053de9       ??1InternalContextBase@details@Concurrency@@UAE@XZ 00454de9 f   libconcrt:InternalContextBase.obj
 0001:00053e3a       ??1ScopedCriticalRegion@ContextBase@details@Concurrency@@QAE@XZ 00454e3a f i libconcrt:InternalContextBase.obj
 0001:00053e75       ??_EInternalContextBase@details@Concurrency@@W3AEPAXI@Z 00454e75 f i libconcrt:InternalContextBase.obj
 0001:00053e7d       ??_EInternalContextBase@details@Concurrency@@UAEPAXI@Z 00454e7d f i libconcrt:InternalContextBase.obj
 0001:00053e7d       ??_GInternalContextBase@details@Concurrency@@UAEPAXI@Z 00454e7d f i libconcrt:InternalContextBase.obj
 0001:00053ea2       ?AddToRunnables@InternalContextBase@details@Concurrency@@MAEXVlocation@3@@Z 00454ea2 f   libconcrt:InternalContextBase.obj
 0001:00054022       ?Alloc@InternalContextBase@details@Concurrency@@UAEPAXI@Z 00455022 f   libconcrt:InternalContextBase.obj
 0001:00054079       ?Block@InternalContextBase@details@Concurrency@@UAEXXZ 00455079 f   libconcrt:InternalContextBase.obj
 0001:000541b5       ?Cancel@InternalContextBase@details@Concurrency@@MAEXXZ 004551b5 f   libconcrt:InternalContextBase.obj
 0001:0005422a       ?Cleanup@InternalContextBase@details@Concurrency@@IAEXXZ 0045522a f   libconcrt:InternalContextBase.obj
 0001:00054242       ?CleanupDispatchedContextOnCancel@InternalContextBase@details@Concurrency@@IAEXXZ 00455242 f   libconcrt:InternalContextBase.obj
 0001:0005425d       ?Dispatch@InternalContextBase@details@Concurrency@@UAEXPAUDispatchState@3@@Z 0045525d f   libconcrt:InternalContextBase.obj
 0001:000543fd       ?ExecuteChoreInline@InternalContextBase@details@Concurrency@@IAEXPAVWorkItem@23@@Z 004553fd f   libconcrt:InternalContextBase.obj
 0001:0005443a       ?ExecutedAssociatedChore@InternalContextBase@details@Concurrency@@IAE_NXZ 0045543a f   libconcrt:InternalContextBase.obj
 0001:000544ae       ?FindWorkForBlockingOrNesting@InternalContextBase@details@Concurrency@@AAEPAV123@AA_N0@Z 004554ae f   libconcrt:InternalContextBase.obj
 0001:000545db       ?Free@InternalContextBase@details@Concurrency@@UAEXPAX@Z 004555db f   libconcrt:InternalContextBase.obj
 0001:00054607       ?GetAndResetOversubscribedVProc@InternalContextBase@details@Concurrency@@QAEPAVVirtualProcessor@23@PAV423@@Z 00455607 f   libconcrt:InternalContextBase.obj
 0001:00054634       ?GetId@InternalContextBase@details@Concurrency@@UBEIXZ 00455634 f   libconcrt:InternalContextBase.obj
 0001:00054638       ?GetId@InternalContextBase@details@Concurrency@@W3BEIXZ 00455638 f i libconcrt:InternalContextBase.obj
 0001:00054640       ?GetProcessorMaskId@details@Concurrency@@YAIPAVInternalContextBase@12@@Z 00455640 f   libconcrt:InternalContextBase.obj
 0001:00054654       ?GetProxy@InternalContextBase@details@Concurrency@@UAEPAUIThreadProxy@3@XZ 00455654 f   libconcrt:InternalContextBase.obj
 0001:0005465b       ?GetScheduler@InternalContextBase@details@Concurrency@@UAEPAUIScheduler@3@XZ 0045565b f   libconcrt:InternalContextBase.obj
 0001:00054674       ?GetVirtualProcessorId@InternalContextBase@details@Concurrency@@UBEIXZ 00455674 f   libconcrt:InternalContextBase.obj
 0001:000546a3       ?IsSynchronouslyBlocked@InternalContextBase@details@Concurrency@@UBE_NXZ 004556a3 f i libconcrt:InternalContextBase.obj
 0001:000546ab       ?IsVirtualProcessorRetired@InternalContextBase@details@Concurrency@@IAE_NXZ 004556ab f   libconcrt:InternalContextBase.obj
 0001:0005470c       ?LeaveScheduler@InternalContextBase@details@Concurrency@@AAEXXZ 0045570c f   libconcrt:InternalContextBase.obj
 0001:0005480e       ?Oversubscribe@InternalContextBase@details@Concurrency@@UAEX_N@Z 0045580e f   libconcrt:InternalContextBase.obj
 0001:00054894       ?PrepareForUse@InternalContextBase@details@Concurrency@@QAEXPAVScheduleGroupSegmentBase@23@PAU_Chore@23@_N@Z 00455894 f   libconcrt:InternalContextBase.obj
 0001:000548e7       ?PrepareToRun@InternalContextBase@details@Concurrency@@MAEXPAVVirtualProcessor@23@@Z 004558e7 f i libconcrt:InternalContextBase.obj
 0001:000548fe       ?ReclaimVirtualProcessor@InternalContextBase@details@Concurrency@@IAEXXZ 004558fe f   libconcrt:InternalContextBase.obj
 0001:00054971       ?RejoinScheduler@InternalContextBase@details@Concurrency@@AAEXXZ 00455971 f   libconcrt:InternalContextBase.obj
 0001:00054990       ?RemoveFromUse@InternalContextBase@details@Concurrency@@QAEXXZ 00455990 f   libconcrt:InternalContextBase.obj
 0001:000549b6       ?SearchForWork@VirtualProcessor@details@Concurrency@@QAE_NPAVWorkItem@23@PAVScheduleGroupSegmentBase@23@_N@Z 004559b6 f i libconcrt:InternalContextBase.obj
 0001:000549de       ?SetProxy@InternalContextBase@details@Concurrency@@UAEXPAUIThreadProxy@3@@Z 004559de f   libconcrt:InternalContextBase.obj
 0001:00054a11       ?SpinUntilBlocked@InternalContextBase@details@Concurrency@@IAEXXZ 00455a11 f   libconcrt:InternalContextBase.obj
 0001:00054a43       ?SpinUntilValueEquals@details@Concurrency@@YAXPCJJ@Z 00455a43 f i libconcrt:InternalContextBase.obj
 0001:00054a77       ?SpinYield@InternalContextBase@details@Concurrency@@UAEXXZ 00455a77 f   libconcrt:InternalContextBase.obj
 0001:00054b3e       ?SwapScheduleGroupSegment@InternalContextBase@details@Concurrency@@QAEXPAVScheduleGroupSegmentBase@23@_N@Z 00455b3e f   libconcrt:InternalContextBase.obj
 0001:00054b89       ?SwitchOut@InternalContextBase@details@Concurrency@@IAE_NW4ReasonForSwitch@123@@Z 00455b89 f   libconcrt:InternalContextBase.obj
 0001:00054ccf       ?SwitchTo@InternalContextBase@details@Concurrency@@IAEXPAV123@W4ReasonForSwitch@123@@Z 00455ccf f   libconcrt:InternalContextBase.obj
 0001:00054e1e       ?Unblock@InternalContextBase@details@Concurrency@@UAEXXZ 00455e1e f   libconcrt:InternalContextBase.obj
 0001:00054edf       ?WaitForWork@InternalContextBase@details@Concurrency@@IAEXXZ 00455edf f   libconcrt:InternalContextBase.obj
 0001:00054ffe       ?WorkWasFound@InternalContextBase@details@Concurrency@@IAE_NPAVWorkItem@23@@Z 00455ffe f   libconcrt:InternalContextBase.obj
 0001:0005505d       ?Yield@InternalContextBase@details@Concurrency@@UAEXXZ 0045605d f   libconcrt:InternalContextBase.obj
 0001:000551eb       ??0SchedulingRing@details@Concurrency@@QAE@PAVSchedulerBase@12@H@Z 004561eb f   libconcrt:SchedulingRing.obj
 0001:0005527d       ??1?$ListArray@VScheduleGroupSegmentBase@details@Concurrency@@@details@Concurrency@@QAE@XZ 0045627d f i libconcrt:SchedulingRing.obj
 0001:00055320       ??1SchedulingRing@details@Concurrency@@QAE@XZ 00456320 f   libconcrt:SchedulingRing.obj
 0001:0005533b       ?Activate@SchedulingRing@details@Concurrency@@QAEXXZ 0045633b f   libconcrt:SchedulingRing.obj
 0001:00055347       ?CheckForDeletion@?$ListArray@VScheduleGroupSegmentBase@details@Concurrency@@@details@Concurrency@@AAEXXZ 00456347 f i libconcrt:SchedulingRing.obj
 0001:0005537c       ?CheckForDeletionBridge@?$ListArray@VScheduleGroupSegmentBase@details@Concurrency@@@details@Concurrency@@CAXPAV123@@Z 0045637c f i libconcrt:SchedulingRing.obj
 0001:00055388       ?Remove@?$ListArray@VScheduleGroupSegmentBase@details@Concurrency@@@details@Concurrency@@QAE_NPAVScheduleGroupSegmentBase@23@H_N@Z 00456388 f i libconcrt:SchedulingRing.obj
 0001:0005547c       ?RemoveScheduleGroupSegment@SchedulingRing@details@Concurrency@@AAEXPAVScheduleGroupSegmentBase@23@@Z 0045647c f   libconcrt:SchedulingRing.obj
 0001:000554ab       ??IQuickBitSet@details@Concurrency@@QBE?AV012@ABV012@@Z 004564ab f i libconcrt:CacheLocalScheduleGroup.obj
 0001:000554f8       ?AddToRunnablesCollection@CacheLocalScheduleGroupSegment@details@Concurrency@@EAEXPAVInternalContextBase@23@@Z 004564f8 f   libconcrt:CacheLocalScheduleGroup.obj
 0001:000554f8       ?AddToRunnablesCollection@FairScheduleGroupSegment@details@Concurrency@@EAEXPAVInternalContextBase@23@@Z 004564f8 f   libconcrt:FairScheduleGroup.obj
 0001:00055507       ?Enqueue@?$Mailbox@V_UnrealizedChore@details@Concurrency@@@details@Concurrency@@QAE?AVSlot@123@PAV_UnrealizedChore@23@@Z 00456507 f i libconcrt:CacheLocalScheduleGroup.obj
 0001:00055558       ?Enqueue@?$SafeSQueue@VInternalContextBase@details@Concurrency@@V_HyperNonReentrantLock@23@@details@Concurrency@@QAEXPAVInternalContextBase@23@@Z 00456558 f i libconcrt:CacheLocalScheduleGroup.obj
 0001:000555a1       ?InterlockedSet@QuickBitSet@details@Concurrency@@QAEXABV123@@Z 004565a1 f i libconcrt:CacheLocalScheduleGroup.obj
 0001:000555d9       ?MailChore@CacheLocalScheduleGroup@details@Concurrency@@UAE?AVSlot@?$Mailbox@V_UnrealizedChore@details@Concurrency@@@23@PAV_UnrealizedChore@23@PAVlocation@3@PAPAVScheduleGroupSegmentBase@23@@Z 004565d9 f   libconcrt:CacheLocalScheduleGroup.obj
 0001:00055611       ?MailChore@CacheLocalScheduleGroupSegment@details@Concurrency@@QAE?AVSlot@?$Mailbox@V_UnrealizedChore@details@Concurrency@@@23@PAV_UnrealizedChore@23@@Z 00456611 f   libconcrt:CacheLocalScheduleGroup.obj
 0001:00055629       ?NotifyAffinitizedWork@CacheLocalScheduleGroupSegment@details@Concurrency@@UAEXXZ 00456629 f   libconcrt:CacheLocalScheduleGroup.obj
 0001:0005565c       ?PostAffinityMessage@SchedulerBase@details@Concurrency@@QAEXABVQuickBitSet@23@@Z 0045665c f i libconcrt:CacheLocalScheduleGroup.obj
 0001:0005569a       ?SetQuickCacheSlot@SchedulerBase@details@Concurrency@@QAEXIPAVScheduleGroupSegmentBase@23@@Z 0045669a f i libconcrt:CacheLocalScheduleGroup.obj
 0001:000556c0       ?FindSegment@FairScheduleGroup@details@Concurrency@@MAEPAVScheduleGroupSegmentBase@23@PAVlocation@3@PAVSchedulingRing@23@@Z 004566c0 f   libconcrt:FairScheduleGroup.obj
 0001:000556ef       ?LocateSegment@FairScheduleGroup@details@Concurrency@@UAEPAVScheduleGroupSegmentBase@23@PAVlocation@3@_N@Z 004566ef f   libconcrt:FairScheduleGroup.obj
 0001:00055757       ??0ExternalContextBase@details@Concurrency@@QAE@PAVSchedulerBase@12@_N@Z 00456757 f   libconcrt:ExternalContextBase.obj
 0001:000557f5       ??1ExternalContextBase@details@Concurrency@@UAE@XZ 004567f5 f   libconcrt:ExternalContextBase.obj
 0001:0005583f       ??_EExternalContextBase@details@Concurrency@@UAEPAXI@Z 0045683f f i libconcrt:ExternalContextBase.obj
 0001:0005583f       ??_GExternalContextBase@details@Concurrency@@UAEPAXI@Z 0045683f f i libconcrt:ExternalContextBase.obj
 0001:00055864       ?Alloc@ExternalContextBase@details@Concurrency@@UAEPAXI@Z 00456864 f   libconcrt:ExternalContextBase.obj
 0001:00055885       ?Block@ExternalContextBase@details@Concurrency@@UAEXXZ 00456885 f   libconcrt:ExternalContextBase.obj
 0001:000558db       ?Cleanup@ExternalContextBase@details@Concurrency@@AAEXXZ 004568db f   libconcrt:ExternalContextBase.obj
 0001:00055939       ?Free@ExternalContextBase@details@Concurrency@@UAEXPAX@Z 00456939 f   libconcrt:ExternalContextBase.obj
 0001:0005595e       ?GetCurrentSubAllocator@ExternalContextBase@details@Concurrency@@QAEPAVSubAllocator@23@XZ 0045695e f i libconcrt:ExternalContextBase.obj
 0001:0005597b       ?GetVirtualProcessorId@ExternalContextBase@details@Concurrency@@UBEIXZ 0045697b f i libconcrt:ExternalContextBase.obj
 0001:0005597f       ?ImplicitDetachHandler@ExternalContextBase@details@Concurrency@@CGXPAU_TP_CALLBACK_INSTANCE@@PAXPAU_TP_WAIT@@K@Z 0045697f f   libconcrt:ExternalContextBase.obj
 0001:000559a1       ?IsSynchronouslyBlocked@ExternalContextBase@details@Concurrency@@UBE_NXZ 004569a1 f i libconcrt:ExternalContextBase.obj
 0001:000559a9       ?Oversubscribe@ExternalContextBase@details@Concurrency@@UAEX_N@Z 004569a9 f   libconcrt:ExternalContextBase.obj
 0001:000559de       ?PrepareForUse@ExternalContextBase@details@Concurrency@@QAEX_N@Z 004569de f   libconcrt:ExternalContextBase.obj
 0001:00055a86       ?RemoveFromUse@ExternalContextBase@details@Concurrency@@QAEXXZ 00456a86 f   libconcrt:ExternalContextBase.obj
 0001:00055aab       ?SpinYield@ExternalContextBase@details@Concurrency@@UAEXXZ 00456aab f i libconcrt:ExternalContextBase.obj
 0001:00055ac3       ?Unblock@ExternalContextBase@details@Concurrency@@UAEXXZ 00456ac3 f   libconcrt:ExternalContextBase.obj
 0001:00055b4b       ?Yield@ExternalContextBase@details@Concurrency@@UAEXXZ 00456b4b f   libconcrt:ExternalContextBase.obj
 0001:00055b86       ??0ThreadInternalContext@details@Concurrency@@QAE@PAVSchedulerBase@12@@Z 00456b86 f i libconcrt:ThreadScheduler.obj
 0001:00055bac       ??0ThreadScheduler@details@Concurrency@@QAE@ABVSchedulerPolicy@2@@Z 00456bac f   libconcrt:ThreadScheduler.obj
 0001:00055bdd       ??1ThreadScheduler@details@Concurrency@@UAE@XZ 00456bdd f   libconcrt:ThreadScheduler.obj
 0001:00055bf1       ??_EThreadInternalContext@details@Concurrency@@W3AEPAXI@Z 00456bf1 f i libconcrt:ThreadScheduler.obj
 0001:00055bf9       ??_EThreadScheduler@details@Concurrency@@W7AEPAXI@Z 00456bf9 f i libconcrt:ThreadScheduler.obj
 0001:00055c01       ??_EThreadInternalContext@details@Concurrency@@UAEPAXI@Z 00456c01 f i libconcrt:ThreadScheduler.obj
 0001:00055c01       ??_GThreadInternalContext@details@Concurrency@@UAEPAXI@Z 00456c01 f i libconcrt:ThreadScheduler.obj
 0001:00055c33       ??_EThreadScheduler@details@Concurrency@@UAEPAXI@Z 00456c33 f i libconcrt:ThreadScheduler.obj
 0001:00055c33       ??_GThreadScheduler@details@Concurrency@@UAEPAXI@Z 00456c33 f i libconcrt:ThreadScheduler.obj
 0001:00055c58       ?AddVirtualProcessors@ThreadScheduler@details@Concurrency@@UAEXPAPAUIVirtualProcessorRoot@3@I@Z 00456c58 f i libconcrt:ThreadScheduler.obj
 0001:00055c64       ?Create@ThreadScheduler@details@Concurrency@@SAPAV123@ABVSchedulerPolicy@3@@Z 00456c64 f   libconcrt:ThreadScheduler.obj
 0001:00055c97       ?CreateInternalContext@ThreadScheduler@details@Concurrency@@MAEPAVInternalContextBase@23@XZ 00456c97 f   libconcrt:ThreadScheduler.obj
 0001:00055cd0       ?CreateVirtualProcessor@ThreadScheduler@details@Concurrency@@UAEPAVVirtualProcessor@23@PAVSchedulingNode@23@PAUIVirtualProcessorRoot@3@@Z 00456cd0 f   libconcrt:ThreadScheduler.obj
 0001:00055d08       ?GetContextKind@ThreadInternalContext@details@Concurrency@@UBE?AW4ContextKind@ContextBase@23@XZ 00456d08 f i libconcrt:ThreadScheduler.obj
 0001:00055d08       __get_startup_argv_mode    00456d08 f i LIBCMT:argv_mode.obj
 0001:00055d0c       ?GetIScheduler@ThreadScheduler@details@Concurrency@@UAEPAUIScheduler@3@XZ 00456d0c f i libconcrt:ThreadScheduler.obj
 0001:00055d10       ?GetId@ThreadScheduler@details@Concurrency@@UBEIXZ 00456d10 f i libconcrt:ThreadScheduler.obj
 0001:00055d29       ?GetPolicy@ThreadScheduler@details@Concurrency@@UBE?AVSchedulerPolicy@3@XZ 00456d29 f i libconcrt:ThreadScheduler.obj
 0001:00055d3f       ?GetPolicy@ThreadScheduler@details@Concurrency@@W7BE?AVSchedulerPolicy@3@XZ 00456d3f f i libconcrt:ThreadScheduler.obj
 0001:00055d47       ?RemoveVirtualProcessors@ThreadScheduler@details@Concurrency@@UAEXPAPAUIVirtualProcessorRoot@3@I@Z 00456d47 f i libconcrt:ThreadScheduler.obj
 0001:00055d53       ?Statistics@ThreadScheduler@details@Concurrency@@UAEXPAI00@Z 00456d53 f i libconcrt:ThreadScheduler.obj
 0001:00055d5f       ??0ExecutionResource@details@Concurrency@@QAE@PAVSchedulerProxy@12@PAUSchedulerNode@12@I@Z 00456d5f f   libconcrt:ExecutionResource.obj
 0001:00055dbe       ??0ExecutionResource@details@Concurrency@@QAE@PAVSchedulerProxy@12@PAV012@@Z 00456dbe f   libconcrt:ExecutionResource.obj
 0001:00055e0d       ?CurrentSubscriptionLevel@ExecutionResource@details@Concurrency@@UBEIXZ 00456e0d f   libconcrt:ExecutionResource.obj
 0001:00055e1f       ?DecrementUseCounts@ExecutionResource@details@Concurrency@@QAEXXZ 00456e1f f   libconcrt:ExecutionResource.obj
 0001:00055e8c       ?GetExecutionResourceId@ExecutionResource@details@Concurrency@@UBEIXZ 00456e8c f i libconcrt:ExecutionResource.obj
 0001:00055e8c       ?GetNodeId@VirtualProcessorRoot@details@Concurrency@@UBEIXZ 00456e8c f i libconcrt:VirtualProcessorRoot.obj
 0001:00055e90       ?GetNodeId@ExecutionResource@details@Concurrency@@UBEIXZ 00456e90 f i libconcrt:ExecutionResource.obj
 0001:00055e94       ?IncrementUseCounts@ExecutionResource@details@Concurrency@@QAEXXZ 00456e94 f   libconcrt:ExecutionResource.obj
 0001:00055f5c       ?Remove@ExecutionResource@details@Concurrency@@UAEXPAUIScheduler@3@@Z 00456f5c f   libconcrt:ExecutionResource.obj
 0001:00055fbb       ?ResetCurrent@ExecutionResource@details@Concurrency@@QAEXXZ 00456fbb f   libconcrt:ExecutionResource.obj
 0001:00055fda       ?SetAsCurrent@ExecutionResource@details@Concurrency@@QAEXXZ 00456fda f   libconcrt:ExecutionResource.obj
 0001:00055ffd       ??$sign@N@details@Concurrency@@YANN@Z 00456ffd f i libconcrt:HillClimbing.obj
 0001:00056033       ??0HillClimbing@details@Concurrency@@QAE@IIPAVSchedulerProxy@12@@Z 00457033 f   libconcrt:HillClimbing.obj
 0001:000560ca       ?CalculateThroughput@HillClimbing@details@Concurrency@@AAENIIII@Z 004570ca f   libconcrt:HillClimbing.obj
 0001:00056115       ?CalculateThroughputGradient@HillClimbing@details@Concurrency@@AAENHH@Z 00457115 f   libconcrt:HillClimbing.obj
 0001:00056234       ?CoefficientOfVariationMean@MeasuredHistory@HillClimbing@details@Concurrency@@QAENXZ 00457234 f   libconcrt:HillClimbing.obj
 0001:00056294       ?EstablishControlSetting@HillClimbing@details@Concurrency@@AAEXI@Z 00457294 f   libconcrt:HillClimbing.obj
 0001:000562d8       ?FlushHistories@HillClimbing@details@Concurrency@@AAEXXZ 004572d8 f   libconcrt:HillClimbing.obj
 0001:00056324       ?GetHistory@HillClimbing@details@Concurrency@@AAEPAVMeasuredHistory@123@I@Z 00457324 f   libconcrt:HillClimbing.obj
 0001:00056354       ?GetRandomMove@HillClimbing@details@Concurrency@@AAEHXZ 00457354 f   libconcrt:HillClimbing.obj
 0001:0005636d       ?IsStableHistory@HillClimbing@details@Concurrency@@AAE_NPAVMeasuredHistory@123@@Z 0045736d f   libconcrt:HillClimbing.obj
 0001:000563ac       ?Mean@MeasuredHistory@HillClimbing@details@Concurrency@@QAENXZ 004573ac f   libconcrt:HillClimbing.obj
 0001:000563dc       ?RecommendControlSetting@HillClimbing@details@Concurrency@@AAEII@Z 004573dc f   libconcrt:HillClimbing.obj
 0001:00056459       ?Update@HillClimbing@details@Concurrency@@QAEIIIII@Z 00457459 f   libconcrt:HillClimbing.obj
 0001:000566a8       ?Variance@MeasuredHistory@HillClimbing@details@Concurrency@@QAENXZ 004576a8 f   libconcrt:HillClimbing.obj
 0001:0005670a       ??0SchedulerProxy@details@Concurrency@@QAE@PAUIScheduler@2@PAVResourceManager@12@ABVSchedulerPolicy@2@@Z 0045770a f   libconcrt:SchedulerProxy.obj
 0001:0005697a       ??1SchedulerProxy@details@Concurrency@@IAE@XZ 0045797a f   libconcrt:SchedulerProxy.obj
 0001:000569dc       ?AddCore@SchedulerProxy@details@Concurrency@@QAEXPAUSchedulerNode@23@I_N@Z 004579dc f   libconcrt:SchedulerProxy.obj
 0001:00056aac       ?AddExecutionResource@SchedulerProxy@details@Concurrency@@QAEXPAVExecutionResource@23@@Z 00457aac f   libconcrt:SchedulerProxy.obj
 0001:00056b00       ?AddTail@?$List@VExecutionResource@details@Concurrency@@VCount@CollectionTypes@23@@details@Concurrency@@QAEXPAVExecutionResource@23@@Z 00457b00 f i libconcrt:SchedulerProxy.obj
 0001:00056b39       ?AddThreadSubscription@SchedulerProxy@details@Concurrency@@QAEXPAVExecutionResource@23@@Z 00457b39 f   libconcrt:SchedulerProxy.obj
 0001:00056b48       ?AddVirtualProcessorRoots@SchedulerProxy@details@Concurrency@@QAEXPAPAUIVirtualProcessorRoot@3@I@Z 00457b48 f   libconcrt:SchedulerProxy.obj
 0001:00056bf6       ?AdjustAllocationIncrease@SchedulerProxy@details@Concurrency@@QBEII@Z 00457bf6 f   libconcrt:SchedulerProxy.obj
 0001:00056c6c       ?BindContext@SchedulerProxy@details@Concurrency@@UAEXPAUIExecutionContext@3@@Z 00457c6c f   libconcrt:SchedulerProxy.obj
 0001:00056cc8       ?Cleanup@SchedulerProxy@details@Concurrency@@IAEXXZ 00457cc8 f   libconcrt:SchedulerProxy.obj
 0001:00056d91       ?CreateExternalThreadResource@SchedulerProxy@details@Concurrency@@QAEPAVExecutionResource@23@PAUSchedulerNode@23@I@Z 00457d91 f   libconcrt:SchedulerProxy.obj
 0001:00056ddb       ?CreateOversubscriber@SchedulerProxy@details@Concurrency@@UAEPAUIVirtualProcessorRoot@3@PAUIExecutionResource@3@@Z 00457ddb f   libconcrt:SchedulerProxy.obj
 0001:00056e9c       ?CreateVirtualProcessorRoot@SchedulerProxy@details@Concurrency@@UAEPAVVirtualProcessorRoot@23@PAUSchedulerNode@23@I@Z 00457e9c f   libconcrt:SchedulerProxy.obj
 0001:00056ed4       ?DecrementCoreSubscription@SchedulerProxy@details@Concurrency@@QAEXPAVExecutionResource@23@@Z 00457ed4 f   libconcrt:SchedulerProxy.obj
 0001:00056f1e       ?DecrementFixedCoreCount@SchedulerProxy@details@Concurrency@@QAEXII_N@Z 00457f1e f   libconcrt:SchedulerProxy.obj
 0001:00056f98       ?DeleteThis@SchedulerProxy@details@Concurrency@@MAEXXZ 00457f98 f i libconcrt:SchedulerProxy.obj
 0001:00056fb3       ?DestroyExecutionResource@SchedulerProxy@details@Concurrency@@QAEXPAVExecutionResource@23@@Z 00457fb3 f   libconcrt:SchedulerProxy.obj
 0001:00057054       ?DestroyVirtualProcessorRoot@SchedulerProxy@details@Concurrency@@QAEXPAVVirtualProcessorRoot@23@@Z 00458054 f   libconcrt:SchedulerProxy.obj
 0001:000570e9       ?FinalShutdown@SchedulerProxy@details@Concurrency@@UAEXXZ 004580e9 f   libconcrt:SchedulerProxy.obj
 0001:00057106       ?GetCurrentThreadExecutionResource@SchedulerProxy@details@Concurrency@@QAEPAVExecutionResource@23@XZ 00458106 f   libconcrt:SchedulerProxy.obj
 0001:00057122       ?GetNewThreadProxy@SchedulerProxy@details@Concurrency@@UAEPAUIThreadProxy@3@PAUIExecutionContext@3@@Z 00458122 f   libconcrt:SchedulerProxy.obj
 0001:00057172       ?GetResourceForNewSubscription@SchedulerProxy@details@Concurrency@@QAEPAVExecutionResource@23@PAV423@@Z 00458172 f   libconcrt:SchedulerProxy.obj
 0001:000571c3       ?GrantAllocation@SchedulerProxy@details@Concurrency@@QAEPAVExecutionResource@23@I_N0@Z 004581c3 f   libconcrt:SchedulerProxy.obj
 0001:000574cd       ?IncrementCoreSubscription@SchedulerProxy@details@Concurrency@@QAEXPAVExecutionResource@23@@Z 004584cd f   libconcrt:SchedulerProxy.obj
 0001:0005751b       ?IncrementFixedCoreCount@SchedulerProxy@details@Concurrency@@QAEXII_N@Z 0045851b f   libconcrt:SchedulerProxy.obj
 0001:0005759c       ?ReferenceCurrentThreadExecutionResource@SchedulerProxy@details@Concurrency@@QAEPAVExecutionResource@23@XZ 0045859c f   libconcrt:SchedulerProxy.obj
 0001:000575ec       ?Remove@?$List@VExecutionResource@details@Concurrency@@VCount@CollectionTypes@23@@details@Concurrency@@QAEXPAVExecutionResource@23@@Z 004585ec f i libconcrt:SchedulerProxy.obj
 0001:00057622       ?RemoveCore@SchedulerProxy@details@Concurrency@@QAEXPAUSchedulerNode@23@I@Z 00458622 f   libconcrt:SchedulerProxy.obj
 0001:00057711       ?RemoveThreadSubscription@SchedulerProxy@details@Concurrency@@QAEXPAVExecutionResource@23@@Z 00458711 f   libconcrt:SchedulerProxy.obj
 0001:0005773d       ?RequestInitialVirtualProcessors@SchedulerProxy@details@Concurrency@@UAEPAUIExecutionResource@3@_N@Z 0045873d f   libconcrt:SchedulerProxy.obj
 0001:00057750       ?SendCoreNotification@SchedulerProxy@details@Concurrency@@QAEXPAUSchedulerCore@23@_N@Z 00458750 f   libconcrt:SchedulerProxy.obj
 0001:00057838       ?Shutdown@SchedulerProxy@details@Concurrency@@UAEXXZ 00458838 f   libconcrt:SchedulerProxy.obj
 0001:00057842       ?SubscribeCurrentThread@SchedulerProxy@details@Concurrency@@UAEPAUIExecutionResource@3@XZ 00458842 f   libconcrt:SchedulerProxy.obj
 0001:0005784c       ?ToggleBorrowedState@SchedulerProxy@details@Concurrency@@QAEXPAUSchedulerNode@23@I@Z 0045884c f   libconcrt:SchedulerProxy.obj
 0001:00057890       ?UnbindContext@SchedulerProxy@details@Concurrency@@UAEXPAUIExecutionContext@3@@Z 00458890 f   libconcrt:SchedulerProxy.obj
 0001:000578d9       ?Initialize@WinRT@details@Concurrency@@SAXXZ 004588d9 f   libconcrt:WinRTWrapper.obj
 0001:00057970       ?RoInitialize@WinRT@details@Concurrency@@SAJW4RO_INIT_TYPE@@@Z 00458970 f   libconcrt:WinRTWrapper.obj
 0001:00057992       ?RoUninitialize@WinRT@details@Concurrency@@SAXXZ 00458992 f   libconcrt:WinRTWrapper.obj
 0001:000579ad       ??0?$ThreadProxyFactory@VFreeThreadProxy@details@Concurrency@@@details@Concurrency@@IAE@PAVThreadProxyFactoryManager@12@@Z 004589ad f i libconcrt:ThreadProxyFactoryManager.obj
 0001:000579ec       ??0FreeThreadProxy@details@Concurrency@@QAE@PAUIThreadProxyFactory@12@I@Z 004589ec f i libconcrt:ThreadProxyFactoryManager.obj
 0001:00057a26       ??0FreeThreadProxyFactory@details@Concurrency@@IAE@PAVThreadProxyFactoryManager@12@@Z 00458a26 f i libconcrt:ThreadProxyFactoryManager.obj
 0001:00057a50       ??0ThreadProxyFactoryManager@details@Concurrency@@QAE@XZ 00458a50 f   libconcrt:ThreadProxyFactoryManager.obj
 0001:00057a86       ??1IThreadProxyFactory@details@Concurrency@@UAE@XZ 00458a86 f i libconcrt:ThreadProxyFactoryManager.obj
 0001:00057a8d       ??1ThreadProxyFactoryManager@details@Concurrency@@QAE@XZ 00458a8d f   libconcrt:ThreadProxyFactoryManager.obj
 0001:00057af1       ??_E?$ThreadProxyFactory@VFreeThreadProxy@details@Concurrency@@@details@Concurrency@@UAEPAXI@Z 00458af1 f i libconcrt:ThreadProxyFactoryManager.obj
 0001:00057af1       ??_G?$ThreadProxyFactory@VFreeThreadProxy@details@Concurrency@@@details@Concurrency@@UAEPAXI@Z 00458af1 f i libconcrt:ThreadProxyFactoryManager.obj
 0001:00057b14       ??_EFreeThreadProxy@details@Concurrency@@UAEPAXI@Z 00458b14 f i libconcrt:ThreadProxyFactoryManager.obj
 0001:00057b14       ??_GFreeThreadProxy@details@Concurrency@@UAEPAXI@Z 00458b14 f i libconcrt:ThreadProxyFactoryManager.obj
 0001:00057b3c       ??_EFreeThreadProxyFactory@details@Concurrency@@UAEPAXI@Z 00458b3c f i libconcrt:ThreadProxyFactoryManager.obj
 0001:00057b3c       ??_GFreeThreadProxyFactory@details@Concurrency@@UAEPAXI@Z 00458b3c f i libconcrt:ThreadProxyFactoryManager.obj
 0001:00057b5f       ??_EIThreadProxyFactory@details@Concurrency@@UAEPAXI@Z 00458b5f f i libconcrt:ThreadProxyFactoryManager.obj
 0001:00057b5f       ??_GIThreadProxyFactory@details@Concurrency@@UAEPAXI@Z 00458b5f f i libconcrt:ThreadProxyFactoryManager.obj
 0001:00057b82       ?Create@FreeThreadProxyFactory@details@Concurrency@@EAEPAVFreeThreadProxy@23@I@Z 00458b82 f i libconcrt:ThreadProxyFactoryManager.obj
 0001:00057bb7       ?CreateFactory@FreeThreadProxyFactory@details@Concurrency@@SAPAV123@PAVThreadProxyFactoryManager@23@@Z 00458bb7 f i libconcrt:ThreadProxyFactoryManager.obj
 0001:00057bec       ?GetExecutionResourceTls@?$ThreadProxyFactory@VFreeThreadProxy@details@Concurrency@@@details@Concurrency@@UAEKXZ 00458bec f i libconcrt:ThreadProxyFactoryManager.obj
 0001:00057bf0       ?GetFreeThreadProxyFactory@ThreadProxyFactoryManager@details@Concurrency@@QAEPAVFreeThreadProxyFactory@23@XZ 00458bf0 f   libconcrt:ThreadProxyFactoryManager.obj
 0001:00057c3b       ?Prepare@?$ThreadProxyFactory@VFreeThreadProxy@details@Concurrency@@@details@Concurrency@@MAEXPAVFreeThreadProxy@23@H@Z 00458c3b f i libconcrt:ThreadProxyFactoryManager.obj
 0001:00057c53       ?ReclaimProxy@?$ThreadProxyFactory@VFreeThreadProxy@details@Concurrency@@@details@Concurrency@@UAEXPAUIThreadProxy@3@@Z 00458c53 f i libconcrt:ThreadProxyFactoryManager.obj
 0001:00057cb4       ?ReclaimProxy@FreeThreadProxyFactory@details@Concurrency@@UAEXPAUIThreadProxy@3@@Z 00458cb4 f i libconcrt:ThreadProxyFactoryManager.obj
 0001:00057d57       ?Reference@FreeThreadProxyFactory@details@Concurrency@@UAEJXZ 00458d57 f i libconcrt:ThreadProxyFactoryManager.obj
 0001:00057d61       ?Release@FreeThreadProxyFactory@details@Concurrency@@UAEJXZ 00458d61 f i libconcrt:ThreadProxyFactoryManager.obj
 0001:00057d8e       ?RequestProxy@?$ThreadProxyFactory@VFreeThreadProxy@details@Concurrency@@@details@Concurrency@@UAEPAUIThreadProxy@3@IH@Z 00458d8e f i libconcrt:ThreadProxyFactoryManager.obj
 0001:00057e10       ?Retire@FreeThreadProxyFactory@details@Concurrency@@EAEXPAVFreeThreadProxy@23@@Z 00458e10 f i libconcrt:ThreadProxyFactoryManager.obj
 0001:00057e1f       ?RetireThreadProxies@?$ThreadProxyFactory@VFreeThreadProxy@details@Concurrency@@@details@Concurrency@@QAEXXZ 00458e1f f i libconcrt:ThreadProxyFactoryManager.obj
 0001:00057e8b       ?ShutdownFactory@FreeThreadProxyFactory@details@Concurrency@@UAEXXZ 00458e8b f i libconcrt:ThreadProxyFactoryManager.obj
 0001:00057eac       ?StaticInitialize@?$ThreadProxyFactory@VFreeThreadProxy@details@Concurrency@@@details@Concurrency@@KAXXZ 00458eac f i libconcrt:ThreadProxyFactoryManager.obj
 0001:00057ec3       ?YieldToSystem@FreeThreadProxy@details@Concurrency@@UAEXXZ 00458ec3 f i libconcrt:ThreadProxyFactoryManager.obj
 0001:00057ec8       ??0location@Concurrency@@QAE@W4_Type@01@IIPAX@Z 00458ec8 f   libconcrt:location.obj
 0001:00057eed       ?ContainsResourceId@SchedulingNode@details@Concurrency@@QAE_NI@Z 00458eed f i libconcrt:location.obj
 0001:00057f17       ?_FastNodeIntersects@location@Concurrency@@QBE_NABV12@@Z 00458f17 f   libconcrt:location.obj
 0001:00057f62       ?_FastVPIntersects@location@Concurrency@@QBE_NABV12@@Z 00458f62 f   libconcrt:location.obj
 0001:00057fae       ??0WorkItem@details@Concurrency@@QAE@PAVInternalContextBase@12@@Z 00458fae f   libconcrt:SearchAlgorithms.obj
 0001:00057fd4       ?AcquireQuickCacheSlot@SchedulerBase@details@Concurrency@@QAEPAVScheduleGroupSegmentBase@23@I@Z 00458fd4 f i libconcrt:SearchAlgorithms.obj
 0001:00057ff2       ?ActualGetQuickCacheSlot@SchedulerBase@details@Concurrency@@AAEPAVScheduleGroupSegmentBase@23@I@Z 00458ff2 f i libconcrt:SearchAlgorithms.obj
 0001:00058028       ?Bind@WorkItem@details@Concurrency@@QAEPAVInternalContextBase@23@XZ 00459028 f   libconcrt:SearchAlgorithms.obj
 0001:00058075       ?BindTo@WorkItem@details@Concurrency@@QAEXPAVInternalContextBase@23@@Z 00459075 f   libconcrt:SearchAlgorithms.obj
 0001:000580af       ?CheckPriorityList@WorkSearchContext@details@Concurrency@@AAE_N_K@Z 004590af f i libconcrt:SearchAlgorithms.obj
 0001:000580e2       ?GetLocalRunnable@WorkSearchContext@details@Concurrency@@AAE_NPAVWorkItem@23@PAVVirtualProcessor@23@_N@Z 004590e2 f   libconcrt:SearchAlgorithms.obj
 0001:0005815c       ?GetNextSchedulingNode@SchedulerBase@details@Concurrency@@QAEPAVSchedulingNode@23@PAHH@Z 0045915c f i libconcrt:SearchAlgorithms.obj
 0001:000581a9       ?GetPseudoRRAffineScheduleGroupSegment@SchedulingRing@details@Concurrency@@QAEPAVScheduleGroupSegmentBase@23@PAH@Z 004591a9 f i libconcrt:SearchAlgorithms.obj
 0001:000581e4       ?GetPseudoRRNonAffineScheduleGroupSegment@SchedulingRing@details@Concurrency@@QAEPAVScheduleGroupSegmentBase@23@PAH@Z 004591e4 f i libconcrt:SearchAlgorithms.obj
 0001:00058222       ?GetRealizedChore@WorkSearchContext@details@Concurrency@@AAE_NPAVWorkItem@23@PAVScheduleGroupSegmentBase@23@_N@Z 00459222 f   libconcrt:SearchAlgorithms.obj
 0001:00058272       ?GetRealizedChoreWithinGroup@WorkSearchContext@details@Concurrency@@AAE_NPAVWorkItem@23@PAVScheduleGroupSegmentBase@23@_NW4SearchAffinity@123@2@Z 00459272 f   libconcrt:SearchAlgorithms.obj
 0001:000582f5       ?GetRunnableContext@WorkSearchContext@details@Concurrency@@AAE_NPAVWorkItem@23@PAVScheduleGroupSegmentBase@23@@Z 004592f5 f   libconcrt:SearchAlgorithms.obj
 0001:00058332       ?GetRunnableContextWithinGroup@WorkSearchContext@details@Concurrency@@AAE_NPAVWorkItem@23@PAVScheduleGroupSegmentBase@23@W4SearchAffinity@123@_N@Z 00459332 f   libconcrt:SearchAlgorithms.obj
 0001:000583af       ?GetUnrealizedChore@WorkSearchContext@details@Concurrency@@AAE_NPAVWorkItem@23@PAVScheduleGroupSegmentBase@23@_N2@Z 004593af f   libconcrt:SearchAlgorithms.obj
 0001:000583f8       ?GetUnrealizedChoreWithinGroup@WorkSearchContext@details@Concurrency@@AAE_NPAVWorkItem@23@PAVScheduleGroupSegmentBase@23@_NW4SearchAffinity@123@2@Z 004593f8 f   libconcrt:SearchAlgorithms.obj
 0001:00058488       ?Invoke@WorkItem@details@Concurrency@@QAEXXZ 00459488 f   libconcrt:SearchAlgorithms.obj
 0001:000584cb       ?PeriodicScan@SchedulerBase@details@Concurrency@@QAEX_K@Z 004594cb f i libconcrt:SearchAlgorithms.obj
 0001:00058501       ?PreSearch@WorkSearchContext@details@Concurrency@@AAE_NPAVWorkItem@23@@Z 00459501 f   libconcrt:SearchAlgorithms.obj
 0001:0005853d       ?QuickSearch@WorkSearchContext@details@Concurrency@@AAE_NPAVScheduleGroupSegmentBase@23@PAVWorkItem@23@_NK@Z 0045953d f   libconcrt:SearchAlgorithms.obj
 0001:000585ad       ?QuickSearchYield@WorkSearchContext@details@Concurrency@@AAE_NPAVScheduleGroupSegmentBase@23@PAVWorkItem@23@_NK@Z 004595ad f   libconcrt:SearchAlgorithms.obj
 0001:0005861e       ?Reset@WorkSearchContext@details@Concurrency@@QAEXPAVVirtualProcessor@23@W4Algorithm@123@@Z 0045961e f   libconcrt:SearchAlgorithms.obj
 0001:0005867b       ?ResolveToken@WorkItem@details@Concurrency@@QAE_NXZ 0045967b f   libconcrt:SearchAlgorithms.obj
 0001:000586fc       ?SearchCacheLocal@WorkSearchContext@details@Concurrency@@AAE_NPAVWorkItem@23@PAVScheduleGroupSegmentBase@23@_NK@Z 004596fc f   libconcrt:SearchAlgorithms.obj
 0001:000589c4       ?SearchCacheLocalYield@WorkSearchContext@details@Concurrency@@AAE_NPAVWorkItem@23@PAVScheduleGroupSegmentBase@23@_NK@Z 004599c4 f   libconcrt:SearchAlgorithms.obj
 0001:00058c22       ?SearchCacheLocal_Realized@WorkSearchContext@details@Concurrency@@AAE_NPAVWorkItem@23@PAVSchedulingRing@23@PAVScheduleGroupSegmentBase@23@_NW4SearchAffinity@123@K3@Z 00459c22 f   libconcrt:SearchAlgorithms.obj
 0001:00058d12       ?SearchCacheLocal_Runnables@WorkSearchContext@details@Concurrency@@AAE_NPAVWorkItem@23@PAVSchedulingRing@23@PAVScheduleGroupSegmentBase@23@_NW4SearchAffinity@123@K3@Z 00459d12 f   libconcrt:SearchAlgorithms.obj
 0001:00058e1a       ?SearchCacheLocal_Unrealized@WorkSearchContext@details@Concurrency@@AAE_NPAVWorkItem@23@PAVSchedulingRing@23@PAVScheduleGroupSegmentBase@23@_NW4SearchAffinity@123@K3@Z 00459e1a f   libconcrt:SearchAlgorithms.obj
 0001:00058f0d       ?SearchFair@WorkSearchContext@details@Concurrency@@AAE_NPAVWorkItem@23@PAVScheduleGroupSegmentBase@23@_NK@Z 00459f0d f   libconcrt:SearchAlgorithms.obj
 0001:0005901f       ?SearchFairYield@WorkSearchContext@details@Concurrency@@AAE_NPAVWorkItem@23@PAVScheduleGroupSegmentBase@23@_NK@Z 0045a01f f   libconcrt:SearchAlgorithms.obj
 0001:00059127       ?SearchFair_Realized@WorkSearchContext@details@Concurrency@@AAE_NPAVWorkItem@23@PAVSchedulingRing@23@_N@Z 0045a127 f   libconcrt:SearchAlgorithms.obj
 0001:000591d2       ?SearchFair_Runnables@WorkSearchContext@details@Concurrency@@AAE_NPAVWorkItem@23@PAVSchedulingRing@23@@Z 0045a1d2 f   libconcrt:SearchAlgorithms.obj
 0001:00059253       ?SearchFair_Unrealized@WorkSearchContext@details@Concurrency@@AAE_NPAVWorkItem@23@PAVSchedulingRing@23@_N@Z 0045a253 f   libconcrt:SearchAlgorithms.obj
 0001:000592f8       ?ServiceMark@ScheduleGroupSegmentBase@details@Concurrency@@QAEX_K@Z 0045a2f8 f i libconcrt:SearchAlgorithms.obj
 0001:0005931e       ?ServiceMark@VirtualProcessor@details@Concurrency@@QAEX_K@Z 0045a31e f i libconcrt:SearchAlgorithms.obj
 0001:00059344       ?SkipSegmentSearch@WorkSearchContext@details@Concurrency@@AAE_NPAVScheduleGroupSegmentBase@23@0W4SearchAffinity@123@_N@Z 0045a344 f   libconcrt:SearchAlgorithms.obj
 0001:000593d0       ?StealForeignLocalRunnable@WorkSearchContext@details@Concurrency@@AAE_NPAVWorkItem@23@PAVSchedulingNode@23@@Z 0045a3d0 f   libconcrt:SearchAlgorithms.obj
 0001:00059415       ?StealLocalRunnable@WorkSearchContext@details@Concurrency@@AAE_NPAVWorkItem@23@PAVSchedulingNode@23@PAVVirtualProcessor@23@@Z 0045a415 f   libconcrt:SearchAlgorithms.obj
 0001:00059484       ?StealLocalRunnableContext@VirtualProcessor@details@Concurrency@@AAEPAVInternalContextBase@23@XZ 0045a484 f i libconcrt:SearchAlgorithms.obj
 0001:0005949b       ?TransferReferences@WorkItem@details@Concurrency@@QAEXPAVInternalContextBase@23@@Z 0045a49b f   libconcrt:SearchAlgorithms.obj
 0001:000594e8       ?Invoke@RealizedChore@details@Concurrency@@QAEXXZ 0045a4e8 f   libconcrt:RealizedChore.obj
 0001:000594fc       ??0ThreadVirtualProcessor@details@Concurrency@@QAE@PAVSchedulingNode@12@PAUIVirtualProcessorRoot@2@@Z 0045a4fc f   libconcrt:ThreadVirtualProcessor.obj
 0001:00059536       ??_EThreadVirtualProcessor@details@Concurrency@@UAEPAXI@Z 0045a536 f i libconcrt:ThreadVirtualProcessor.obj
 0001:00059536       ??_GThreadVirtualProcessor@details@Concurrency@@UAEPAXI@Z 0045a536 f i libconcrt:ThreadVirtualProcessor.obj
 0001:00059561       ??0VirtualProcessorRoot@details@Concurrency@@QAE@PAVSchedulerProxy@12@PAUSchedulerNode@12@I@Z 0045a561 f   libconcrt:VirtualProcessorRoot.obj
 0001:000595a9       ??_EVirtualProcessorRoot@details@Concurrency@@UAEPAXI@Z 0045a5a9 f i libconcrt:VirtualProcessorRoot.obj
 0001:000595a9       ??_GVirtualProcessorRoot@details@Concurrency@@UAEPAXI@Z 0045a5a9 f i libconcrt:VirtualProcessorRoot.obj
 0001:000595d3       ?CurrentSubscriptionLevel@VirtualProcessorRoot@details@Concurrency@@UBEIXZ 0045a5d3 f i libconcrt:VirtualProcessorRoot.obj
 0001:000595db       ?GetExecutionResourceId@VirtualProcessorRoot@details@Concurrency@@UBEIXZ 0045a5db f i libconcrt:VirtualProcessorRoot.obj
 0001:000595df       ?GetId@VirtualProcessorRoot@details@Concurrency@@UBEIXZ 0045a5df f i libconcrt:VirtualProcessorRoot.obj
 0001:000595e3       ?Remove@VirtualProcessorRoot@details@Concurrency@@UAEXPAUIScheduler@3@@Z 0045a5e3 f   libconcrt:VirtualProcessorRoot.obj
 0001:0005963b       ?ResetSubscriptionLevel@VirtualProcessorRoot@details@Concurrency@@QAEXXZ 0045a63b f   libconcrt:VirtualProcessorRoot.obj
 0001:00059651       ?Subscribe@VirtualProcessorRoot@details@Concurrency@@QAEXXZ 0045a651 f   libconcrt:VirtualProcessorRoot.obj
 0001:0005965e       ?Unsubscribe@VirtualProcessorRoot@details@Concurrency@@QAEXXZ 0045a65e f   libconcrt:VirtualProcessorRoot.obj
 0001:0005966b       ??0FreeVirtualProcessorRoot@details@Concurrency@@QAE@PAVSchedulerProxy@12@PAUSchedulerNode@12@I@Z 0045a66b f   libconcrt:FreeVirtualProcessorRoot.obj
 0001:0005969e       ??8HardwareAffinity@details@Concurrency@@QAE_NABU012@@Z 0045a69e f i libconcrt:FreeVirtualProcessorRoot.obj
 0001:000596be       ??_EFreeVirtualProcessorRoot@details@Concurrency@@UAEPAXI@Z 0045a6be f i libconcrt:FreeVirtualProcessorRoot.obj
 0001:000596be       ??_GFreeVirtualProcessorRoot@details@Concurrency@@UAEPAXI@Z 0045a6be f i libconcrt:FreeVirtualProcessorRoot.obj
 0001:000596e8       ?AcquireActivatedContext@VirtualProcessorRoot@details@Concurrency@@QAEPAUIExecutionContext@3@XZ 0045a6e8 f i libconcrt:FreeVirtualProcessorRoot.obj
 0001:0005971d       ?Activate@FreeVirtualProcessorRoot@details@Concurrency@@UAEXPAUIExecutionContext@3@@Z 0045a71d f   libconcrt:FreeVirtualProcessorRoot.obj
 0001:000597dc       ?Affinitize@FreeVirtualProcessorRoot@details@Concurrency@@QAEXPAVFreeThreadProxy@23@@Z 0045a7dc f   libconcrt:FreeVirtualProcessorRoot.obj
 0001:00059843       ?Deactivate@FreeVirtualProcessorRoot@details@Concurrency@@UAE_NPAUIExecutionContext@3@@Z 0045a843 f   libconcrt:FreeVirtualProcessorRoot.obj
 0001:000598d1       ?DeleteThis@FreeVirtualProcessorRoot@details@Concurrency@@UAEXXZ 0045a8d1 f   libconcrt:FreeVirtualProcessorRoot.obj
 0001:00059922       ?EnsureAllTasksVisible@FreeVirtualProcessorRoot@details@Concurrency@@UAEXPAUIExecutionContext@3@@Z 0045a922 f   libconcrt:FreeVirtualProcessorRoot.obj
 0001:0005998d       ?ResetOnIdle@FreeVirtualProcessorRoot@details@Concurrency@@QAEXW4SwitchingProxyState@3@@Z 0045a98d f   libconcrt:FreeVirtualProcessorRoot.obj
 0001:000599fa       ?SetAffinity@FreeThreadProxy@details@Concurrency@@QAEXUHardwareAffinity@23@@Z 0045a9fa f i libconcrt:FreeVirtualProcessorRoot.obj
 0001:00059a30       ?SpinUntilIdle@FreeVirtualProcessorRoot@details@Concurrency@@IAEXXZ 0045aa30 f i libconcrt:FreeVirtualProcessorRoot.obj
 0001:00059a64       ?AssociateExecutionContext@FreeThreadProxy@details@Concurrency@@QAEXPAUIExecutionContext@3@@Z 0045aa64 f   libconcrt:FreeThreadProxy.obj
 0001:00059a87       ?Dispatch@FreeThreadProxy@details@Concurrency@@EAEXXZ 0045aa87 f   libconcrt:FreeThreadProxy.obj
 0001:00059b30       ?ReturnIdleProxy@FreeThreadProxy@details@Concurrency@@QAEXXZ 0045ab30 f   libconcrt:FreeThreadProxy.obj
 0001:00059b51       ?SwitchOut@FreeThreadProxy@details@Concurrency@@UAEXW4SwitchingProxyState@3@@Z 0045ab51 f   libconcrt:FreeThreadProxy.obj
 0001:00059ba5       ?SwitchTo@FreeThreadProxy@details@Concurrency@@UAEXPAUIExecutionContext@3@W4SwitchingProxyState@3@@Z 0045aba5 f   libconcrt:FreeThreadProxy.obj
 0001:00059c64       ??0ThreadProxy@details@Concurrency@@QAE@PAUIThreadProxyFactory@12@I@Z 0045ac64 f   libconcrt:ThreadProxy.obj
 0001:00059d3f       ??0scheduler_worker_creation_error@Concurrency@@QAE@ABV01@@Z 0045ad3f f i libconcrt:ThreadProxy.obj
 0001:00059d5a       ??1ThreadProxy@details@Concurrency@@UAE@XZ 0045ad5a f   libconcrt:ThreadProxy.obj
 0001:00059dc0       ??_EThreadProxy@details@Concurrency@@UAEPAXI@Z 0045adc0 f i libconcrt:ThreadProxy.obj
 0001:00059dc0       ??_GThreadProxy@details@Concurrency@@UAEPAXI@Z 0045adc0 f i libconcrt:ThreadProxy.obj
 0001:00059de2       ?Cancel@ThreadProxy@details@Concurrency@@QAEXXZ 0045ade2 f   libconcrt:ThreadProxy.obj
 0001:00059df3       ?GetId@ThreadProxy@details@Concurrency@@UBEIXZ 0045adf3 f   libconcrt:ThreadProxy.obj
 0001:00059df7       ?ResumeExecution@ThreadProxy@details@Concurrency@@QAEXXZ 0045adf7 f   libconcrt:ThreadProxy.obj
 0001:00059e01       ?SetPriority@ThreadProxy@details@Concurrency@@QAEXH@Z 0045ae01 f   libconcrt:ThreadProxy.obj
 0001:00059e19       ?SpinUntilBlocked@ThreadProxy@details@Concurrency@@QAEXXZ 0045ae19 f   libconcrt:ThreadProxy.obj
 0001:00059e4b       ?SuspendExecution@ThreadProxy@details@Concurrency@@QAEXXZ 0045ae4b f   libconcrt:ThreadProxy.obj
 0001:00059e67       ?ThreadProxyMain@ThreadProxy@details@Concurrency@@CGKPAX@Z 0045ae67 f   libconcrt:ThreadProxy.obj
 0001:00059eb7       ??2@YAPAXI@Z               0045aeb7 f   LIBCMT:new_scalar.obj
 0001:00059ee7       ??2@YAPAXIW4align_val_t@std@@@Z 0045aee7 f   LIBCMT:new_scalar_align.obj
 0001:00059f1b       ??3@YAXPAXI@Z              0045af1b f   LIBCMT:delete_scalar_size.obj
 0001:00059f29       ??3@YAXPAXIW4align_val_t@std@@@Z 0045af29 f   LIBCMT:delete_scalar_size_align.obj
 0001:00059f3b       ??_U@YAPAXI@Z              0045af3b f   LIBCMT:new_array.obj
 0001:00059f44       ??_V@YAXPAXI@Z             0045af44 f   LIBCMT:delete_array_size.obj
 0001:00059f60       __alloca_probe_16          0045af60 f   LIBCMT:alloca16.obj
 0001:00059f76       __alloca_probe_8           0045af76     LIBCMT:alloca16.obj
 0001:00059f90       __allshl                   0045af90 f   LIBCMT:llshl.obj
 0001:00059fb0       __aulldvrm                 0045afb0 f   LIBCMT:ulldvrm.obj
 0001:0005a050       __aullshr                  0045b050 f   LIBCMT:ullshr.obj
 0001:0005a06f       ??_Etype_info@@UAEPAXI@Z   0045b06f f i LIBCMT:std_type_info_static.obj
 0001:0005a06f       ??_Gtype_info@@UAEPAXI@Z   0045b06f f i LIBCMT:std_type_info_static.obj
 0001:0005a092       ??3@YAXPAX@Z               0045b092 f   LIBCMT:delete_scalar.obj
 0001:0005a097       ??2@YAPAXIABUnothrow_t@std@@@Z 0045b097 f   LIBCMT:new_scalar_nothrow.obj
 0001:0005a0f0       __alloca_probe             0045b0f0 f   LIBCMT:chkstk.obj
 0001:0005a0f0       __chkstk                   0045b0f0 f   LIBCMT:chkstk.obj
 0001:0005a15d       ___scrt_acquire_startup_lock 0045b15d f   LIBCMT:utility.obj
 0001:0005a18f       ___scrt_initialize_crt     0045b18f f   LIBCMT:utility.obj
 0001:0005a1c8       ___scrt_initialize_onexit_tables 0045b1c8 f   LIBCMT:utility.obj
 0001:0005a24f       ___scrt_is_nonwritable_in_current_image 0045b24f f   LIBCMT:utility.obj
 0001:0005a2e6       ___scrt_release_startup_lock 0045b2e6 f   LIBCMT:utility.obj
 0001:0005a303       ___scrt_uninitialize_crt   0045b303 f   LIBCMT:utility.obj
 0001:0005a32b       __onexit                   0045b32b f   LIBCMT:utility.obj
 0001:0005a359       _atexit                    0045b359 f   LIBCMT:utility.obj
 0001:0005a370       __ftol3                    0045b370 f   LIBCMT:ftol3.obj
 0001:0005a3e0       __dtol3                    0045b3e0 f   LIBCMT:ftol3.obj
 0001:0005a6d9       _mainCRTStartup            0045b6d9 f   LIBCMT:exe_main.obj
 0001:0005a6e3       @__security_check_cookie@4 0045b6e3 f   LIBCMT:secchk.obj
 0001:0005a700       __aulldiv                  0045b700 f   LIBCMT:ulldiv.obj
 0001:0005a770       __alldiv                   0045b770 f   LIBCMT:lldiv.obj
 0001:0005a81a       ___isa_available_init      0045b81a f   LIBCMT:cpu_disp.obj
 0001:0005ab34       __EH_epilog3               0045bb34 f   LIBCMT:ehprolg3.obj
 0001:0005ab48       __EH_epilog3_GS            0045bb48 f   LIBCMT:ehprolg3.obj
 0001:0005ab57       __EH_prolog3               0045bb57 f   LIBCMT:ehprolg3.obj
 0001:0005ab8a       __EH_prolog3_GS            0045bb8a f   LIBCMT:ehprolg3.obj
 0001:0005abc0       __EH_prolog3_catch         0045bbc0 f   LIBCMT:ehprolg3.obj
 0001:0005ac00       __aullrem                  0045bc00 f   LIBCMT:ullrem.obj
 0001:0005ac80       __allmul                   0045bc80 f   LIBCMT:llmul.obj
 0001:0005acb4       ??_M@YGXPAXIIP6EX0@Z@Z     0045bcb4 f   LIBCMT:ehvecdtr.obj
 0001:0005ad3c       ?__ArrayUnwind@@YGXPAXIIP6EX0@Z@Z 0045bd3c f   LIBCMT:ehvecdtr.obj
 0001:0005add0       __SEH_prolog4              0045bdd0 f   LIBCMT:sehprolg4.obj
 0001:0005ae15       ??_L@YGXPAXIIP6EX0@Z1@Z    0045be15 f   LIBCMT:ehvecctr.obj
 0001:0005ae89       ?__scrt_throw_std_bad_array_new_length@@YAXXZ 0045be89 f   LIBCMT:throw_bad_alloc.obj
 0001:0005aea6       ??3@YAXPAXW4align_val_t@std@@@Z 0045bea6 f   LIBCMT:delete_scalar_align.obj
 0001:0005aeb4       ___scrt_is_ucrt_dll_in_use 0045beb4 f   LIBCMT:ucrt_detection.obj
 0001:0005aec0       ___scrt_fastfail           0045bec0 f   LIBCMT:utility_desktop.obj
 0001:0005afd5       ___scrt_initialize_mta     0045bfd5 f   LIBCMT:utility_desktop.obj
 0001:0005afda       ___scrt_is_managed_app     0045bfda f   LIBCMT:utility_desktop.obj
 0001:0005b01c       ___scrt_set_unhandled_exception_filter 0045c01c f   LIBCMT:utility_desktop.obj
 0001:0005b028       ___scrt_unhandled_exception_filter@4 0045c028 f   LIBCMT:utility_desktop.obj
 0001:0005b07e       __crt_debugger_hook        0045c07e f   LIBCMT:utility_desktop.obj
 0001:0005b0d6       ___security_init_cookie    0045c0d6 f   LIBCMT:gs_support.obj
 0001:0005b121       __get_startup_file_mode    0045c121 f   LIBCMT:file_mode.obj
 0001:0005b127       ?__scrt_initialize_type_info@@YAXXZ 0045c127 f   LIBCMT:tncleanup.obj
 0001:0005b133       __initialize_default_precision 0045c133 f   LIBCMT:default_precision.obj
 0001:0005b154       ___scrt_initialize_default_local_stdio_options 0045c154 f   LIBCMT:default_local_stdio_options.obj
 0001:0005b171       ___scrt_is_user_matherr_present 0045c171 f   LIBCMT:matherr_detection.obj
 0001:0005b17d       ___scrt_get_dyn_tls_init_callback 0045c17d f   LIBCMT:dyn_tls_init.obj
 0001:0005b183       ___scrt_get_dyn_tls_dtor_callback 0045c183 f   LIBCMT:dyn_tls_dtor.obj
 0001:0005b189       __RTC_Initialize           0045c189 f   LIBCMT:initsect.obj
 0001:0005b1b5       __RTC_Terminate            0045c1b5 f   LIBCMT:initsect.obj
 0001:0005b1e1       ___raise_securityfailure   0045c1e1 f   LIBCMT:gs_report.obj
 0001:0005b209       ___report_gsfailure        0045c209 f   LIBCMT:gs_report.obj
 0001:0005b304       ___report_rangecheckfailure 0045c304 f   LIBCMT:gs_report.obj
 0001:0005b311       ___report_securityfailure  0045c311 f   LIBCMT:gs_report.obj
 0001:0005b3e1       __get_purecall_handler     0045c3e1 f   libvcruntime:purevirt.obj
 0001:0005b3e8       __purecall                 0045c3e8 f   libvcruntime:purevirt.obj
 0001:0005b404       ___std_exception_copy      0045c404 f   libvcruntime:std_exception.obj
 0001:0005b467       ___std_exception_destroy   0045c467 f   libvcruntime:std_exception.obj
 0001:0005b489       __CxxThrowException@8      0045c489 f   libvcruntime:throw.obj
 0001:0005b4f6       ?GetRangeOfTrysToCheck@__FrameHandler3@@SA?AU?$pair@Viterator@TryBlockMap@__FrameHandler3@@V123@@std@@AAVTryBlockMap@1@HPAXPBU_s_FuncInfo@@H@Z 0045c4f6 f   libvcruntime:trnsctrl.obj
 0001:0005b565       ?_CallCatchBlock2@@YAPAXPAUEHRegistrationNode@@PBU_s_FuncInfo@@PAXHK@Z 0045c565 f   libvcruntime:trnsctrl.obj
 0001:0005b5c5       ?_CallSETranslator@@YAHPAUEHExceptionRecord@@PAUEHRegistrationNode@@PAX2PBU_s_FuncInfo@@H1@Z 0045c5c5 f   libvcruntime:trnsctrl.obj
 0001:0005b6c4       ?_JumpToContinuation@@YGXPAXPAUEHRegistrationNode@@@Z 0045c6c4 f   libvcruntime:trnsctrl.obj
 0001:0005b6f4       ?_UnwindNestedFrames@@YGXPAUEHRegistrationNode@@PAUEHExceptionRecord@@@Z 0045c6f4 f   libvcruntime:trnsctrl.obj
 0001:0005b748       __CatchGuardHandler        0045c748 f   libvcruntime:trnsctrl.obj
 0001:0005b779       __CreateFrameInfo          0045c779 f   libvcruntime:trnsctrl.obj
 0001:0005b79d       __FindAndUnlinkFrame       0045c79d f   libvcruntime:trnsctrl.obj
 0001:0005b7e5       __TranslatorGuardHandler   0045c7e5 f   libvcruntime:trnsctrl.obj
 0001:0005b884       ___CxxFrameHandler3        0045c884 f   libvcruntime:trnsctrl.obj
 0001:0005b8c0       _memcpy                    0045c8c0 f   libvcruntime:memcpy.obj
 0001:0005b8c0       _memmove                   0045c8c0 f   libvcruntime:memmove.obj
 0001:0005be40       _memset                    0045ce40 f   libvcruntime:memset.obj
 0001:0005bfa0       _strstr                    0045cfa0 f   libvcruntime:strstr.obj
 0001:0005c20b       ___DestructExceptionObject 0045d20b f   libvcruntime:ehhelpers.obj
 0001:0005c2b3       ?_CallMemberFunction0@@YGXQAX0@Z 0045d2b3 f i libvcruntime:ehhelpers.obj
 0001:0005c318       __IsExceptionObjectToBeDestroyed 0045d318 f   libvcruntime:ehhelpers.obj
 0001:0005c33e       ___AdjustPointer           0045d33e f   libvcruntime:ehhelpers.obj
 0001:0005c363       ___FrameUnwindFilter       0045d363 f   libvcruntime:ehhelpers.obj
 0001:0005c3b9       ___current_exception       0045d3b9 f   libvcruntime:ehhelpers.obj
 0001:0005c3c2       ___current_exception_context 0045d3c2 f   libvcruntime:ehhelpers.obj
 0001:0005c3cb       ___std_terminate           0045d3cb f   libvcruntime:ehhelpers.obj
 0001:0005c3d0       _memcmp                    0045d3d0 f   libvcruntime:memcmp.obj
 0001:0005d794       ___uncaught_exception      0045e794 f   libvcruntime:uncaught_exception.obj
 0001:0005d7f0       __except_handler4          0045e7f0 f   libvcruntime:chandler4.obj
 0001:0005d94e       ??0__non_rtti_object@std@@QAE@ABV01@@Z 0045e94e f i libvcruntime:rtti.obj
 0001:0005d969       ??0bad_typeid@std@@QAE@ABV01@@Z 0045e969 f i libvcruntime:rtti.obj
 0001:0005dd37       ?__construct_from_string_literal@__non_rtti_object@std@@SA?AV12@QBD@Z 0045ed37 f i libvcruntime:rtti.obj
 0001:0005dd59       ?__construct_from_string_literal@bad_cast@std@@SA?AV12@QBD@Z 0045ed59 f i libvcruntime:rtti.obj
 0001:0005dd7b       ___RTDynamicCast           0045ed7b f   libvcruntime:rtti.obj
 0001:0005de71       ___vcrt_initialize         0045ee71 f   libvcruntime:initialization.obj
 0001:0005de90       ___vcrt_uninitialize       0045ee90 f   libvcruntime:initialization.obj
 0001:0005dea7       ___std_type_info_compare   0045eea7 f   libvcruntime:std_type_info.obj
 0001:0005dee3       ___vcrt_freefls@4          0045eee3 f   libvcruntime:per_thread_data.obj
 0001:0005deff       ___vcrt_getptd             0045eeff f   libvcruntime:per_thread_data.obj
 0001:0005df0d       ___vcrt_getptd_noexit      0045ef0d f   libvcruntime:per_thread_data.obj
 0001:0005df9f       ___vcrt_getptd_noinit      0045ef9f f   libvcruntime:per_thread_data.obj
 0001:0005dfd7       ___vcrt_initialize_ptd     0045efd7 f   libvcruntime:per_thread_data.obj
 0001:0005e00a       ___vcrt_uninitialize_ptd   0045f00a f   libvcruntime:per_thread_data.obj
 0001:0005e75c       ??$TypeMatchHelper@V__FrameHandler3@@@@YAHPBU_s_HandlerType@@PBU_s_CatchableType@@PBU_s_ThrowInfo@@@Z 0045f75c f i libvcruntime:frame.obj
 0001:0005e7ea       ??$__InternalCxxFrameHandler@V__FrameHandler3@@@@YA?AW4_EXCEPTION_DISPOSITION@@PAUEHExceptionRecord@@PAUEHRegistrationNode@@PAU_CONTEXT@@PAXPBU_s_FuncInfo@@H1E@Z 0045f7ea f i libvcruntime:frame.obj
 0001:0005e8ec       ??$__InternalCxxFrameHandlerWrapper@V__FrameHandler3@@@@YA?AW4_EXCEPTION_DISPOSITION@@PAUEHExceptionRecord@@PAUEHRegistrationNode@@PAU_CONTEXT@@PAXPBU_s_FuncInfo@@H1E@Z 0045f8ec f i libvcruntime:frame.obj
 0001:0005e8f5       ??0bad_exception@std@@QAE@ABV01@@Z 0045f8f5 f i libvcruntime:frame.obj
 0001:0005e910       ??0bad_exception@std@@QAE@XZ 0045f910 f i libvcruntime:frame.obj
 0001:0005e92e       ??8type_info@@QBE_NABV0@@Z 0045f92e f i libvcruntime:frame.obj
 0001:0005eba8       ?FrameUnwindToEmptyState@__FrameHandler3@@SAXPAUEHRegistrationNode@@PAXPBU_s_FuncInfo@@@Z 0045fba8 f   libvcruntime:frame.obj
 0001:0005ebc0       ?FrameUnwindToState@__FrameHandler3@@SAXPAUEHRegistrationNode@@PAXPBU_s_FuncInfo@@H@Z 0045fbc0 f   libvcruntime:frame.obj
 0001:0005ed48       ?_CallMemberFunction1@@YGXQAX00@Z 0045fd48 f i libvcruntime:frame.obj
 0001:0005ed58       ?_CallMemberFunction2@@YGXQAX00H@Z 0045fd58 f i libvcruntime:frame.obj
 0001:0005ed6b       ?getESTypes@__FrameHandler3@@SAPBU_s_ESTypeList@@PBU_s_FuncInfo@@@Z 0045fd6b f i libvcruntime:frame.obj
 0001:0005ed80       __CallSettingFrame@12      0045fd80 f   libvcruntime:lowhelpr.obj
 0001:0005eda7       __NLG_Return               0045fda7     libvcruntime:lowhelpr.obj
 0001:0005edcc       ___except_validate_context_record 0045fdcc f   libvcruntime:jbcxrval.obj
 0001:0005ee00       _strchr                    0045fe00 f   libvcruntime:strchr.obj
 0001:0005ee6e       ___from_strstr_to_strchr   0045fe6e     libvcruntime:strchr.obj
 0001:0005ef30       __local_unwind4            0045ff30 f   libvcruntime:exsup4.obj
 0001:0005f020       @_EH4_CallFilterFunc@8     00460020 f   libvcruntime:exsup4.obj
 0001:0005f040       @_EH4_TransferToHandler@8  00460040 f   libvcruntime:exsup4.obj
 0001:0005f060       @_EH4_GlobalUnwind2@8      00460060 f   libvcruntime:exsup4.obj
 0001:0005f080       @_EH4_LocalUnwind@16       00460080 f   libvcruntime:exsup4.obj
 0001:0005f097       ___vcrt_initialize_locks   00460097 f   libvcruntime:locks.obj
 0001:0005f0d3       ___vcrt_uninitialize_locks 004600d3 f   libvcruntime:locks.obj
 0001:0005f1ed       ___vcrt_FlsAlloc           004601ed f   libvcruntime:winapi_downlevel.obj
 0001:0005f228       ___vcrt_FlsFree            00460228 f   libvcruntime:winapi_downlevel.obj
 0001:0005f263       ___vcrt_FlsGetValue        00460263 f   libvcruntime:winapi_downlevel.obj
 0001:0005f29e       ___vcrt_FlsSetValue        0046029e f   libvcruntime:winapi_downlevel.obj
 0001:0005f2dc       ___vcrt_InitializeCriticalSectionEx 004602dc f   libvcruntime:winapi_downlevel.obj
 0001:0005f323       _unexpected                00460323 f   libvcruntime:unexpected.obj
 0001:0005f340       ?GetCurrentState@__FrameHandler3@@SAHPAUEHRegistrationNode@@PAXPBU_s_FuncInfo@@@Z 00460340 f   libvcruntime:ehstate.obj
 0001:0005f35d       ?SetState@__FrameHandler3@@SAXPAUEHRegistrationNode@@PBU_s_FuncInfo@@H@Z 0046035d f   libvcruntime:ehstate.obj
 0001:0005f370       __NLG_Notify1              00460370 f   libvcruntime:exsup.obj
 0001:0005f380       __NLG_Notify               00460380 f   libvcruntime:exsup.obj
 0001:0005f397       __NLG_Dispatch             00460397     libvcruntime:exsup.obj
 0001:0005f397       __NLG_Dispatch2            00460397     libvcruntime:exsup.obj
 0001:0005f3a0       __NLG_Call                 004603a0 f   libvcruntime:exsup.obj
 0001:0005f3a2       __NLG_Return2              004603a2     libvcruntime:exsup.obj
 0001:0005f3a3       ??0__crt_cached_ptd_host@@QAE@QAU__crt_locale_pointers@@@Z 004603a3 f i libucrt:invalid_parameter.obj
 0001:0005f3eb       ??1__crt_cached_ptd_host@@QAE@XZ 004603eb f i libucrt:invalid_parameter.obj
 0001:0005f427       ?check_synchronize_global_state_index@__crt_cached_ptd_host@@AAEIXZ 00460427 f i libucrt:invalid_parameter.obj
 0001:0005f450       ?force_synchronize_per_thread_data@__crt_cached_ptd_host@@AAEPAU__acrt_ptd@@XZ 00460450 f i libucrt:invalid_parameter.obj
 0001:0005f496       ?get_raw_ptd@__crt_cached_ptd_host@@QAEPAU__acrt_ptd@@XZ 00460496 f i libucrt:invalid_parameter.obj
 0001:0005f4b3       ___acrt_call_reportfault   004604b3 f   libucrt:invalid_parameter.obj
 0001:0005f5ec       ___acrt_initialize_invalid_parameter_handler 004605ec f   libucrt:invalid_parameter.obj
 0001:0005f5fb       __invalid_parameter        004605fb f   libucrt:invalid_parameter.obj
 0001:0005f632       __invalid_parameter_internal 00460632 f   libucrt:invalid_parameter.obj
 0001:0005f6af       __invalid_parameter_noinfo 004606af f   libucrt:invalid_parameter.obj
 0001:0005f6bf       __invoke_watson            004606bf f   libucrt:invalid_parameter.obj
 0001:0005f700       __dclass                   00460700 f i libucrt:nan.obj
 0001:0005f700       __ldclass                  00460700 f i libucrt:nanl.obj
 0001:0005f720       __dsign                    00460720 f i libucrt:nan.obj
 0001:0005f720       __ldsign                   00460720 f i libucrt:nanl.obj
 0001:0005f730       __fdclass                  00460730 f i libucrt:nanf.obj
 0001:0005f750       __fdsign                   00460750 f i libucrt:nanf.obj
 0001:0005f760       _calloc                    00460760 f   libucrt:calloc.obj
 0001:0005f770       _free                      00460770 f   libucrt:free.obj
 0001:0005f780       _malloc                    00460780 f   libucrt:malloc.obj
 0001:0005f78b       ___acrt_initialize_stdio   0046078b f   libucrt:_file.obj
 0001:0005f853       ___acrt_iob_func           00460853 f   libucrt:_file.obj
 0001:0005f863       ___acrt_uninitialize_stdio 00460863 f   libucrt:_file.obj
 0001:0005f8af       __lock_file                004608af f   libucrt:_file.obj
 0001:0005f8c3       __unlock_file              004608c3 f   libucrt:_file.obj
 0001:0005f98e       _fopen                     0046098e f   libucrt:fopen.obj
 0001:0005f9a5       _fopen_s                   004609a5 f   libucrt:fopen.obj
 0001:0005fb11       _fclose                    00460b11 f   libucrt:fclose.obj
 0001:0005fb41       ?LongLongSub@@YAJ_J0PA_J@Z 00460b41 f i libucrt:fseek.obj
 0001:0005fe32       _fseek                     00460e32 f   libucrt:fseek.obj
 0001:000604bc       __ftelli64_nolock_internal 004614bc f   libucrt:ftell.obj
 0001:000604c7       _ftell                     004614c7 f   libucrt:ftell.obj
 0001:0006059e       __fwrite_internal          0046159e f   libucrt:fwrite.obj
 0001:00060615       __fwrite_nolock_internal   00461615 f   libucrt:fwrite.obj
 0001:000607a9       _fwrite                    004617a9 f   libucrt:fwrite.obj
 0001:00060bc5       ??$count@D@formatting_buffer@__crt_stdio_output@@QBEIXZ 00461bc5 f i libucrt:output.obj
 0001:00060bdd       ??$ensure_buffer_is_big_enough@D@formatting_buffer@__crt_stdio_output@@QAE_NIAAV__crt_cached_ptd_host@@@Z 00461bdd f i libucrt:output.obj
 0001:00060c5d       ??$is_overflow_condition@K@__crt_strtox@@YA_NIK@Z 00461c5d f i libucrt:output.obj
 0001:00060c91       ??$is_wide_character_specifier@D@__crt_stdio_output@@YA_N_KDW4length_modifier@0@@Z 00461c91 f i libucrt:output.obj
 0001:00060cc2       ??$make_c_string_character_source@DPAPAD@__crt_strtox@@YA?AV?$c_string_character_source@D@0@QBDQAPAD@Z 00461cc2 f i libucrt:output.obj
 0001:00060cc2       ??$make_c_string_character_source@_WPAPA_W@__crt_strtox@@YA?AV?$c_string_character_source@_W@0@QB_WQAPA_W@Z 00461cc2 f i libucrt:output.obj
 0001:00060cdd       ??$parse_integer@KV?$c_string_character_source@D@__crt_strtox@@$0A@@__crt_strtox@@YAKAAV__crt_cached_ptd_host@@V?$c_string_character_source@D@0@H_N@Z 00461cdd f i libucrt:output.obj
 0001:00060ef0       ??$scratch_data@D@formatting_buffer@__crt_stdio_output@@QAEPADXZ 00461ef0 f i libucrt:output.obj
 0001:00060f0e       ??$type_case_integer@$07@?$output_processor@DV?$stream_output_adapter@D@__crt_stdio_output@@V?$standard_base@DV?$stream_output_adapter@D@__crt_stdio_output@@@2@@__crt_stdio_output@@AAE_N_N@Z 00461f0e f i libucrt:output.obj
 0001:00060f0e       ??$type_case_integer@$07@?$output_processor@DV?$string_output_adapter@D@__crt_stdio_output@@V?$format_validation_base@DV?$string_output_adapter@D@__crt_stdio_output@@@2@@__crt_stdio_output@@AAE_N_N@Z 00461f0e f i libucrt:output.obj
 0001:00060f0e       ??$type_case_integer@$07@?$output_processor@DV?$string_output_adapter@D@__crt_stdio_output@@V?$standard_base@DV?$string_output_adapter@D@__crt_stdio_output@@@2@@__crt_stdio_output@@AAE_N_N@Z 00461f0e f i libucrt:output.obj
 0001:0006109b       ??$type_case_integer@$09@?$output_processor@DV?$stream_output_adapter@D@__crt_stdio_output@@V?$standard_base@DV?$stream_output_adapter@D@__crt_stdio_output@@@2@@__crt_stdio_output@@AAE_N_N@Z 0046209b f i libucrt:output.obj
 0001:0006109b       ??$type_case_integer@$09@?$output_processor@DV?$string_output_adapter@D@__crt_stdio_output@@V?$format_validation_base@DV?$string_output_adapter@D@__crt_stdio_output@@@2@@__crt_stdio_output@@AAE_N_N@Z 0046209b f i libucrt:output.obj
 0001:0006109b       ??$type_case_integer@$09@?$output_processor@DV?$string_output_adapter@D@__crt_stdio_output@@V?$standard_base@DV?$string_output_adapter@D@__crt_stdio_output@@@2@@__crt_stdio_output@@AAE_N_N@Z 0046209b f i libucrt:output.obj
 0001:00061228       ??$type_case_integer@$0BA@@?$output_processor@DV?$stream_output_adapter@D@__crt_stdio_output@@V?$standard_base@DV?$stream_output_adapter@D@__crt_stdio_output@@@2@@__crt_stdio_output@@AAE_N_N@Z 00462228 f i libucrt:output.obj
 0001:00061228       ??$type_case_integer@$0BA@@?$output_processor@DV?$string_output_adapter@D@__crt_stdio_output@@V?$format_validation_base@DV?$string_output_adapter@D@__crt_stdio_output@@@2@@__crt_stdio_output@@AAE_N_N@Z 00462228 f i libucrt:output.obj
 0001:00061228       ??$type_case_integer@$0BA@@?$output_processor@DV?$string_output_adapter@D@__crt_stdio_output@@V?$standard_base@DV?$string_output_adapter@D@__crt_stdio_output@@@2@@__crt_stdio_output@@AAE_N_N@Z 00462228 f i libucrt:output.obj
 0001:000613b5       ??$type_case_integer_parse_into_buffer@I$07@?$output_processor@DV?$stream_output_adapter@D@__crt_stdio_output@@V?$standard_base@DV?$stream_output_adapter@D@__crt_stdio_output@@@2@@__crt_stdio_output@@AAEXI_N@Z 004623b5 f i libucrt:output.obj
 0001:000613b5       ??$type_case_integer_parse_into_buffer@I$07@?$output_processor@DV?$string_output_adapter@D@__crt_stdio_output@@V?$format_validation_base@DV?$string_output_adapter@D@__crt_stdio_output@@@2@@__crt_stdio_output@@AAEXI_N@Z 004623b5 f i libucrt:output.obj
 0001:000613b5       ??$type_case_integer_parse_into_buffer@I$07@?$output_processor@DV?$string_output_adapter@D@__crt_stdio_output@@V?$standard_base@DV?$string_output_adapter@D@__crt_stdio_output@@@2@@__crt_stdio_output@@AAEXI_N@Z 004623b5 f i libucrt:output.obj
 0001:00061417       ??$type_case_integer_parse_into_buffer@I$09@?$output_processor@DV?$stream_output_adapter@D@__crt_stdio_output@@V?$standard_base@DV?$stream_output_adapter@D@__crt_stdio_output@@@2@@__crt_stdio_output@@AAEXI_N@Z 00462417 f i libucrt:output.obj
 0001:00061417       ??$type_case_integer_parse_into_buffer@I$09@?$output_processor@DV?$string_output_adapter@D@__crt_stdio_output@@V?$format_validation_base@DV?$string_output_adapter@D@__crt_stdio_output@@@2@@__crt_stdio_output@@AAEXI_N@Z 00462417 f i libucrt:output.obj
 0001:00061417       ??$type_case_integer_parse_into_buffer@I$09@?$output_processor@DV?$string_output_adapter@D@__crt_stdio_output@@V?$standard_base@DV?$string_output_adapter@D@__crt_stdio_output@@@2@@__crt_stdio_output@@AAEXI_N@Z 00462417 f i libucrt:output.obj
 0001:00061496       ??$type_case_integer_parse_into_buffer@I$0BA@@?$output_processor@DV?$stream_output_adapter@D@__crt_stdio_output@@V?$standard_base@DV?$stream_output_adapter@D@__crt_stdio_output@@@2@@__crt_stdio_output@@AAEXI_N@Z 00462496 f i libucrt:output.obj
 0001:00061496       ??$type_case_integer_parse_into_buffer@I$0BA@@?$output_processor@DV?$string_output_adapter@D@__crt_stdio_output@@V?$format_validation_base@DV?$string_output_adapter@D@__crt_stdio_output@@@2@@__crt_stdio_output@@AAEXI_N@Z 00462496 f i libucrt:output.obj
 0001:00061496       ??$type_case_integer_parse_into_buffer@I$0BA@@?$output_processor@DV?$string_output_adapter@D@__crt_stdio_output@@V?$standard_base@DV?$string_output_adapter@D@__crt_stdio_output@@@2@@__crt_stdio_output@@AAEXI_N@Z 00462496 f i libucrt:output.obj
 0001:00061512       ??$type_case_integer_parse_into_buffer@_K$07@?$output_processor@DV?$stream_output_adapter@D@__crt_stdio_output@@V?$standard_base@DV?$stream_output_adapter@D@__crt_stdio_output@@@2@@__crt_stdio_output@@AAEX_K_N@Z 00462512 f i libucrt:output.obj
 0001:00061512       ??$type_case_integer_parse_into_buffer@_K$07@?$output_processor@DV?$string_output_adapter@D@__crt_stdio_output@@V?$format_validation_base@DV?$string_output_adapter@D@__crt_stdio_output@@@2@@__crt_stdio_output@@AAEX_K_N@Z 00462512 f i libucrt:output.obj
 0001:00061512       ??$type_case_integer_parse_into_buffer@_K$07@?$output_processor@DV?$string_output_adapter@D@__crt_stdio_output@@V?$standard_base@DV?$string_output_adapter@D@__crt_stdio_output@@@2@@__crt_stdio_output@@AAEX_K_N@Z 00462512 f i libucrt:output.obj
 0001:00061586       ??$type_case_integer_parse_into_buffer@_K$09@?$output_processor@DV?$stream_output_adapter@D@__crt_stdio_output@@V?$standard_base@DV?$stream_output_adapter@D@__crt_stdio_output@@@2@@__crt_stdio_output@@AAEX_K_N@Z 00462586 f i libucrt:output.obj
 0001:00061586       ??$type_case_integer_parse_into_buffer@_K$09@?$output_processor@DV?$string_output_adapter@D@__crt_stdio_output@@V?$format_validation_base@DV?$string_output_adapter@D@__crt_stdio_output@@@2@@__crt_stdio_output@@AAEX_K_N@Z 00462586 f i libucrt:output.obj
 0001:00061586       ??$type_case_integer_parse_into_buffer@_K$09@?$output_processor@DV?$string_output_adapter@D@__crt_stdio_output@@V?$standard_base@DV?$string_output_adapter@D@__crt_stdio_output@@@2@@__crt_stdio_output@@AAEX_K_N@Z 00462586 f i libucrt:output.obj
 0001:00061618       ??$type_case_integer_parse_into_buffer@_K$0BA@@?$output_processor@DV?$stream_output_adapter@D@__crt_stdio_output@@V?$standard_base@DV?$stream_output_adapter@D@__crt_stdio_output@@@2@@__crt_stdio_output@@AAEX_K_N@Z 00462618 f i libucrt:output.obj
 0001:00061618       ??$type_case_integer_parse_into_buffer@_K$0BA@@?$output_processor@DV?$string_output_adapter@D@__crt_stdio_output@@V?$format_validation_base@DV?$string_output_adapter@D@__crt_stdio_output@@@2@@__crt_stdio_output@@AAEX_K_N@Z 00462618 f i libucrt:output.obj
 0001:00061618       ??$type_case_integer_parse_into_buffer@_K$0BA@@?$output_processor@DV?$string_output_adapter@D@__crt_stdio_output@@V?$standard_base@DV?$string_output_adapter@D@__crt_stdio_output@@@2@@__crt_stdio_output@@AAEX_K_N@Z 00462618 f i libucrt:output.obj
 0001:0006169e       ??0?$output_adapter_data@DV?$stream_output_adapter@D@__crt_stdio_output@@@__crt_stdio_output@@IAE@ABV?$stream_output_adapter@D@1@_KQBDAAV__crt_cached_ptd_host@@QAD@Z 0046269e f i libucrt:output.obj
 0001:0006169e       ??0?$output_adapter_data@DV?$string_output_adapter@D@__crt_stdio_output@@@__crt_stdio_output@@IAE@ABV?$string_output_adapter@D@1@_KQBDAAV__crt_cached_ptd_host@@QAD@Z 0046269e f i libucrt:output.obj
 0001:00061705       ??1formatting_buffer@__crt_stdio_output@@QAE@XZ 00462705 f i libucrt:output.obj
 0001:0006171f       ??4?$__crt_unique_heap_ptr@DU__crt_internal_free_policy@@@@QAEAAV0@$$QAV0@@Z 0046271f f i libucrt:output.obj
 0001:000617df       ?crop_zeroes@__crt_stdio_output@@YAXPADQAU__crt_locale_pointers@@@Z 004627df f i libucrt:output.obj
 0001:00061849       ?find_next_state@?$output_processor@DV?$stream_output_adapter@D@__crt_stdio_output@@V?$standard_base@DV?$stream_output_adapter@D@__crt_stdio_output@@@2@@__crt_stdio_output@@ABE?AW4state@2@DW432@@Z 00462849 f i libucrt:output.obj
 0001:00061849       ?find_next_state@?$output_processor@DV?$string_output_adapter@D@__crt_stdio_output@@V?$standard_base@DV?$string_output_adapter@D@__crt_stdio_output@@@2@@__crt_stdio_output@@ABE?AW4state@2@DW432@@Z 00462849 f i libucrt:output.obj
 0001:00061884       ?find_next_state@?$output_processor@DV?$string_output_adapter@D@__crt_stdio_output@@V?$format_validation_base@DV?$string_output_adapter@D@__crt_stdio_output@@@2@@__crt_stdio_output@@ABE?AW4state@2@DW432@@Z 00462884 f i libucrt:output.obj
 0001:000618c1       ?force_decimal_point@__crt_stdio_output@@YAXPADQAU__crt_locale_pointers@@@Z 004628c1 f i libucrt:output.obj
 0001:00061923       ?parse_int_from_format_string@?$output_processor@DV?$stream_output_adapter@D@__crt_stdio_output@@V?$standard_base@DV?$stream_output_adapter@D@__crt_stdio_output@@@2@@__crt_stdio_output@@AAE_NQAH@Z 00462923 f i libucrt:output.obj
 0001:00061923       ?parse_int_from_format_string@?$output_processor@DV?$string_output_adapter@D@__crt_stdio_output@@V?$format_validation_base@DV?$string_output_adapter@D@__crt_stdio_output@@@2@@__crt_stdio_output@@AAE_NQAH@Z 00462923 f i libucrt:output.obj
 0001:00061923       ?parse_int_from_format_string@?$output_processor@DV?$string_output_adapter@D@__crt_stdio_output@@V?$standard_base@DV?$string_output_adapter@D@__crt_stdio_output@@@2@@__crt_stdio_output@@AAE_NQAH@Z 00462923 f i libucrt:output.obj
 0001:0006199b       ?process@?$output_processor@DV?$stream_output_adapter@D@__crt_stdio_output@@V?$standard_base@DV?$stream_output_adapter@D@__crt_stdio_output@@@2@@__crt_stdio_output@@QAEHXZ 0046299b f i libucrt:output.obj
 0001:00061c43       ?process@?$output_processor@DV?$string_output_adapter@D@__crt_stdio_output@@V?$format_validation_base@DV?$string_output_adapter@D@__crt_stdio_output@@@2@@__crt_stdio_output@@QAEHXZ 00462c43 f i libucrt:output.obj
 0001:00061f2b       ?process@?$output_processor@DV?$string_output_adapter@D@__crt_stdio_output@@V?$standard_base@DV?$string_output_adapter@D@__crt_stdio_output@@@2@@__crt_stdio_output@@QAEHXZ 00462f2b f i libucrt:output.obj
 0001:000621ff       ?state_case_size@?$output_processor@DV?$stream_output_adapter@D@__crt_stdio_output@@V?$standard_base@DV?$stream_output_adapter@D@__crt_stdio_output@@@2@@__crt_stdio_output@@AAE_NXZ 004631ff f i libucrt:output.obj
 0001:00062358       ?state_case_size@?$output_processor@DV?$string_output_adapter@D@__crt_stdio_output@@V?$format_validation_base@DV?$string_output_adapter@D@__crt_stdio_output@@@2@@__crt_stdio_output@@AAE_NXZ 00463358 f i libucrt:output.obj
 0001:00062358       ?state_case_size@?$output_processor@DV?$string_output_adapter@D@__crt_stdio_output@@V?$standard_base@DV?$string_output_adapter@D@__crt_stdio_output@@@2@@__crt_stdio_output@@AAE_NXZ 00463358 f i libucrt:output.obj
 0001:000624b1       ?state_case_type@?$output_processor@DV?$stream_output_adapter@D@__crt_stdio_output@@V?$standard_base@DV?$stream_output_adapter@D@__crt_stdio_output@@@2@@__crt_stdio_output@@AAE_NXZ 004634b1 f i libucrt:output.obj
 0001:000628a8       ?state_case_type@?$output_processor@DV?$string_output_adapter@D@__crt_stdio_output@@V?$format_validation_base@DV?$string_output_adapter@D@__crt_stdio_output@@@2@@__crt_stdio_output@@AAE_NXZ 004638a8 f i libucrt:output.obj
 0001:000628a8       ?state_case_type@?$output_processor@DV?$string_output_adapter@D@__crt_stdio_output@@V?$standard_base@DV?$string_output_adapter@D@__crt_stdio_output@@@2@@__crt_stdio_output@@AAE_NXZ 004638a8 f i libucrt:output.obj
 0001:00062ce7       ?to_integer_size@__crt_stdio_output@@YAIW4length_modifier@1@@Z 00463ce7 f i libucrt:output.obj
 0001:00062d3b       ?type_case_Z@?$output_processor@DV?$stream_output_adapter@D@__crt_stdio_output@@V?$standard_base@DV?$stream_output_adapter@D@__crt_stdio_output@@@2@@__crt_stdio_output@@AAE_NXZ 00463d3b f i libucrt:output.obj
 0001:00062d3b       ?type_case_Z@?$output_processor@DV?$string_output_adapter@D@__crt_stdio_output@@V?$format_validation_base@DV?$string_output_adapter@D@__crt_stdio_output@@@2@@__crt_stdio_output@@AAE_NXZ 00463d3b f i libucrt:output.obj
 0001:00062d3b       ?type_case_Z@?$output_processor@DV?$string_output_adapter@D@__crt_stdio_output@@V?$standard_base@DV?$string_output_adapter@D@__crt_stdio_output@@@2@@__crt_stdio_output@@AAE_NXZ 00463d3b f i libucrt:output.obj
 0001:00062dae       ?type_case_a@?$output_processor@DV?$stream_output_adapter@D@__crt_stdio_output@@V?$standard_base@DV?$stream_output_adapter@D@__crt_stdio_output@@@2@@__crt_stdio_output@@AAE_NXZ 00463dae f i libucrt:output.obj
 0001:00062dae       ?type_case_a@?$output_processor@DV?$string_output_adapter@D@__crt_stdio_output@@V?$format_validation_base@DV?$string_output_adapter@D@__crt_stdio_output@@@2@@__crt_stdio_output@@AAE_NXZ 00463dae f i libucrt:output.obj
 0001:00062dae       ?type_case_a@?$output_processor@DV?$string_output_adapter@D@__crt_stdio_output@@V?$standard_base@DV?$string_output_adapter@D@__crt_stdio_output@@@2@@__crt_stdio_output@@AAE_NXZ 00463dae f i libucrt:output.obj
 0001:00062f65       ?type_case_c_tchar@?$output_processor@DV?$stream_output_adapter@D@__crt_stdio_output@@V?$standard_base@DV?$stream_output_adapter@D@__crt_stdio_output@@@2@@__crt_stdio_output@@AAE_ND@Z 00463f65 f i libucrt:output.obj
 0001:00062f65       ?type_case_c_tchar@?$output_processor@DV?$string_output_adapter@D@__crt_stdio_output@@V?$format_validation_base@DV?$string_output_adapter@D@__crt_stdio_output@@@2@@__crt_stdio_output@@AAE_ND@Z 00463f65 f i libucrt:output.obj
 0001:00062f65       ?type_case_c_tchar@?$output_processor@DV?$string_output_adapter@D@__crt_stdio_output@@V?$standard_base@DV?$string_output_adapter@D@__crt_stdio_output@@@2@@__crt_stdio_output@@AAE_ND@Z 00463f65 f i libucrt:output.obj
 0001:00062ff1       ?type_case_n@?$output_processor@DV?$stream_output_adapter@D@__crt_stdio_output@@V?$standard_base@DV?$stream_output_adapter@D@__crt_stdio_output@@@2@@__crt_stdio_output@@AAE_NXZ 00463ff1 f i libucrt:output.obj
 0001:00062ff1       ?type_case_n@?$output_processor@DV?$string_output_adapter@D@__crt_stdio_output@@V?$format_validation_base@DV?$string_output_adapter@D@__crt_stdio_output@@@2@@__crt_stdio_output@@AAE_NXZ 00463ff1 f i libucrt:output.obj
 0001:00062ff1       ?type_case_n@?$output_processor@DV?$string_output_adapter@D@__crt_stdio_output@@V?$standard_base@DV?$string_output_adapter@D@__crt_stdio_output@@@2@@__crt_stdio_output@@AAE_NXZ 00463ff1 f i libucrt:output.obj
 0001:00063076       ?type_case_o@?$output_processor@DV?$stream_output_adapter@D@__crt_stdio_output@@V?$standard_base@DV?$stream_output_adapter@D@__crt_stdio_output@@@2@@__crt_stdio_output@@AAE_NXZ 00464076 f i libucrt:output.obj
 0001:00063076       ?type_case_o@?$output_processor@DV?$string_output_adapter@D@__crt_stdio_output@@V?$format_validation_base@DV?$string_output_adapter@D@__crt_stdio_output@@@2@@__crt_stdio_output@@AAE_NXZ 00464076 f i libucrt:output.obj
 0001:00063076       ?type_case_o@?$output_processor@DV?$string_output_adapter@D@__crt_stdio_output@@V?$standard_base@DV?$string_output_adapter@D@__crt_stdio_output@@@2@@__crt_stdio_output@@AAE_NXZ 00464076 f i libucrt:output.obj
 0001:00063093       ?type_case_p@?$output_processor@DV?$stream_output_adapter@D@__crt_stdio_output@@V?$standard_base@DV?$stream_output_adapter@D@__crt_stdio_output@@@2@@__crt_stdio_output@@AAE_NXZ 00464093 f i libucrt:output.obj
 0001:00063093       ?type_case_p@?$output_processor@DV?$string_output_adapter@D@__crt_stdio_output@@V?$format_validation_base@DV?$string_output_adapter@D@__crt_stdio_output@@@2@@__crt_stdio_output@@AAE_NXZ 00464093 f i libucrt:output.obj
 0001:00063093       ?type_case_p@?$output_processor@DV?$string_output_adapter@D@__crt_stdio_output@@V?$standard_base@DV?$string_output_adapter@D@__crt_stdio_output@@@2@@__crt_stdio_output@@AAE_NXZ 00464093 f i libucrt:output.obj
 0001:000630a9       ?type_case_s@?$output_processor@DV?$stream_output_adapter@D@__crt_stdio_output@@V?$standard_base@DV?$stream_output_adapter@D@__crt_stdio_output@@@2@@__crt_stdio_output@@AAE_NXZ 004640a9 f i libucrt:output.obj
 0001:000630a9       ?type_case_s@?$output_processor@DV?$string_output_adapter@D@__crt_stdio_output@@V?$format_validation_base@DV?$string_output_adapter@D@__crt_stdio_output@@@2@@__crt_stdio_output@@AAE_NXZ 004640a9 f i libucrt:output.obj
 0001:000630a9       ?type_case_s@?$output_processor@DV?$string_output_adapter@D@__crt_stdio_output@@V?$standard_base@DV?$string_output_adapter@D@__crt_stdio_output@@@2@@__crt_stdio_output@@AAE_NXZ 004640a9 f i libucrt:output.obj
 0001:0006311c       ?unget@?$c_string_character_source@D@__crt_strtox@@QAEXD@Z 0046411c f i libucrt:output.obj
 0001:00063145       ?unget@?$c_string_character_source@_W@__crt_strtox@@QAEX_W@Z 00464145 f i libucrt:output.obj
 0001:00063180       ?update_locale_slow@__crt_cached_ptd_host@@AAEXXZ 00464180 f i libucrt:output.obj
 0001:000631db       ?validate@?$c_string_character_source@D@__crt_strtox@@QBE_NXZ 004641db f i libucrt:output.obj
 0001:000631db       ?validate@?$c_string_character_source@_W@__crt_strtox@@QBE_NXZ 004641db f i libucrt:output.obj
 0001:000631f6       ?validate@?$stream_output_adapter@D@__crt_stdio_output@@QBE_NAAV__crt_cached_ptd_host@@@Z 004641f6 f i libucrt:output.obj
 0001:0006322e       ?validate@?$string_output_adapter@D@__crt_stdio_output@@QBE_NAAV__crt_cached_ptd_host@@@Z 0046422e f i libucrt:output.obj
 0001:0006325f       ?validate_stream_is_ansi_if_required@?$__acrt_stdio_char_traits@D@@SA_NQAU_iobuf@@@Z 0046425f f i libucrt:output.obj
 0001:000632e6       ?write_character@?$output_adapter_common@DV?$stream_output_adapter@D@__crt_stdio_output@@@__crt_stdio_output@@QBEXDQAHAAV__crt_cached_ptd_host@@@Z 004642e6 f i libucrt:output.obj
 0001:00063308       ?write_character_without_count_update@?$stream_output_adapter@D@__crt_stdio_output@@QBE_NDAAV__crt_cached_ptd_host@@@Z 00464308 f i libucrt:output.obj
 0001:00063342       ?write_string@?$stream_output_adapter@D@__crt_stdio_output@@QBEXQBDHQAHAAV__crt_cached_ptd_host@@@Z 00464342 f i libucrt:output.obj
 0001:0006336e       ?write_string@?$string_output_adapter@D@__crt_stdio_output@@QBEXQBDHQAHAAV__crt_cached_ptd_host@@@Z 0046436e f i libucrt:output.obj
 0001:000633dd       ?write_string_impl@?$output_adapter_common@DV?$stream_output_adapter@D@__crt_stdio_output@@@__crt_stdio_output@@IBEXQBDHQAHAAV__crt_cached_ptd_host@@@Z 004643dd f i libucrt:output.obj
 0001:0006345c       ___acrt_locale_get_ctype_array_value 0046445c f i libucrt:output.obj
 0001:0006347e       ___stdio_common_vfprintf   0046447e f   libucrt:output.obj
 0001:00063522       ___stdio_common_vsprintf   00464522 f   libucrt:output.obj
 0001:00063563       ___stdio_common_vsprintf_s 00464563 f   libucrt:output.obj
 0001:000635a4       _terminate                 004645a4 f   libucrt:terminate.obj
 0001:0006373c       __beginthreadex            0046473c f   libucrt:thread.obj
 0001:000637bf       __endthreadex              004647bf f   libucrt:thread.obj
 0001:000637cd       _localeconv                004647cd f   libucrt:localeconv.obj
 0001:000637f5       ??$is_overflow_condition@_K@__crt_strtox@@YA_NI_K@Z 004647f5 f i libucrt:strtox.obj
 0001:00063836       ??$parse_integer@KV?$c_string_character_source@D@__crt_strtox@@$00@__crt_strtox@@YAKAAV__crt_cached_ptd_host@@V?$c_string_character_source@D@0@H_N@Z 00464836 f i libucrt:strtox.obj
 0001:00063a81       ??$parse_integer@KV?$c_string_character_source@_W@__crt_strtox@@$00@__crt_strtox@@YAKAAV__crt_cached_ptd_host@@V?$c_string_character_source@_W@0@H_N@Z 00464a81 f i libucrt:strtox.obj
 0001:000640a4       ??$parse_integer@_KV?$c_string_character_source@D@__crt_strtox@@$00@__crt_strtox@@YA_KAAV__crt_cached_ptd_host@@V?$c_string_character_source@D@0@H_N@Z 004650a4 f i libucrt:strtox.obj
 0001:00064354       __ischartype_l             00465354 f i libucrt:strtox.obj
 0001:000643ab       _strtoll                   004653ab f   libucrt:strtox.obj
 0001:000643f7       _strtoull                  004653f7 f   libucrt:strtox.obj
 0001:00064443       _wcstol                    00465443 f   libucrt:strtox.obj
 0001:00064489       ??$assemble_floating_point_snan@N@__crt_strtox@@YAX_NAAN@Z 00465489 f i libucrt:input.obj
 0001:000644aa       ??$assemble_floating_point_value_t@M@__crt_strtox@@YA?AW4SLD_STATUS@@_NH_KAAM@Z 004654aa f i libucrt:input.obj
 0001:000644e9       ??$assemble_floating_point_value_t@N@__crt_strtox@@YA?AW4SLD_STATUS@@_NH_KAAN@Z 004654e9 f i libucrt:input.obj
 0001:000645df       ??$convert_decimal_string_to_floating_type@M@__crt_strtox@@YA?AW4SLD_STATUS@@ABUfloating_point_string@0@AAM@Z 004655df f i libucrt:input.obj
 0001:00064600       ??$convert_decimal_string_to_floating_type@N@__crt_strtox@@YA?AW4SLD_STATUS@@ABUfloating_point_string@0@AAN@Z 00465600 f i libucrt:input.obj
 0001:00064621       ??$convert_hexadecimal_string_to_floating_type@M@__crt_strtox@@YA?AW4SLD_STATUS@@ABUfloating_point_string@0@AAM@Z 00465621 f i libucrt:input.obj
 0001:00064642       ??$convert_hexadecimal_string_to_floating_type@N@__crt_strtox@@YA?AW4SLD_STATUS@@ABUfloating_point_string@0@AAN@Z 00465642 f i libucrt:input.obj
 0001:00064663       ??$make_input_adapter_character_source@V?$string_input_adapter@D@__crt_stdio_input@@@__crt_strtox@@YA?AV?$input_adapter_character_source@V?$string_input_adapter@D@__crt_stdio_input@@@0@QAV?$string_input_adapter@D@__crt_stdio_input@@_KQA_N@Z 00465663 f i libucrt:input.obj
 0001:00064681       ??$parse_floating_point@V?$input_adapter_character_source@V?$string_input_adapter@D@__crt_stdio_input@@@__crt_strtox@@M@__crt_strtox@@YA?AW4SLD_STATUS@@QAU__crt_locale_pointers@@V?$input_adapter_character_source@V?$string_input_adapter@D@__crt_stdio_input@@@0@QAM@Z 00465681 f i libucrt:input.obj
 0001:0006470b       ??$parse_floating_point@V?$input_adapter_character_source@V?$string_input_adapter@D@__crt_stdio_input@@@__crt_strtox@@N@__crt_strtox@@YA?AW4SLD_STATUS@@QAU__crt_locale_pointers@@V?$input_adapter_character_source@V?$string_input_adapter@D@__crt_stdio_input@@@0@QAN@Z 0046570b f i libucrt:input.obj
 0001:00064795       ??$parse_floating_point_from_source@V?$input_adapter_character_source@V?$string_input_adapter@D@__crt_stdio_input@@@__crt_strtox@@@__crt_strtox@@YA?AW4floating_point_parse_result@0@QAU__crt_locale_pointers@@AAV?$input_adapter_character_source@V?$string_input_adapter@D@__crt_stdio_input@@@0@AAUfloating_point_string@0@@Z 00465795 f i libucrt:input.obj
 0001:00064c02       ??$parse_floating_point_possible_infinity@DV?$input_adapter_character_source@V?$string_input_adapter@D@__crt_stdio_input@@@__crt_strtox@@_K@__crt_strtox@@YA?AW4floating_point_parse_result@0@AADAAV?$input_adapter_character_source@V?$string_input_adapter@D@__crt_stdio_input@@@0@_K@Z 00465c02 f i libucrt:input.obj
 0001:00064cbd       ??$parse_floating_point_possible_nan@DV?$input_adapter_character_source@V?$string_input_adapter@D@__crt_stdio_input@@@__crt_strtox@@_K@__crt_strtox@@YA?AW4floating_point_parse_result@0@AADAAV?$input_adapter_character_source@V?$string_input_adapter@D@__crt_stdio_input@@@0@_K@Z 00465cbd f i libucrt:input.obj
 0001:00064dc5       ??$parse_floating_point_possible_nan_is_ind@DV?$input_adapter_character_source@V?$string_input_adapter@D@__crt_stdio_input@@@__crt_strtox@@@__crt_strtox@@YA_NAADAAV?$input_adapter_character_source@V?$string_input_adapter@D@__crt_stdio_input@@@0@@Z 00465dc5 f i libucrt:input.obj
 0001:00064dff       ??$parse_floating_point_possible_nan_is_snan@DV?$input_adapter_character_source@V?$string_input_adapter@D@__crt_stdio_input@@@__crt_strtox@@@__crt_strtox@@YA_NAADAAV?$input_adapter_character_source@V?$string_input_adapter@D@__crt_stdio_input@@@0@@Z 00465dff f i libucrt:input.obj
 0001:00064e39       ??$parse_floating_point_write_result@M@__crt_strtox@@YA?AW4SLD_STATUS@@W4floating_point_parse_result@0@ABUfloating_point_string@0@QAM@Z 00465e39 f i libucrt:input.obj
 0001:00064f81       ??$parse_floating_point_write_result@N@__crt_strtox@@YA?AW4SLD_STATUS@@W4floating_point_parse_result@0@ABUfloating_point_string@0@QAN@Z 00465f81 f i libucrt:input.obj
 0001:000650a5       ??$parse_integer@_KV?$input_adapter_character_source@V?$string_input_adapter@D@__crt_stdio_input@@@__crt_strtox@@$00@__crt_strtox@@YA_KAAV__crt_cached_ptd_host@@V?$input_adapter_character_source@V?$string_input_adapter@D@__crt_stdio_input@@@0@H_N@Z 004660a5 f i libucrt:input.obj
 0001:00065399       ??$parse_integer@_KV?$input_adapter_character_source@V?$string_input_adapter@D@__crt_stdio_input@@@__crt_strtox@@@__crt_strtox@@YA_KQAU__crt_locale_pointers@@V?$input_adapter_character_source@V?$string_input_adapter@D@__crt_stdio_input@@@0@H_N@Z 00466399 f i libucrt:input.obj
 0001:000653f5       ??$process_floating_point_specifier_t@M@?$input_processor@DV?$string_input_adapter@D@__crt_stdio_input@@@__crt_stdio_input@@AAE_NXZ 004663f5 f i libucrt:input.obj
 0001:0006545d       ??$process_floating_point_specifier_t@N@?$input_processor@DV?$string_input_adapter@D@__crt_stdio_input@@@__crt_stdio_input@@AAE_NXZ 0046645d f i libucrt:input.obj
 0001:000654c9       ??$process_string_specifier_tchar@D@?$input_processor@DV?$string_input_adapter@D@__crt_stdio_input@@@__crt_stdio_input@@AAE_NW4conversion_mode@1@D@Z 004664c9 f i libucrt:input.obj
 0001:00065635       ??$process_string_specifier_tchar@_W@?$input_processor@DV?$string_input_adapter@D@__crt_stdio_input@@@__crt_stdio_input@@AAE_NW4conversion_mode@1@_W@Z 00466635 f i libucrt:input.obj
 0001:000657ad       ??$skip_whitespace@Vstring_input_adapter@__crt_stdio_input@@D@__crt_stdio_input@@YAHAAV?$string_input_adapter@D@0@QAU__crt_locale_pointers@@@Z 004667ad f i libucrt:input.obj
 0001:000657dc       ??$write_floating_point@M@?$input_processor@DV?$string_input_adapter@D@__crt_stdio_input@@@__crt_stdio_input@@AAE_NABM@Z 004667dc f i libucrt:input.obj
 0001:00065811       ??$write_floating_point@N@?$input_processor@DV?$string_input_adapter@D@__crt_stdio_input@@@__crt_stdio_input@@AAE_NABN@Z 00466811 f i libucrt:input.obj
 0001:0006584c       ??0?$format_string_parser@D@__crt_stdio_input@@QAE@_KQBE@Z 0046684c f i libucrt:input.obj
 0001:00065896       ??0?$input_adapter_character_source@V?$string_input_adapter@D@__crt_stdio_input@@@__crt_strtox@@QAE@$$QAV01@@Z 00466896 f i libucrt:input.obj
 0001:000658d3       ??0?$input_adapter_character_source@V?$string_input_adapter@D@__crt_stdio_input@@@__crt_strtox@@QAE@QAV?$string_input_adapter@D@__crt_stdio_input@@_KQA_N@Z 004668d3 f i libucrt:input.obj
 0001:00065904       ??0?$input_processor@DV?$string_input_adapter@D@__crt_stdio_input@@@__crt_stdio_input@@QAE@ABV?$string_input_adapter@D@1@_KQBDQAU__crt_locale_pointers@@QAD@Z 00466904 f i libucrt:input.obj
 0001:00065948       ??0_LocaleUpdate@@QAE@QAU__crt_locale_pointers@@@Z 00466948 f i libucrt:input.obj
 0001:000659ca       ??R<lambda_644f8ab42ed3fd1d660977a2364b3a7d>@@QBE@XZ 004669ca f i libucrt:input.obj
 0001:000659ca       ??R<lambda_f1fa4c266c18b246f3ed9c36247dab4f>@@QBE@XZ 004669ca f i libucrt:input.obj
 0001:000659ca       ??R<lambda_f765c90ab33e8386abf09c0f079d37e9>@@QBE@XZ 004669ca f i libucrt:input.obj
 0001:000659f4       ?advance@?$format_string_parser@D@__crt_stdio_input@@QAE_NXZ 004669f4 f i libucrt:input.obj
 0001:00065b0c       ?as_double@floating_point_value@__crt_strtox@@QBEAANXZ 00466b0c f i libucrt:input.obj
 0001:00065b31       ?as_float@floating_point_value@__crt_strtox@@QBEAAMXZ 00466b31 f i libucrt:input.obj
 0001:00065b56       ?assemble_floating_point_infinity@__crt_strtox@@YAX_NABVfloating_point_value@1@@Z 00466b56 f i libucrt:input.obj
 0001:00065b96       ?assemble_floating_point_value@__crt_strtox@@YA?AW4SLD_STATUS@@_KH_N1ABVfloating_point_value@1@@Z 00466b96 f i libucrt:input.obj
 0001:00065f2f       ?assemble_floating_point_value_from_big_integer@__crt_strtox@@YA?AW4SLD_STATUS@@ABUbig_integer@1@I_N1ABVfloating_point_value@1@@Z 00466f2f f i libucrt:input.obj
 0001:000660cc       ?assemble_floating_point_zero@__crt_strtox@@YAX_NABVfloating_point_value@1@@Z 004670cc f i libucrt:input.obj
 0001:00066101       ?convert_decimal_string_to_floating_type_common@__crt_strtox@@YA?AW4SLD_STATUS@@ABUfloating_point_string@1@ABVfloating_point_value@1@@Z 00467101 f i libucrt:input.obj
 0001:00067e00       ?convert_hexadecimal_string_to_floating_type_common@__crt_strtox@@YA?AW4SLD_STATUS@@ABUfloating_point_string@1@ABVfloating_point_value@1@@Z 00468e00 f i libucrt:input.obj
 0001:00067eb1       ?denormal_mantissa_mask@floating_point_value@__crt_strtox@@QBE_KXZ 00468eb1 f i libucrt:input.obj
 0001:00067ed0       ?divide@__crt_strtox@@YA_KAAUbig_integer@1@ABU21@@Z 00468ed0 f i libucrt:input.obj
 0001:000683a7       ?get@?$input_adapter_character_source@V?$string_input_adapter@D@__crt_stdio_input@@@__crt_strtox@@QAEDXZ 004693a7 f i libucrt:input.obj
 0001:000683e8       ?get@?$string_input_adapter@D@__crt_stdio_input@@QAEHXZ 004693e8 f i libucrt:input.obj
 0001:000683fe       ?is_character_allowed_in_string@?$input_processor@DV?$string_input_adapter@D@__crt_stdio_input@@@__crt_stdio_input@@ABE_NW4conversion_mode@2@H@Z 004693fe f i libucrt:input.obj
 0001:0006844e       ?length@?$format_string_parser@D@__crt_stdio_input@@QBEIXZ 0046944e f i libucrt:input.obj
 0001:0006849c       ?normal_mantissa_mask@floating_point_value@__crt_strtox@@QBE_KXZ 0046949c f i libucrt:input.obj
 0001:000684b3       ?process@?$input_processor@DV?$string_input_adapter@D@__crt_stdio_input@@@__crt_stdio_input@@QAEHXZ 004694b3 f i libucrt:input.obj
 0001:00068538       ?process_character_count_specifier@?$input_processor@DV?$string_input_adapter@D@__crt_stdio_input@@@__crt_stdio_input@@AAE_NXZ 00469538 f i libucrt:input.obj
 0001:00068550       ?process_conversion_specifier@?$input_processor@DV?$string_input_adapter@D@__crt_stdio_input@@@__crt_stdio_input@@AAE_NXZ 00469550 f i libucrt:input.obj
 0001:000685c4       ?process_floating_point_specifier@?$input_processor@DV?$string_input_adapter@D@__crt_stdio_input@@@__crt_stdio_input@@AAE_NXZ 004695c4 f i libucrt:input.obj
 0001:000685f4       ?process_integer_specifier@?$input_processor@DV?$string_input_adapter@D@__crt_stdio_input@@@__crt_stdio_input@@AAE_NI_N@Z 004695f4 f i libucrt:input.obj
 0001:00068659       ?process_literal_character@?$input_processor@DV?$string_input_adapter@D@__crt_stdio_input@@@__crt_stdio_input@@AAE_NXZ 00469659 f i libucrt:input.obj
 0001:0006868f       ?process_literal_character_tchar@?$input_processor@DV?$string_input_adapter@D@__crt_stdio_input@@@__crt_stdio_input@@AAE_ND@Z 0046968f f i libucrt:input.obj
 0001:000686dd       ?process_state@?$input_processor@DV?$string_input_adapter@D@__crt_stdio_input@@@__crt_stdio_input@@AAE_NXZ 004696dd f i libucrt:input.obj
 0001:0006871f       ?process_string_specifier@?$input_processor@DV?$string_input_adapter@D@__crt_stdio_input@@@__crt_stdio_input@@AAE_NW4conversion_mode@2@@Z 0046971f f i libucrt:input.obj
 0001:00068767       ?process_whitespace@?$input_processor@DV?$string_input_adapter@D@__crt_stdio_input@@@__crt_stdio_input@@AAE_NXZ 00469767 f i libucrt:input.obj
 0001:00068784       ?restore_state@?$input_adapter_character_source@V?$string_input_adapter@D@__crt_stdio_input@@@__crt_strtox@@QAE_N_K@Z 00469784 f i libucrt:input.obj
 0001:000687a9       ?scan_conversion_specifier@?$format_string_parser@D@__crt_stdio_input@@AAE_NXZ 004697a9 f i libucrt:input.obj
 0001:00068925       ?scan_optional_field_width@?$format_string_parser@D@__crt_stdio_input@@AAE_NXZ 00469925 f i libucrt:input.obj
 0001:000689b9       ?scan_optional_length_modifier@?$format_string_parser@D@__crt_stdio_input@@AAEXXZ 004699b9 f i libucrt:input.obj
 0001:00068ace       ?scan_optional_literal_character_trail_bytes_tchar@?$format_string_parser@D@__crt_stdio_input@@AAE_ND@Z 00469ace f i libucrt:input.obj
 0001:00068b20       ?scan_optional_wide_modifier@?$format_string_parser@D@__crt_stdio_input@@AAEXXZ 00469b20 f i libucrt:input.obj
 0001:00068b3e       ?scan_scanset_range@?$format_string_parser@D@__crt_stdio_input@@AAE_NXZ 00469b3e f i libucrt:input.obj
 0001:00068c8e       ?set@?$scanset_buffer@E@__crt_stdio_input@@QAEXE@Z 00469c8e f i libucrt:input.obj
 0001:00068cb9       ?set_wide_for_c_s_or_scanset@?$format_string_parser@D@__crt_stdio_input@@AAEXXZ 00469cb9 f i libucrt:input.obj
 0001:00068cda       ?to_floating_point_length@__crt_stdio_input@@YAIW4length_modifier@1@@Z 00469cda f i libucrt:input.obj
 0001:00068cfd       ?to_integer_length@__crt_stdio_input@@YAIW4length_modifier@1@@Z 00469cfd f i libucrt:input.obj
 0001:00068d50       ?unget@?$input_adapter_character_source@V?$string_input_adapter@D@__crt_stdio_input@@@__crt_strtox@@QAEXD@Z 00469d50 f i libucrt:input.obj
 0001:00068d97       ?unget@?$string_input_adapter@D@__crt_stdio_input@@QAEXH@Z 00469d97 f i libucrt:input.obj
 0001:00068db6       ?validate@?$format_string_parser@D@__crt_stdio_input@@QBE_NXZ 00469db6 f i libucrt:input.obj
 0001:00068dd2       ?validate@?$input_adapter_character_source@V?$string_input_adapter@D@__crt_stdio_input@@@__crt_strtox@@QBE_NXZ 00469dd2 f i libucrt:input.obj
 0001:00068df3       ?validate@?$string_input_adapter@D@__crt_stdio_input@@QAE_NXZ 00469df3 f i libucrt:input.obj
 0001:00068e15       ?write_character@?$input_processor@DV?$string_input_adapter@D@__crt_stdio_input@@@__crt_stdio_input@@AAE_NQA_WIAAPA_WAAID@Z 00469e15 f i libucrt:input.obj
 0001:00068e82       ?write_integer@?$input_processor@DV?$string_input_adapter@D@__crt_stdio_input@@@__crt_stdio_input@@AAE_N_K@Z 00469e82 f i libucrt:input.obj
 0001:00068ef1       ___stdio_common_vsscanf    00469ef1 f   libucrt:input.obj
 0001:00068f96       ??$__crt_time_is_leap_year@H@@YA_NH@Z 00469f96 f i libucrt:asctime.obj
 0001:00069163       ?__crt_time_is_day_valid@@YA_NHHH@Z 0046a163 f i libucrt:asctime.obj
 0001:000691a9       _asctime                   0046a1a9 f   libucrt:asctime.obj
 0001:00069491       __localtime64              0046a491 f   libucrt:localtime.obj
 0001:000694b9       __time64                   0046a4b9 f   libucrt:time.obj
 0001:0006956f       ??$__crt_fast_decode_pointer@P6AHI@Z@@YAP6AHI@ZQ6AHI@Z@Z 0046a56f f i libucrt:new_handler.obj
 0001:0006956f       ??$__crt_fast_decode_pointer@P6AXH@Z@@YAP6AXH@ZQ6AXH@Z@Z 0046a56f f i libucrt:signal.obj
 0001:0006956f       ??$__crt_fast_decode_pointer@P6GXPAXK0@Z@@YAP6GXPAXK0@ZQ6GX0K0@Z@Z 0046a56f f i libucrt:exit.obj
 0001:0006958a       ??$__crt_fast_encode_pointer@P6AHI@Z@@YAP6AHI@ZQ6AHI@Z@Z 0046a58a f i libucrt:new_handler.obj
 0001:0006958a       ??$__crt_fast_encode_pointer@P6AHXZ@@YAP6AHXZQ6AHXZ@Z 0046a58a f i libucrt:onexit.obj
 0001:0006958a       ??$__crt_fast_encode_pointer@P6GXPAXK0@Z@@YAP6GXPAXK0@ZQ6GX0K0@Z@Z 0046a58a f i libucrt:exit.obj
 0001:0006958a       ??$__crt_fast_encode_pointer@PAP6AXXZ@@YAPAP6AXXZQAP6AXXZ@Z 0046a58a f i libucrt:onexit.obj
 0001:000697ff       ___acrt_initialize_thread_local_exit_callback 0046a7ff f   libucrt:exit.obj
 0001:0006980e       __c_exit                   0046a80e f   libucrt:exit.obj
 0001:0006981d       __cexit                    0046a81d f   libucrt:exit.obj
 0001:0006982c       __exit                     0046a82c f   libucrt:exit.obj
 0001:00069842       __register_thread_local_exe_atexit_callback 0046a842 f   libucrt:exit.obj
 0001:00069868       _exit                      0046a868 f   libucrt:exit.obj
 0001:00069880       _strcpy_s                  0046a880 f   libucrt:strcpy_s.obj
 0001:00069c15       __dupenv_s                 0046ac15 f   libucrt:getenv.obj
 0001:00069c33       __wgetenv_s                0046ac33 f   libucrt:getenv.obj
 0001:00069e76       ___acrt_stdio_flush_nolock 0046ae76 f   libucrt:fflush.obj
 0001:00069edf       __fflush_nolock            0046aedf f   libucrt:fflush.obj
 0001:00069f44       __flushall                 0046af44 f   libucrt:fflush.obj
 0001:00069f4d       _fflush                    0046af4d f   libucrt:fflush.obj
 0001:00069fce       __getdrive                 0046afce f   libucrt:drive.obj
 0001:0006a080       __ceil_no_sse41            0046b080 f   libucrt:ceil_pentium4.obj
 0001:0006a0c0       _ceil                      0046b0c0 f   libucrt:ceil_pentium4.obj
 0001:0006a0e0       __ceil_pentium4            0046b0e0 f   libucrt:ceil_pentium4.obj
 0001:0006a1bd       __fread_nolock_s           0046b1bd f   libucrt:fread.obj
 0001:0006a391       _fread                     0046b391 f   libucrt:fread.obj
 0001:0006a3ae       _fread_s                   0046b3ae f   libucrt:fread.obj
 0001:0006a44b       __tolower_l                0046b44b f   libucrt:tolower_toupper.obj
 0001:0006a549       __toupper_l                0046b549 f   libucrt:tolower_toupper.obj
 0001:0006a647       _tolower                   0046b647 f   libucrt:tolower_toupper.obj
 0001:0006a677       _toupper                   0046b677 f   libucrt:tolower_toupper.obj
 0001:0006a6a7       __wtol                     0046b6a7 f   libucrt:atox.obj
 0001:0006a6e6       _atoi                      0046b6e6 f   libucrt:atox.obj
 0001:0006a78a       ___acrt_initialize_clock   0046b78a f   libucrt:clock.obj
 0001:0006a7ef       _clock                     0046b7ef f   libucrt:clock.obj
 0001:0006a849       _rand                      0046b849 f   libucrt:rand.obj
 0001:0006a86a       _srand                     0046b86a f   libucrt:rand.obj
 0001:0006a880       __aligned_free             0046b880 f   libucrt:align.obj
 0001:0006a8a0       __aligned_malloc           0046b8a0 f   libucrt:align.obj
 0001:0006a910       __aligned_offset_malloc    0046b910 f   libucrt:align.obj
 0001:0006a9a0       __aligned_msize            0046b9a0 f   libucrt:align.obj
 0001:0006a9f0       __aligned_offset_realloc   0046b9f0 f   libucrt:align.obj
 0001:0006ac00       __aligned_offset_recalloc  0046bc00 f   libucrt:align.obj
 0001:0006aeb0       __aligned_realloc          0046beb0 f   libucrt:align.obj
 0001:0006b050       __aligned_recalloc         0046c050 f   libucrt:align.obj
 0001:0006bc84       ___acrt_initialize_locks   0046cc84 f   libucrt:locks.obj
 0001:0006bcc5       ___acrt_lock               0046ccc5 f   libucrt:locks.obj
 0001:0006bcdc       ___acrt_uninitialize_locks 0046ccdc f   libucrt:locks.obj
 0001:0006bd0d       ___acrt_unlock             0046cd0d f   libucrt:locks.obj
 0001:0006bd24       __lock_locales             0046cd24 f   libucrt:locks.obj
 0001:0006bd32       __unlock_locales           0046cd32 f   libucrt:locks.obj
 0001:0006bd3b       _abort                     0046cd3b f   libucrt:abort.obj
 0001:0006bfd4       _setlocale                 0046cfd4 f   libucrt:setlocale.obj
 0001:0006c08b       ___acrt_errno_from_os_error 0046d08b f   libucrt:errno.obj
 0001:0006c0ea       ___acrt_errno_map_os_error 0046d0ea f   libucrt:errno.obj
 0001:0006c10d       ___acrt_errno_map_os_error_ptd 0046d10d f   libucrt:errno.obj
 0001:0006c131       ___doserrno                0046d131 f   libucrt:errno.obj
 0001:0006c146       __errno                    0046d146 f   libucrt:errno.obj
 0001:0006c15b       ____lc_codepage_func       0046d15b f   libucrt:initctype.obj
 0001:0006c180       ____lc_locale_name_func    0046d180 f   libucrt:initctype.obj
 0001:0006c1a7       ____mb_cur_max_func        0046d1a7 f   libucrt:initctype.obj
 0001:0006c1cc       ___acrt_locale_initialize_ctype 0046d1cc f   libucrt:initctype.obj
 0001:0006c630       ___pctype_func             0046d630 f   libucrt:ctype.obj
 0001:0006c654       __fputc_nolock_internal    0046d654 f   libucrt:fputc.obj
 0001:0006c690       __decomp                   0046d690 f i libucrt:frexp.obj
 0001:0006c7a0       __sptype                   0046d7a0 f i libucrt:frexp.obj
 0001:0006c820       _realloc                   0046d820 f   libucrt:realloc.obj
 0001:0006c830       _strcspn                   0046d830 f   libucrt:strcspn.obj
 0001:0006c880       _isspace                   0046d880 f   libucrt:_ctype.obj
 0001:0006c904       ??$__acrt_convert_wcs_mbs_cp@D_WV<lambda_62f6974d9771e494a5ea317cc32e971c>@@U__crt_win32_buffer_internal_dynamic_resizing@@@@YAHQBDAAV?$__crt_win32_buffer@_WU__crt_win32_buffer_internal_dynamic_resizing@@@@ABV<lambda_62f6974d9771e494a5ea317cc32e971c>@@I@Z 0046d904 f i libucrt:strftime.obj
 0001:0006c9b6       ??$__acrt_convert_wcs_mbs_cp@_WDV<lambda_0fec1a7b3f42a53036604e18c2d5e07e>@@U__crt_win32_buffer_no_resizing@@@@YAHQB_WAAV?$__crt_win32_buffer@DU__crt_win32_buffer_no_resizing@@@@ABV<lambda_0fec1a7b3f42a53036604e18c2d5e07e>@@I@Z 0046d9b6 f i libucrt:strftime.obj
 0001:0006ca78       ??$__acrt_mbs_to_wcs_cp@U__crt_win32_buffer_internal_dynamic_resizing@@@@YAHQBDAAV?$__crt_win32_buffer@_WU__crt_win32_buffer_internal_dynamic_resizing@@@@I@Z 0046da78 f i libucrt:strftime.obj
 0001:0006ca95       ??R<lambda_0fec1a7b3f42a53036604e18c2d5e07e>@@QBE@IQB_WQADI@Z 0046da95 f i libucrt:strftime.obj
 0001:0006ca95       ??R<lambda_28bda7af82a03b66c1cb3803a755f95d>@@QBE@IQB_WQADI@Z 0046da95 f i libucrt:argv_wildcards.obj
 0001:0006cab9       ?_deallocate@?$__crt_win32_buffer@DU__crt_win32_buffer_internal_dynamic_resizing@@@@AAEXXZ 0046dab9 f i libucrt:argv_wildcards.obj
 0001:0006cab9       ?_deallocate@?$__crt_win32_buffer@_WU__crt_win32_buffer_internal_dynamic_resizing@@@@AAEXXZ 0046dab9 f i libucrt:strftime.obj
 0001:0006cad3       ?allocate@?$__crt_win32_buffer@DU__crt_win32_buffer_no_resizing@@@@QAEHI@Z 0046dad3 f i libucrt:strftime.obj
 0001:0006cafa       ?allocate@?$__crt_win32_buffer@_WU__crt_win32_buffer_internal_dynamic_resizing@@@@QAEHI@Z 0046dafa f i libucrt:strftime.obj
 0001:0006cb39       ?allocate@__crt_win32_buffer_internal_dynamic_resizing@@SAHQAPAXIABV__crt_win32_buffer_empty_debug_info@@@Z 0046db39 f i libucrt:strftime.obj
 0001:0006cb5a       ?set_to_nullptr@?$__crt_win32_buffer@DU__crt_win32_buffer_no_resizing@@@@QAEXXZ 0046db5a f i libucrt:strftime.obj
 0001:0006cb70       ___strncnt                 0046db70 f   libucrt:strncnt.obj
 0001:0006cb90       _strnlen                   0046db90 f   libucrt:strnlen.obj
 0001:0006ccf0       _wcsnlen                   0046dcf0 f   libucrt:strnlen.obj
 0001:0006ced0       _wcsncpy_s                 0046ded0 f   libucrt:wcsncpy_s.obj
 0001:0006cfe0       __libm_sse2_exp_precise    0046dfe0 f   libucrt:exp_sse2_precise.obj
 0001:0006d2c0       __libm_sse2_sqrt_precise   0046e2c0 f   libucrt:sqrt_sse2_precise.obj
 0001:0006d3c0       __callnewh                 0046e3c0 f   libucrt:new_handler.obj
 0001:0006d400       ___acrt_initialize_new_handler 0046e400 f   libucrt:new_handler.obj
 0001:0006d420       __query_new_handler        0046e420 f   libucrt:new_handler.obj
 0001:0006d480       __set_new_handler          0046e480 f   libucrt:new_handler.obj
 0001:0006d4f0       ?_set_new_handler@@YAP6AHI@ZH@Z 0046e4f0 f   libucrt:new_handler.obj
 0001:0006d4fd       __seh_filter_exe           0046e4fd f   libucrt:exception_filter.obj
 0001:0006d8f2       ___acrt_allocate_buffer_for_argv 0046e8f2 f   libucrt:argv_parsing.obj
 0001:0006d941       __configure_narrow_argv    0046e941 f   libucrt:argv_parsing.obj
 0001:0006ddc4       ___dcrt_get_or_create_narrow_environment_nolock 0046edc4 f   libucrt:environment_initialization.obj
 0001:0006ddc9       ___dcrt_get_or_create_wide_environment_nolock 0046edc9 f   libucrt:environment_initialization.obj
 0001:0006ddce       ___dcrt_uninitialize_environments_nolock 0046edce f   libucrt:environment_initialization.obj
 0001:0006de1f       __get_initial_narrow_environment 0046ee1f f   libucrt:environment_initialization.obj
 0001:0006de33       __initialize_narrow_environment 0046ee33 f   libucrt:environment_initialization.obj
 0001:0006e0db       __crt_atexit               0046f0db f   libucrt:onexit.obj
 0001:0006e0f1       __execute_onexit_table     0046f0f1 f   libucrt:onexit.obj
 0001:0006e12f       __initialize_onexit_table  0046f12f f   libucrt:onexit.obj
 0001:0006e158       __register_onexit_function 0046f158 f   libucrt:onexit.obj
 0001:0006e286       ___acrt_initialize         0046f286 f   libucrt:initialization.obj
 0001:0006e298       ___acrt_uninitialize       0046f298 f   libucrt:initialization.obj
 0001:0006e2d0       __except1                  0046f2d0 f   libucrt:fpexcept.obj
 0001:0006e410       __handle_exc               0046f410 f   libucrt:fpexcept.obj
 0001:0006e740       __raise_exc                0046f740 f   libucrt:fpexcept.obj
 0001:0006e770       __raise_exc_ex             0046f770 f   libucrt:fpexcept.obj
 0001:0006eaa0       __set_errno_from_matherr   0046faa0 f   libucrt:fpexcept.obj
 0001:0006eae0       __umatherr                 0046fae0 f   libucrt:fpexcept.obj
 0001:0006ebdf       __query_app_type           0046fbdf f   libucrt:report_runtime_error.obj
 0001:0006ebe5       __set_app_type             0046fbe5 f   libucrt:report_runtime_error.obj
 0001:0006ec00       ___acrt_has_user_matherr   0046fc00 f   libucrt:matherr.obj
 0001:0006ec20       ___acrt_initialize_user_matherr 0046fc20 f   libucrt:matherr.obj
 0001:0006ec30       ___acrt_invoke_user_matherr 0046fc30 f   libucrt:matherr.obj
 0001:0006ec70       ___setusermatherr          0046fc70 f   libucrt:matherr.obj
 0001:0006ec96       __initterm                 0046fc96 f   libucrt:initterm.obj
 0001:0006ecc1       __initterm_e               0046fcc1 f   libucrt:initterm.obj
 0001:0006ecef       __get_fmode                0046fcef f   libucrt:setmode.obj
 0001:0006ed1c       __set_fmode                0046fd1c f   libucrt:setmode.obj
 0001:0006ed59       __setmode_nolock           0046fd59 f   libucrt:setmode.obj
 0001:0006ee2a       ___acrt_initialize_command_line 0046fe2a f   libucrt:argv_data.obj
 0001:0006ee43       ___p___argc                0046fe43 f   libucrt:argv_data.obj
 0001:0006ee49       ___p___argv                0046fe49 f   libucrt:argv_data.obj
 0001:0006ef4f       ??0_expandlocale_locale_name_cache@@QAE@QA_WIQAU__crt_qualified_locale_data@@@Z 0046ff4f f i libucrt:wsetlocale.obj
 0001:0006ef99       ??1_expandlocale_locale_name_cache@@QAE@XZ 0046ff99 f i libucrt:wsetlocale.obj
 0001:0006f131       ?commit_locale_name@_expandlocale_locale_name_cache@@QAEXQB_WI@Z 00470131 f i libucrt:wsetlocale.obj
 0001:0006f175       ?commit_locale_name_cache_already_updated@_expandlocale_locale_name_cache@@QAEXQB_WI@Z 00470175 f i libucrt:wsetlocale.obj
 0001:0006f1aa       ___acrt_copy_locale_name   004701aa f   libucrt:wsetlocale.obj
 0001:0006f20a       ___acrt_set_locale_changed 0047020a f   libucrt:wsetlocale.obj
 0001:0006f215       ___acrt_uninitialize_locale 00470215 f   libucrt:wsetlocale.obj
 0001:0006f23c       ___lc_lctowcs              0047023c f   libucrt:wsetlocale.obj
 0001:0006f2ac       ___lc_wcstolc              004702ac f   libucrt:wsetlocale.obj
 0001:0006f3e9       __configthreadlocale       004703e9 f   libucrt:wsetlocale.obj
 0001:0006f850       __wcscats                  00470850 f   libucrt:wsetlocale.obj
 0001:0006f891       __wsetlocale               00470891 f   libucrt:wsetlocale.obj
 0001:00070580       __query_new_mode           00471580 f   libucrt:new_mode.obj
 0001:00070590       __set_new_mode             00471590 f   libucrt:new_mode.obj
 0001:000705bf       ___p__commode              004715bf f   libucrt:ncommode.obj
 0001:000705d0       __controlfp_s              004715d0 f   libucrt:contrlfp.obj
 0001:0007063c       @_guard_check_icall@4      0047163c f i libucrt:checkcfg.obj
 0001:00070650       _strncmp                   00471650 f   libucrt:strncmp.obj
 0001:000706d0       _wcsncmp                   004716d0 f   libucrt:wcsncmp.obj
 0001:00070a06       ?internal_get_ptd_head_slow@@YAPAU__acrt_ptd@@XZ 00471a06 f   libucrt:per_thread_data.obj
 0001:00070af9       ___acrt_getptd             00471af9 f   libucrt:per_thread_data.obj
 0001:00070b07       ___acrt_getptd_head        00471b07 f   libucrt:per_thread_data.obj
 0001:00070b4a       ___acrt_getptd_noexit      00471b4a f   libucrt:per_thread_data.obj
 0001:00070bd6       ___acrt_getptd_noexit_explicit 00471bd6 f   libucrt:per_thread_data.obj
 0001:00070c1f       ___acrt_initialize_ptd     00471c1f f   libucrt:per_thread_data.obj
 0001:00070c55       ___acrt_uninitialize_ptd   00471c55 f   libucrt:per_thread_data.obj
 0001:00070c70       __dtest_inline             00471c70 f i libucrt:_test.obj
 0001:00070c70       __ldtest_inline            00471c70 f i libucrt:_test.obj
 0001:00070ce0       __fdtest_inline            00471ce0 f i libucrt:_test.obj
 0001:00070d40       __calloc_base              00471d40 f   libucrt:calloc_base.obj
 0001:00070da0       __free_base                00471da0 f   libucrt:free_base.obj
 0001:00070df0       __malloc_base              00471df0 f   libucrt:malloc_base.obj
 0001:000711de       ___acrt_AppPolicyGetProcessTerminationMethodInternal@4 004721de f   libucrt:winapi_thunks.obj
 0001:0007122d       ___acrt_AppPolicyGetThreadInitializationTypeInternal@4 0047222d f   libucrt:winapi_thunks.obj
 0001:0007127c       ___acrt_AreFileApisANSI@0  0047227c f   libucrt:winapi_thunks.obj
 0001:0007129b       ___acrt_CompareStringEx@36 0047229b f   libucrt:winapi_thunks.obj
 0001:000712f8       ___acrt_EnumSystemLocalesEx@16 004722f8 f   libucrt:winapi_thunks.obj
 0001:0007134c       ___acrt_FlsAlloc@4         0047234c f   libucrt:winapi_thunks.obj
 0001:00071358       ___acrt_FlsFree@4          00472358 f   libucrt:winapi_thunks.obj
 0001:00071364       ___acrt_FlsGetValue2@4     00472364 f   libucrt:winapi_thunks.obj
 0001:00071371       ___acrt_FlsGetValue@4      00472371 f   libucrt:winapi_thunks.obj
 0001:0007137d       ___acrt_FlsSetValue@8      0047237d f   libucrt:winapi_thunks.obj
 0001:00071389       ___acrt_GetLocaleInfoEx@16 00472389 f   libucrt:winapi_thunks.obj
 0001:000713c8       ___acrt_GetUserDefaultLocaleName@8 004723c8 f   libucrt:winapi_thunks.obj
 0001:00071404       ___acrt_InitializeCriticalSectionEx@12 00472404 f   libucrt:winapi_thunks.obj
 0001:00071410       ___acrt_IsValidLocaleName@4 00472410 f   libucrt:winapi_thunks.obj
 0001:00071448       ___acrt_LCIDToLocaleName@16 00472448 f   libucrt:winapi_thunks.obj
 0001:00071487       ___acrt_LCMapStringEx@36   00472487 f   libucrt:winapi_thunks.obj
 0001:000714e4       ___acrt_LocaleNameToLCID@8 004724e4 f   libucrt:winapi_thunks.obj
 0001:00071515       ___acrt_RoInitialize@4     00472515 f   libucrt:winapi_thunks.obj
 0001:0007155f       ___acrt_RoUninitialize@0   0047255f f   libucrt:winapi_thunks.obj
 0001:0007159c       ___acrt_can_use_vista_locale_apis 0047259c f   libucrt:winapi_thunks.obj
 0001:000715a7       ___acrt_eagerly_load_locale_apis 004725a7 f   libucrt:winapi_thunks.obj
 0001:000715de       ___acrt_initialize_winapi_thunks 004725de f   libucrt:winapi_thunks.obj
 0001:00071601       ___acrt_tls2_supported     00472601 f   libucrt:winapi_thunks.obj
 0001:00071632       ___acrt_uninitialize_winapi_thunks 00472632 f   libucrt:winapi_thunks.obj
 0001:00071668       __fcloseall                00472668 f   libucrt:closeall.obj
 0001:00071713       ___acrt_stdio_free_buffer_nolock 00472713 f   libucrt:_freebuf.obj
 0001:000718b3       ___acrt_initialize_lowio   004728b3 f   libucrt:ioinit.obj
 0001:00071913       ___acrt_uninitialize_lowio 00472913 f   libucrt:ioinit.obj
 0001:0007193f       ?__acrt_stdio_allocate_stream@@YA?AV__crt_stdio_stream@@XZ 0047293f f   libucrt:stream.obj
 0001:000719a8       ?__acrt_stdio_free_stream@@YAXV__crt_stdio_stream@@@Z 004729a8 f   libucrt:stream.obj
 0001:00071aa5       ??$__acrt_stdio_parse_mode@D@@YA?AU__acrt_stdio_stream_mode@@QBD@Z 00472aa5 f i libucrt:openfile.obj
 0001:00071d69       ?__acrt_stdio_parse_mode_D@@YA_NAAU__acrt_stdio_stream_mode@@@Z 00472d69 f i libucrt:openfile.obj
 0001:00071d84       ?__acrt_stdio_parse_mode_T@@YA_NAAU__acrt_stdio_stream_mode@@@Z 00472d84 f i libucrt:openfile.obj
 0001:00071da3       ?__acrt_stdio_parse_mode_b@@YA_NAAU__acrt_stdio_stream_mode@@@Z 00472da3 f i libucrt:openfile.obj
 0001:00071dc3       ?__acrt_stdio_parse_mode_c@@YA_NAAU__acrt_stdio_stream_mode@@AA_N@Z 00472dc3 f i libucrt:openfile.obj
 0001:00071de5       ?__acrt_stdio_parse_mode_n@@YA_NAAU__acrt_stdio_stream_mode@@AA_N@Z 00472de5 f i libucrt:openfile.obj
 0001:00071e07       ?__acrt_stdio_parse_mode_plus@@YA_NAAU__acrt_stdio_stream_mode@@AA_N@Z 00472e07 f i libucrt:openfile.obj
 0001:00071e3d       ?__acrt_stdio_parse_mode_t@@YA_NAAU__acrt_stdio_stream_mode@@@Z 00472e3d f i libucrt:openfile.obj
 0001:00071e5d       ?__acrt_stdio_parse_mode_x@@YA_NAAU__acrt_stdio_stream_mode@@@Z 00472e5d f i libucrt:openfile.obj
 0001:00071e7d       __openfile                 00472e7d f   libucrt:openfile.obj
 0001:00071e88       __fileno                   00472e88 f   libucrt:fileno.obj
 0001:00071f40       __close_internal           00472f40 f   libucrt:close.obj
 0001:00071fe3       __close_nolock             00472fe3 f   libucrt:close.obj
 0001:00072013       __close_nolock_internal    00473013 f   libucrt:close.obj
 0001:0007225b       __lseeki64                 0047325b f   libucrt:lseek.obj
 0001:0007229b       __lseeki64_internal        0047329b f   libucrt:lseek.obj
 0001:000722b9       __lseeki64_nolock          004732b9 f   libucrt:lseek.obj
 0001:000722f9       __lseeki64_nolock_internal 004732f9 f   libucrt:lseek.obj
 0001:000727fe       __read                     004737fe f   libucrt:read.obj
 0001:00072917       __read_nolock              00473917 f   libucrt:read.obj
 0001:00073449       __write                    00474449 f   libucrt:write.obj
 0001:00073480       __write_internal           00474480 f   libucrt:write.obj
 0001:00073591       __write_nolock             00474591 f   libucrt:write.obj
 0001:00073a04       ___acrt_stdio_flush_and_write_narrow_nolock 00474a04 f   libucrt:_flsbuf.obj
 0001:00073a0f       ___acrt_should_use_temporary_buffer 00474a0f f   libucrt:_sftbuf.obj
 0001:00073a4d       ___acrt_stdio_begin_temporary_buffering_nolock 00474a4d f   libucrt:_sftbuf.obj
 0001:00073af8       ___acrt_stdio_end_temporary_buffering_nolock 00474af8 f   libucrt:_sftbuf.obj
 0001:00073b36       ___acrt_update_locale_info 00474b36 f   libucrt:locale_update.obj
 0001:00073b63       ___acrt_update_locale_info_explicit 00474b63 f   libucrt:locale_update.obj
 0001:00073b94       ___acrt_update_multibyte_info 00474b94 f   libucrt:locale_update.obj
 0001:00073bc1       ___acrt_update_multibyte_info_explicit 00474bc1 f   libucrt:locale_update.obj
 0001:00073bf2       ?__acrt_fp_classify@@YA?AW4__acrt_fp_class@@ABN@Z 00474bf2 f i libucrt:cvt.obj
 0001:000745a1       ___acrt_fp_format          004755a1 f   libucrt:cvt.obj
 0001:00074721       __wctomb_internal          00475721 f   libucrt:wctomb.obj
 0001:00074885       __mbtowc_internal          00475885 f   libucrt:mbtowc.obj
 0001:000749b5       __mbtowc_l                 004759b5 f   libucrt:mbtowc.obj
 0001:000749ed       ?__mblen_utf8@__crt_mbstring@@YAHPBD@Z 004759ed f   libucrt:mbrtoc32.obj
 0001:00074a2e       ?__mbrtoc32_utf8@__crt_mbstring@@YAIPA_UPBDIPAU_Mbstatet@@AAV__crt_cached_ptd_host@@@Z 00475a2e f   libucrt:mbrtoc32.obj
 0001:00074be7       ?__c16rtomb_utf8@__crt_mbstring@@YAIPAD_SPAU_Mbstatet@@AAV__crt_cached_ptd_host@@@Z 00475be7 f   libucrt:c16rtomb.obj
 0001:00074cbe       ?__mbrtowc_utf8@__crt_mbstring@@YAIPA_WPBDIPAU_Mbstatet@@AAV__crt_cached_ptd_host@@@Z 00475cbe f   libucrt:mbrtowc.obj
 0001:00074d01       ?__mbsrtowcs_utf8@__crt_mbstring@@YAIPA_WPAPBDIPAU_Mbstatet@@AAV__crt_cached_ptd_host@@@Z 00475d01 f   libucrt:mbrtowc.obj
 0001:00074e14       __get_printf_count_output  00475e14 f   libucrt:printf_count_output.obj
 0001:00074e29       ___acrt_get_begin_thread_init_policy 00475e29 f   libucrt:win_policies.obj
 0001:00074e63       ___acrt_get_process_end_policy 00475e63 f   libucrt:win_policies.obj
 0001:00074e8a       _iswctype                  00475e8a f   libucrt:iswctype.obj
 0001:00074ef3       __isctype_l                00475ef3 f   libucrt:isctype.obj
 0001:00074fc0       _fegetround                00475fc0 f   libucrt:fegetround.obj
 0001:00074fd0       ___acrt_initialize_timeset 00475fd0 f   libucrt:timeset.obj
 0001:00075005       ___daylight                00476005 f   libucrt:timeset.obj
 0001:0007500b       ___dstbias                 0047600b f   libucrt:timeset.obj
 0001:00075011       ___timezone                00476011 f   libucrt:timeset.obj
 0001:00075017       ___tzname                  00476017 f   libucrt:timeset.obj
 0001:0007501d       ___wide_tzname             0047601d f   libucrt:timeset.obj
 0001:00075023       __get_daylight             00476023 f   libucrt:timeset.obj
 0001:0007504f       __get_dstbias              0047604f f   libucrt:timeset.obj
 0001:0007507b       __get_timezone             0047607b f   libucrt:timeset.obj
 0001:000750a7       ??$__crt_time_elapsed_leap_years@H@@YAHH@Z 004760a7 f i libucrt:gmtime.obj
 0001:000752e5       ___getgmtimebuf            004762e5 f   libucrt:gmtime.obj
 0001:00075323       __gmtime64_s               00476323 f   libucrt:gmtime.obj
 0001:0007532e       ?__acrt_get_utf8_acp_compatibility_codepage@@YAIXZ 0047632e f i libucrt:tzset.obj
 0001:00075c36       ___tzset                   00476c36 f   libucrt:tzset.obj
 0001:00075c93       __isindst                  00476c93 f   libucrt:tzset.obj
 0001:00075ce7       ___acrt_app_verifier_enabled 00476ce7 f   libucrt:peb_access.obj
 0001:00075cf9       ___acrt_is_secure_process  00476cf9 f   libucrt:peb_access.obj
 0001:00075d10       _wcscpy_s                  00476d10 f   libucrt:wcscpy_s.obj
 0001:00075db0       __wcsnicoll                00476db0 f   libucrt:wcsnicol.obj
 0001:00075f40       __strnicoll                00476f40 f   libucrt:strnicol.obj
 0001:0007614e       __commit                   0047714e f   libucrt:commit.obj
 0001:000761d0       ___libm_error_support      004771d0 f   libucrt:libm_error.obj
 0001:00076470       ___acrt_initialize_sse2    00477470 f   libucrt:mathfcns.obj
 0001:00076480       __ceil_default             00477480 f   libucrt:ceil.obj
 0001:000766fe       ___acrt_stdio_refill_and_read_narrow_nolock 004776fe f   libucrt:_filbuf.obj
 0001:000768f6       ___acrt_LCMapStringA       004778f6 f   libucrt:lcmapstringa.obj
 0001:00076940       __expand                   00477940 f   libucrt:expand.obj
 0001:00076950       __expand_base              00477950 f   libucrt:expand.obj
 0001:00076a30       __msize_base               00477a30 f   libucrt:msize.obj
 0001:00076a70       __msize                    00477a70 f   libucrt:msize.obj
 0001:00076b4d       ___acrt_get_sigabrt_handler 00477b4d f   libucrt:signal.obj
 0001:00076b74       ___acrt_initialize_signal_handlers 00477b74 f   libucrt:signal.obj
 0001:00076b92       _raise                     00477b92 f   libucrt:signal.obj
 0001:0007702a       _mbstowcs_s                0047802a f   libucrt:mbstowcs.obj
 0001:000773de       __wcstombs_s_l             004783de f   libucrt:wcstombs.obj
 0001:000774fc       ___acrt_GetLocaleInfoA     004784fc f   libucrt:getlocaleinfoa.obj
 0001:000776ac       ___acrt_GetStringTypeA     004786ac f   libucrt:getstringtypea.obj
 0001:000777b0       ___set_fpsr_sse2           004787b0 f   libucrt:fpctrl.obj
 0001:00077890       __clrfp                    00478890 f   libucrt:fpctrl.obj
 0001:000778b0       __ctrlfp                   004788b0 f   libucrt:fpctrl.obj
 0001:000778e0       __set_statfp               004788e0 f   libucrt:fpctrl.obj
 0001:00077940       __statfp                   00478940 f   libucrt:fpctrl.obj
 0001:00077960       __realloc_base             00478960 f   libucrt:realloc_base.obj
 0001:00077a61       ___acrt_MultiByteToWideChar 00478a61 f   libucrt:multibytetowidechar.obj
 0001:00077b1b       ___acrt_WideCharToMultiByte 00478b1b f   libucrt:widechartomultibyte.obj
 0001:00077bc0       ___ascii_wcsicmp           00478bc0 f   libucrt:wcsicmp.obj
 0001:00077c10       __wcsicmp                  00478c10 f   libucrt:wcsicmp.obj
 0001:00077c60       __wcsicmp_l                00478c60 f   libucrt:wcsicmp.obj
 0001:00077e10       __CIexp                    00478e10 f   libucrt:87ctran.obj
 0001:00077e4b       __exp_default              00478e4b f   libucrt:87ctran.obj
 0001:00077e55       __CIexp_default            00478e55 f   libucrt:87ctran.obj
 0001:00077e60       _sqrt                      00478e60 f   libucrt:sqrt.obj
 0001:00077e86       ??$__acrt_convert_wcs_mbs_cp@_WDV<lambda_28bda7af82a03b66c1cb3803a755f95d>@@U__crt_win32_buffer_internal_dynamic_resizing@@@@YAHQB_WAAV?$__crt_win32_buffer@DU__crt_win32_buffer_internal_dynamic_resizing@@@@ABV<lambda_28bda7af82a03b66c1cb3803a755f95d>@@I@Z 00478e86 f i libucrt:argv_wildcards.obj
 0001:0007842b       ?allocate@?$__crt_win32_buffer@DU__crt_win32_buffer_internal_dynamic_resizing@@@@QAEHI@Z 0047942b f i libucrt:argv_wildcards.obj
 0001:000784ee       ___acrt_expand_narrow_argv_wildcards 004794ee f   libucrt:argv_wildcards.obj
 0001:000784f9       ___acrt_GetModuleFileNameA 004794f9 f   libucrt:getmodulefilenamea.obj
 0001:00078b16       ___acrt_initialize_multibyte 00479b16 f   libucrt:mbctype.obj
 0001:00078b5e       ___acrt_update_thread_multibyte_data 00479b5e f   libucrt:mbctype.obj
 0001:00078b71       __setmbcp_nolock           00479b71 f   libucrt:mbctype.obj
 0001:00078dc6       __ismbblead                00479dc6 f   libucrt:ismbbyte.obj
 0001:00078e15       ___dcrt_get_narrow_environment_from_os 00479e15 f   libucrt:get_environment_from_os.obj
 0001:00078eb5       ___dcrt_get_wide_environment_from_os 00479eb5 f   libucrt:get_environment_from_os.obj
 0001:0007963a       ___dcrt_set_variable_in_narrow_environment_nolock 0047a63a f   libucrt:setenv.obj
 0001:00079645       ___dcrt_set_variable_in_wide_environment_nolock 0047a645 f   libucrt:setenv.obj
 0001:00079650       __recalloc_base            0047a650 f   libucrt:recalloc.obj
 0001:000796d0       __recalloc                 0047a6d0 f   libucrt:recalloc.obj
 0001:000796e0       __get_heap_handle          0047a6e0 f   libucrt:heap_handle.obj
 0001:000796f0       ___acrt_initialize_heap    0047a6f0 f   libucrt:heap_handle.obj
 0001:00079710       ___acrt_uninitialize_heap  0047a710 f   libucrt:heap_handle.obj
 0001:00079720       ___acrt_getheap            0047a720 f   libucrt:heap_handle.obj
 0001:00079726       ___acrt_execute_initializers 0047a726 f   libucrt:shared_initialization.obj
 0001:0007978e       ___acrt_execute_uninitializers 0047a78e f   libucrt:shared_initialization.obj
 0001:000797c0       ___acrt_fenv_get_common_round_control 0047a7c0 f   libucrt:_fenvutils.obj
 0001:000797f0       ___acrt_fenv_get_control   0047a7f0 f   libucrt:_fenvutils.obj
 0001:000799d0       ___acrt_fenv_get_status    0047a9d0 f   libucrt:_fenvutils.obj
 0001:00079a80       ___acrt_fenv_set_control   0047aa80 f   libucrt:_fenvutils.obj
 0001:00079cd0       ___acrt_fenv_set_status    0047acd0 f   libucrt:_fenvutils.obj
 0001:00079de0       _wcscat_s                  0047ade0 f   libucrt:wcscat_s.obj
 0001:00079e81       ___acrt_lowio_create_handle_array 0047ae81 f   libucrt:osfinfo.obj
 0001:00079efc       ___acrt_lowio_destroy_handle_array 0047aefc f   libucrt:osfinfo.obj
 0001:00079f31       ___acrt_lowio_ensure_fh_exists 0047af31 f   libucrt:osfinfo.obj
 0001:00079fcf       ___acrt_lowio_lock_fh      0047afcf f   libucrt:osfinfo.obj
 0001:00079ff2       ___acrt_lowio_set_os_handle 0047aff2 f   libucrt:osfinfo.obj
 0001:0007a084       ___acrt_lowio_unlock_fh    0047b084 f   libucrt:osfinfo.obj
 0001:0007a0a7       __alloc_osfhnd             0047b0a7 f   libucrt:osfinfo.obj
 0001:0007a1ba       __free_osfhnd              0047b1ba f   libucrt:osfinfo.obj
 0001:0007a24b       __get_osfhandle            0047b24b f   libucrt:osfinfo.obj
 0001:0007a2b5       ___acrt_initialize_fmode   0047b2b5 f   libucrt:txtmode.obj
 0001:0007a2cb       ___acrt_locale_free_monetary 0047b2cb f   libucrt:initmon.obj
 0001:0007a3c9       ___acrt_locale_initialize_monetary 0047b3c9 f   libucrt:initmon.obj
 0001:0007a72a       ___acrt_locale_free_numeric 0047b72a f   libucrt:initnum.obj
 0001:0007a793       ___acrt_locale_initialize_numeric 0047b793 f   libucrt:initnum.obj
 0001:0007ac51       ___acrt_locale_free_time   0047bc51 f   libucrt:inittime.obj
 0001:0007ad35       ___acrt_locale_initialize_time 0047bd35 f   libucrt:inittime.obj
 0001:0007adb0       _wcsncat_s                 0047bdb0 f   libucrt:wcsncat_s.obj
 0001:0007aee0       _wcscspn                   0047bee0 f   libucrt:wcscspn.obj
 0001:0007af30       _wcspbrk                   0047bf30 f   libucrt:wcspbrk.obj
 0001:0007af6f       ___acrt_add_locale_ref     0047bf6f f   libucrt:locale_refcounting.obj
 0001:0007afec       ___acrt_free_locale        0047bfec f   libucrt:locale_refcounting.obj
 0001:0007b134       ___acrt_locale_add_lc_time_reference 0047c134 f   libucrt:locale_refcounting.obj
 0001:0007b15d       ___acrt_locale_free_lc_time_if_unreferenced 0047c15d f   libucrt:locale_refcounting.obj
 0001:0007b18e       ___acrt_locale_release_lc_time_reference 0047c18e f   libucrt:locale_refcounting.obj
 0001:0007b1b7       ___acrt_release_locale_ref 0047c1b7 f   libucrt:locale_refcounting.obj
 0001:0007b238       ___acrt_update_thread_locale_data 0047c238 f   libucrt:locale_refcounting.obj
 0001:0007b2b9       __updatetlocinfoEx_nolock  0047c2b9 f   libucrt:locale_refcounting.obj
 0001:0007b9fa       ___acrt_get_qualified_locale 0047c9fa f   libucrt:get_qualified_locale.obj
 0001:0007c378       ___acrt_get_qualified_locale_downlevel 0047d378 f   libucrt:getqloc_downlevel.obj
 0001:0007c640       __clearfp                  0047d640 f   libucrt:ieee87.obj
 0001:0007c760       __control87                0047d760 f   libucrt:ieee87.obj
 0001:0007cc79       ___acrt_DownlevelLCIDToLocaleName 0047dc79 f   libucrt:lcidtoname_downlevel.obj
 0001:0007ccf7       ___acrt_DownlevelLocaleNameToLCID 0047dcf7 f   libucrt:lcidtoname_downlevel.obj
 0001:0007cd30       ___ascii_wcsnicmp          0047dd30 f   libucrt:wcsnicmp.obj
 0001:0007cda0       __wcsnicmp                 0047dda0 f   libucrt:wcsnicmp.obj
 0001:0007cdf0       __wcsnicmp_l               0047ddf0 f   libucrt:wcsnicmp.obj
 0001:0007cff0       __strnicmp                 0047dff0 f   libucrt:strnicmp.obj
 0001:0007d050       __strnicmp_l               0047e050 f   libucrt:strnicmp.obj
 0001:0007d790       __sopen_nolock             0047e790 f   libucrt:open.obj
 0001:0007d7fe       __sopen_s                  0047e7fe f   libucrt:open.obj
 0001:0007d81e       __wsopen_nolock            0047e81e f   libucrt:open.obj
 0001:0007db49       __isatty                   0047eb49 f   libucrt:isatty.obj
 0001:0007db9f       __putwch_nolock            0047eb9f f   libucrt:putwch.obj
 0001:0007dbd1       ___acrt_stdio_allocate_buffer_nolock 0047ebd1 f   libucrt:_getbuf.obj
 0001:0007dcde       ___acrt_fp_strflt_to_string 0047ecde f   libucrt:_fptostr.obj
 0001:0007ddd7       ___acrt_fltout             0047edd7 f   libucrt:cfout.obj
 0001:0007f2a5       ?__c32rtomb_utf8@__crt_mbstring@@YAIPAD_UPAU_Mbstatet@@AAV__crt_cached_ptd_host@@@Z 004802a5 f   libucrt:c32rtomb.obj
 0001:0007f353       ?reset_and_return@__crt_mbstring@@YAIIPAU_Mbstatet@@@Z 00480353 f   libucrt:common_utf8.obj
 0001:0007f367       ?return_illegal_sequence@__crt_mbstring@@YAIPAU_Mbstatet@@AAV__crt_cached_ptd_host@@@Z 00480367 f   libucrt:common_utf8.obj
 0001:0007f389       ___acrt_GetStringTypeW     00480389 f   libucrt:getstringtypew.obj
 0001:0007f3a2       ___acrt_CompareStringW     004803a2 f   libucrt:comparestringw.obj
 0001:0007f6a7       ___acrt_CompareStringA     004806a7 f   libucrt:comparestringa.obj
 0001:0007f6f0       __frnd                     004806f0 f   libucrt:frnd.obj
 0001:0007f707       ?__wcsrtombs_utf8@__crt_mbstring@@YAIPADPAPB_WIPAU_Mbstatet@@AAV__crt_cached_ptd_host@@@Z 00480707 f   libucrt:wcrtomb.obj
 0001:0007f810       _strncpy_s                 00480810 f   libucrt:strncpy_s.obj
 0001:0007f902       __towlower_l               00480902 f   libucrt:towlower.obj
 0001:0007f9e0       __CIexp_pentium4           004809e0 f   libucrt:exp_pentium4.obj
 0001:0007f9f8       __exp_pentium4             004809f8     libucrt:exp_pentium4.obj
 0001:0007fcc0       __fFEXP                    00480cc0 f   libucrt:87tran.obj
 0001:0007fd17       __rtinfpopse               00480d17     libucrt:87tran.obj
 0001:0007fd19       __rtinfnpopse              00480d19     libucrt:87tran.obj
 0001:0007fd29       __fFLN                     00480d29     libucrt:87tran.obj
 0001:0007fdde       __rtinfpop                 00480dde     libucrt:87tran.obj
 0001:0007fde0       __rtinfnpop                00480de0     libucrt:87tran.obj
 0001:0007fdf0       __rtforexpinf              00480df0 f   libucrt:87tran.obj
 0001:0007fdfd       __ffexpm1                  00480dfd     libucrt:87tran.obj
 0001:0007feb0       __cintrindisp2             00480eb0 f   libucrt:87cdisp.obj
 0001:0007ff00       __cintrindisp1             00480f00 f   libucrt:87cdisp.obj
 0001:0007ff49       __ctrandisp2               00480f49 f   libucrt:87cdisp.obj
 0001:000800d8       __ctrandisp1               004810d8 f   libucrt:87cdisp.obj
 0001:0008010b       __fload                    0048110b f   libucrt:87cdisp.obj
 0001:00080150       __twoToTOS                 00481150 f   libucrt:common.obj
 0001:00080165       __load_CW                  00481165 f   libucrt:common.obj
 0001:0008017c       __convertTOStoQNaN         0048117c f   libucrt:common.obj
 0001:00080195       __fload_withFB             00481195 f   libucrt:common.obj
 0001:000801d8       __checkTOS_withFB          004811d8 f   libucrt:common.obj
 0001:000801ee       __fast_exit                004811ee f   libucrt:common.obj
 0001:000801fb       __math_exit                004811fb f   libucrt:common.obj
 0001:00080225       __check_overflow_exit      00481225 f   libucrt:common.obj
 0001:00080239       __check_range_exit         00481239 f   libucrt:common.obj
 0001:000802e0       __CIsqrt                   004812e0 f   libucrt:sqrt_impl.obj
 0001:000802f4       __sqrt_common              004812f4     libucrt:sqrt_impl.obj
 0001:000803a0       _qsort                     004813a0 f   libucrt:qsort.obj
 0001:000807e0       _strpbrk                   004817e0 f   libucrt:strpbrk.obj
 0001:00080820       __mbsdec                   00481820 f   libucrt:mbsdec.obj
 0001:00080837       __mbsdec_l                 00481837 f   libucrt:mbsdec.obj
 0001:000808d0       ___acrt_SetEnvironmentVariableA 004818d0 f   libucrt:setenvironmentvariablea.obj
 0001:00080a89       __itow_s                   00481a89 f   libucrt:xtoa.obj
 0001:00080ac0       ___ascii_strnicmp          00481ac0 f   libucrt:_strnicm.obj
 0001:00080b21       ??0__crt_seek_guard@@QAE@H_J@Z 00481b21 f i libucrt:chsize.obj
 0001:00080b6e       __chsize_nolock            00481b6e f   libucrt:chsize.obj
 0001:00080ba5       __chsize_nolock_internal   00481ba5 f   libucrt:chsize.obj
 0001:00080d5b       ___dcrt_lowio_ensure_console_output_initialized 00481d5b f   libucrt:initcon.obj
 0001:00080d7a       ___dcrt_terminate_console_output 00481d7a f   libucrt:initcon.obj
 0001:00080d91       ___dcrt_write_console      00481d91 f   libucrt:initcon.obj
 0001:00080df0       _fegetenv                  00481df0 f   libucrt:fegetenv.obj
 0001:00080e10       _fesetenv                  00481e10 f   libucrt:fesetenv.obj
 0001:00080e70       _feholdexcept              00481e70 f   libucrt:feholdexcept.obj
 0001:00080ed0       __libm_sse2_log10_precise  00481ed0 f   libucrt:log10_sse2_precise.obj
 0001:00081180       ___acrt_LCMapStringW       00482180 f   libucrt:lcmapstringw.obj
 0001:000811c0       __trandisp1                004821c0 f   libucrt:87disp.obj
 0001:00081235       __trandisp2                00482235 f   libucrt:87disp.obj
 0001:000812cf       __rttospopde               004822cf     libucrt:87disp.obj
 0001:000812d4       __rttospop                 004822d4     libucrt:87disp.obj
 0001:000812e0       __rtnospop                 004822e0 f   libucrt:87disp.obj
 0001:000812f0       __rttosnpop                004822f0 f   libucrt:87disp.obj
 0001:000812f1       __rtnospopde               004822f1     libucrt:87disp.obj
 0001:000812f8       __rtzeropop                004822f8     libucrt:87disp.obj
 0001:000812fa       __rtzeronpop               004822fa     libucrt:87disp.obj
 0001:00081300       __rtzerospop               00482300 f   libucrt:87disp.obj
 0001:0008130d       __rtonepop                 0048230d     libucrt:87disp.obj
 0001:00081310       __rtonenpop                00482310 f   libucrt:87disp.obj
 0001:00081320       __tosnan1                  00482320 f   libucrt:87disp.obj
 0001:00081350       __nosnan2                  00482350 f   libucrt:87disp.obj
 0001:00081360       __tosnan2                  00482360 f   libucrt:87disp.obj
 0001:00081390       __nan2                     00482390 f   libucrt:87disp.obj
 0001:000813d0       __rtindfpop                004823d0 f   libucrt:87disp.obj
 0001:000813d2       __rtindfnpop               004823d2     libucrt:87disp.obj
 0001:000813e3       __rttosnpopde              004823e3     libucrt:87disp.obj
 0001:000813f0       __rtatan2inf               004823f0 f   libucrt:87disp.obj
 0001:0008140d       __rtchsifneg               0048240d     libucrt:87disp.obj
 0001:00081420       __powhlp                   00482420 f   libucrt:powhlp.obj
 0001:00081620       __87except                 00482620 f   libucrt:87except.obj
 0001:00081760       __startTwoArgErrorHandling 00482760 f   libucrt:genexcep.obj
 0001:00081777       __startOneArgErrorHandling 00482777 f   libucrt:genexcep.obj
 0001:000817c0       __CIlog10                  004827c0 f   libucrt:log10_impl.obj
 0001:000817fb       __CIlog10_default          004827fb f   libucrt:log10_impl.obj
 0001:0008180f       __log10_default            0048280f     libucrt:log10_impl.obj
 0001:000818d0       __fpclass                  004828d0 f   libucrt:ieeemisc.obj
 0001:000819a0       __CIlog10_pentium4         004829a0 f   libucrt:log10_pentium4.obj
 0001:000819b8       __log10_pentium4           004829b8     libucrt:log10_pentium4.obj
 0001:00081c30       ??$_Copy_construct_from@$$CBU_EXCEPTION_RECORD@@@?$_Ptr_base@$$CBU_EXCEPTION_RECORD@@@std@@IAEXABV?$shared_ptr@$$CBU_EXCEPTION_RECORD@@@1@@Z 00482c30 f i libcpmt:excptptr.obj
 0001:00081c4f       ??0?$shared_ptr@$$CBU_EXCEPTION_RECORD@@@std@@QAE@ABV01@@Z 00482c4f f i libcpmt:excptptr.obj
 0001:00081d24       ??1?$shared_ptr@$$CBU_EXCEPTION_RECORD@@@std@@QAE@XZ 00482d24 f i libcpmt:excptptr.obj
 0001:00081d30       ??4?$shared_ptr@$$CBU_EXCEPTION_RECORD@@@std@@QAEAAV01@$$QAV01@@Z 00482d30 f i libcpmt:excptptr.obj
 0001:00081e03       ??_G?$shared_ptr@$$CBU_EXCEPTION_RECORD@@@std@@QAEPAXI@Z 00482e03 f i libcpmt:excptptr.obj
 0001:0008211d       ?_Decref@_Ref_count_base@std@@QAEXXZ 0048311d f i libcpmt:excptptr.obj
 0001:00082146       ?_Decwref@_Ref_count_base@std@@QAEXXZ 00483146 f i libcpmt:excptptr.obj
 0001:00082309       ?_Get_deleter@_Ref_count_base@std@@UBEPAXABVtype_info@@@Z 00483309 f i libcpmt:excptptr.obj
 0001:0008236c       ?__ExceptionPtrCopy@@YAXPAXPBX@Z 0048336c f   libcpmt:excptptr.obj
 0001:0008237c       ?__ExceptionPtrCreate@@YAXPAX@Z 0048337c f   libcpmt:excptptr.obj
 0001:00082391       ?__ExceptionPtrCurrentException@@YAXPAX@Z 00483391 f   libcpmt:excptptr.obj
 0001:00082473       ?__ExceptionPtrDestroy@@YAXPAX@Z 00483473 f   libcpmt:excptptr.obj
 0001:00082482       ?__ExceptionPtrRethrow@@YAXPBX@Z 00483482 f   libcpmt:excptptr.obj
 0001:00082550       __FindPESection            00483550 f   LIBCMT:pesect.obj
 0001:000825a0       __IsNonwritableInCurrentImage 004835a0 f   LIBCMT:pesect.obj
 0001:00082660       __ValidateImageBase        00483660 f   LIBCMT:pesect.obj
 0001:000826a0       __allrem                   004836a0 f   LIBCMT:llrem.obj
 0001:00082760       __alldvrm                  00483760 f   LIBCMT:lldvrm.obj
 0001:00082840       _strrchr                   00483840 f   libvcruntime:strrchr.obj
 0001:00082977       _wcschr                    00483977 f   libvcruntime:wcschr.obj
 0001:00082a11       __filter_x86_sse2_floating_point_exception 00483a11 f   LIBCMT:x86_exception_filter.obj
 0001:00082a11       __filter_x86_sse2_floating_point_exception_default 00483a11 f   LIBCMT:x86_exception_filter.obj
 0002:00000000       __imp__InitCommonControlsEx@4 00485000     comctl32:COMCTL32.dll
 0002:00000004       \177COMCTL32_NULL_THUNK_DATA 00485004     comctl32:COMCTL32.dll
 0002:00000008       __imp__SetEndOfFile@4      00485008     kernel32:KERNEL32.dll
 0002:0000000c       __imp__SetStdHandle@8      0048500c     kernel32:KERNEL32.dll
 0002:00000010       __imp__GetProcessHeap@0    00485010     kernel32:KERNEL32.dll
 0002:00000014       __imp__GetTempPathA@8      00485014     kernel32:KERNEL32.dll
 0002:00000018       __imp__GetTempFileNameA@16 00485018     kernel32:KERNEL32.dll
 0002:0000001c       __imp__ContinueDebugEvent@12 0048501c     kernel32:KERNEL32.dll
 0002:00000020       __imp__WaitForDebugEvent@8 00485020     kernel32:KERNEL32.dll
 0002:00000024       __imp__DebugActiveProcess@4 00485024     kernel32:KERNEL32.dll
 0002:00000028       __imp__CloseHandle@4       00485028     kernel32:KERNEL32.dll
 0002:0000002c       __imp__Sleep@4             0048502c     kernel32:KERNEL32.dll
 0002:00000030       __imp__ResumeThread@4      00485030     kernel32:KERNEL32.dll
 0002:00000034       __imp__CreateProcessA@40   00485034     kernel32:KERNEL32.dll
 0002:00000038       __imp__ReadProcessMemory@20 00485038     kernel32:KERNEL32.dll
 0002:0000003c       __imp__GetCommandLineA@0   0048503c     kernel32:KERNEL32.dll
 0002:00000040       __imp__GetFullPathNameA@16 00485040     kernel32:KERNEL32.dll
 0002:00000044       __imp__GetLastError@0      00485044     kernel32:KERNEL32.dll
 0002:00000048       __imp__WaitForSingleObject@8 00485048     kernel32:KERNEL32.dll
 0002:0000004c       __imp__GetCurrentProcess@0 0048504c     kernel32:KERNEL32.dll
 0002:00000050       __imp__SetPriorityClass@8  00485050     kernel32:KERNEL32.dll
 0002:00000054       __imp__GetTickCount@0      00485054     kernel32:KERNEL32.dll
 0002:00000058       __imp__GetModuleFileNameA@12 00485058     kernel32:KERNEL32.dll
 0002:0000005c       __imp__GetModuleHandleA@4  0048505c     kernel32:KERNEL32.dll
 0002:00000060       __imp__GlobalAlloc@8       00485060     kernel32:KERNEL32.dll
 0002:00000064       __imp__GlobalUnlock@4      00485064     kernel32:KERNEL32.dll
 0002:00000068       __imp__GlobalLock@4        00485068     kernel32:KERNEL32.dll
 0002:0000006c       __imp__GlobalFree@4        0048506c     kernel32:KERNEL32.dll
 0002:00000070       __imp__MultiByteToWideChar@24 00485070     kernel32:KERNEL32.dll
 0002:00000074       __imp__CreateFileA@28      00485074     kernel32:KERNEL32.dll
 0002:00000078       __imp__SetUnhandledExceptionFilter@4 00485078     kernel32:KERNEL32.dll
 0002:0000007c       __imp__InitializeCriticalSection@4 0048507c     kernel32:KERNEL32.dll
 0002:00000080       __imp__EnterCriticalSection@4 00485080     kernel32:KERNEL32.dll
 0002:00000084       __imp__GetCurrentProcessId@0 00485084     kernel32:KERNEL32.dll
 0002:00000088       __imp__ExitProcess@4       00485088     kernel32:KERNEL32.dll
 0002:0000008c       __imp__GetCurrentThreadId@0 0048508c     kernel32:KERNEL32.dll
 0002:00000090       __imp__WideCharToMultiByte@32 00485090     kernel32:KERNEL32.dll
 0002:00000094       __imp__CreateThread@24     00485094     kernel32:KERNEL32.dll
 0002:00000098       __imp__SetEnvironmentVariableW@8 00485098     kernel32:KERNEL32.dll
 0002:0000009c       __imp__FreeEnvironmentStringsW@4 0048509c     kernel32:KERNEL32.dll
 0002:000000a0       __imp__GetEnvironmentStringsW@0 004850a0     kernel32:KERNEL32.dll
 0002:000000a4       __imp__GetOEMCP@0          004850a4     kernel32:KERNEL32.dll
 0002:000000a8       __imp__GetACP@0            004850a8     kernel32:KERNEL32.dll
 0002:000000ac       __imp__IsValidCodePage@4   004850ac     kernel32:KERNEL32.dll
 0002:000000b0       __imp__HeapQueryInformation@20 004850b0     kernel32:KERNEL32.dll
 0002:000000b4       __imp__HeapSize@12         004850b4     kernel32:KERNEL32.dll
 0002:000000b8       __imp__HeapReAlloc@16      004850b8     kernel32:KERNEL32.dll
 0002:000000bc       __imp__FlushFileBuffers@4  004850bc     kernel32:KERNEL32.dll
 0002:000000c0       __imp__GetTimeZoneInformation@4 004850c0     kernel32:KERNEL32.dll
 0002:000000c4       __imp__GetFileSizeEx@8     004850c4     kernel32:KERNEL32.dll
 0002:000000c8       __imp__GetConsoleOutputCP@0 004850c8     kernel32:KERNEL32.dll
 0002:000000cc       __imp__WaitForSingleObjectEx@12 004850cc     kernel32:KERNEL32.dll
 0002:000000d0       __imp__SwitchToThread@0    004850d0     kernel32:KERNEL32.dll
 0002:000000d4       __imp__GetExitCodeThread@8 004850d4     kernel32:KERNEL32.dll
 0002:000000d8       __imp__IsProcessorFeaturePresent@4 004850d8     kernel32:KERNEL32.dll
 0002:000000dc       __imp__GetCurrentDirectoryW@8 004850dc     kernel32:KERNEL32.dll
 0002:000000e0       __imp__CreateFileW@28      004850e0     kernel32:KERNEL32.dll
 0002:000000e4       __imp__FindClose@4         004850e4     kernel32:KERNEL32.dll
 0002:000000e8       __imp__FindFirstFileExW@24 004850e8     kernel32:KERNEL32.dll
 0002:000000ec       __imp__FindNextFileW@8     004850ec     kernel32:KERNEL32.dll
 0002:000000f0       __imp__AreFileApisANSI@0   004850f0     kernel32:KERNEL32.dll
 0002:000000f4       __imp__GetModuleHandleW@4  004850f4     kernel32:KERNEL32.dll
 0002:000000f8       __imp__GetProcAddress@8    004850f8     kernel32:KERNEL32.dll
 0002:000000fc       __imp__LocalFree@4         004850fc     kernel32:KERNEL32.dll
 0002:00000100       __imp__FormatMessageA@28   00485100     kernel32:KERNEL32.dll
 0002:00000104       __imp__GetLocaleInfoEx@16  00485104     kernel32:KERNEL32.dll
 0002:00000108       __imp__LeaveCriticalSection@4 00485108     kernel32:KERNEL32.dll
 0002:0000010c       __imp__InitializeCriticalSectionEx@12 0048510c     kernel32:KERNEL32.dll
 0002:00000110       __imp__DeleteCriticalSection@4 00485110     kernel32:KERNEL32.dll
 0002:00000114       __imp__QueryPerformanceCounter@4 00485114     kernel32:KERNEL32.dll
 0002:00000118       __imp__QueryPerformanceFrequency@4 00485118     kernel32:KERNEL32.dll
 0002:0000011c       __imp__ReleaseSRWLockExclusive@4 0048511c     kernel32:KERNEL32.dll
 0002:00000120       __imp__AcquireSRWLockExclusive@4 00485120     kernel32:KERNEL32.dll
 0002:00000124       __imp__TryAcquireSRWLockExclusive@4 00485124     kernel32:KERNEL32.dll
 0002:00000128       __imp__WakeAllConditionVariable@4 00485128     kernel32:KERNEL32.dll
 0002:0000012c       __imp__SleepConditionVariableSRW@16 0048512c     kernel32:KERNEL32.dll
 0002:00000130       __imp__EncodePointer@4     00485130     kernel32:KERNEL32.dll
 0002:00000134       __imp__DecodePointer@4     00485134     kernel32:KERNEL32.dll
 0002:00000138       __imp__CreateEventExW@16   00485138     kernel32:KERNEL32.dll
 0002:0000013c       __imp__CreateSemaphoreExW@24 0048513c     kernel32:KERNEL32.dll
 0002:00000140       __imp__FlushProcessWriteBuffers@0 00485140     kernel32:KERNEL32.dll
 0002:00000144       __imp__GetSystemTimeAsFileTime@4 00485144     kernel32:KERNEL32.dll
 0002:00000148       __imp__GetTickCount64@0    00485148     kernel32:KERNEL32.dll
 0002:0000014c       __imp__FreeLibraryWhenCallbackReturns@8 0048514c     kernel32:KERNEL32.dll
 0002:00000150       __imp__CreateThreadpoolTimer@12 00485150     kernel32:KERNEL32.dll
 0002:00000154       __imp__SetThreadpoolTimer@16 00485154     kernel32:KERNEL32.dll
 0002:00000158       __imp__WaitForThreadpoolTimerCallbacks@8 00485158     kernel32:KERNEL32.dll
 0002:0000015c       __imp__CloseThreadpoolTimer@4 0048515c     kernel32:KERNEL32.dll
 0002:00000160       __imp__CreateThreadpoolWait@12 00485160     kernel32:KERNEL32.dll
 0002:00000164       __imp__SetThreadpoolWait@12 00485164     kernel32:KERNEL32.dll
 0002:00000168       __imp__CloseThreadpoolWait@4 00485168     kernel32:KERNEL32.dll
 0002:0000016c       __imp__GetStringTypeW@16   0048516c     kernel32:KERNEL32.dll
 0002:00000170       __imp__GetCPInfo@8         00485170     kernel32:KERNEL32.dll
 0002:00000174       __imp__GetCurrentThread@0  00485174     kernel32:KERNEL32.dll
 0002:00000178       __imp__GetThreadTimes@20   00485178     kernel32:KERNEL32.dll
 0002:0000017c       __imp__FreeLibrary@4       0048517c     kernel32:KERNEL32.dll
 0002:00000180       __imp__FreeLibraryAndExitThread@8 00485180     kernel32:KERNEL32.dll
 0002:00000184       __imp__GetModuleFileNameW@12 00485184     kernel32:KERNEL32.dll
 0002:00000188       __imp__LoadLibraryExW@12   00485188     kernel32:KERNEL32.dll
 0002:0000018c       __imp__InterlockedPopEntrySList@4 0048518c     kernel32:KERNEL32.dll
 0002:00000190       __imp__InterlockedPushEntrySList@8 00485190     kernel32:KERNEL32.dll
 0002:00000194       __imp__InterlockedFlushSList@4 00485194     kernel32:KERNEL32.dll
 0002:00000198       __imp__QueryDepthSList@4   00485198     kernel32:KERNEL32.dll
 0002:0000019c       __imp__SetLastError@4      0048519c     kernel32:KERNEL32.dll
 0002:000001a0       __imp__LoadLibraryW@4      004851a0     kernel32:KERNEL32.dll
 0002:000001a4       __imp__SetEvent@4          004851a4     kernel32:KERNEL32.dll
 0002:000001a8       __imp__SignalObjectAndWait@16 004851a8     kernel32:KERNEL32.dll
 0002:000001ac       __imp__SetThreadPriority@8 004851ac     kernel32:KERNEL32.dll
 0002:000001b0       __imp__GetThreadPriority@4 004851b0     kernel32:KERNEL32.dll
 0002:000001b4       __imp__TlsAlloc@0          004851b4     kernel32:KERNEL32.dll
 0002:000001b8       __imp__TlsGetValue@4       004851b8     kernel32:KERNEL32.dll
 0002:000001bc       __imp__TlsSetValue@8       004851bc     kernel32:KERNEL32.dll
 0002:000001c0       __imp__TlsFree@4           004851c0     kernel32:KERNEL32.dll
 0002:000001c4       __imp__GetCurrentProcessorNumberEx@4 004851c4     kernel32:KERNEL32.dll
 0002:000001c8       __imp__GetLogicalProcessorInformationEx@12 004851c8     kernel32:KERNEL32.dll
 0002:000001cc       __imp__GetNumaHighestNodeNumber@4 004851cc     kernel32:KERNEL32.dll
 0002:000001d0       __imp__GetThreadGroupAffinity@8 004851d0     kernel32:KERNEL32.dll
 0002:000001d4       __imp__SetThreadGroupAffinity@12 004851d4     kernel32:KERNEL32.dll
 0002:000001d8       __imp__DuplicateHandle@28  004851d8     kernel32:KERNEL32.dll
 0002:000001dc       __imp__ReleaseSemaphore@12 004851dc     kernel32:KERNEL32.dll
 0002:000001e0       __imp__InitializeSListHead@4 004851e0     kernel32:KERNEL32.dll
 0002:000001e4       __imp__VerSetConditionMask@16 004851e4     kernel32:KERNEL32.dll
 0002:000001e8       __imp__VirtualFree@12      004851e8     kernel32:KERNEL32.dll
 0002:000001ec       __imp__GetProcessAffinityMask@12 004851ec     kernel32:KERNEL32.dll
 0002:000001f0       __imp__VerifyVersionInfoW@16 004851f0     kernel32:KERNEL32.dll
 0002:000001f4       __imp__IsDebuggerPresent@0 004851f4     kernel32:KERNEL32.dll
 0002:000001f8       __imp__UnhandledExceptionFilter@4 004851f8     kernel32:KERNEL32.dll
 0002:000001fc       __imp__GetStartupInfoW@4   004851fc     kernel32:KERNEL32.dll
 0002:00000200       __imp__TerminateProcess@8  00485200     kernel32:KERNEL32.dll
 0002:00000204       __imp__RaiseException@16   00485204     kernel32:KERNEL32.dll
 0002:00000208       __imp__RtlUnwind@16        00485208     kernel32:KERNEL32.dll
 0002:0000020c       __imp__InitializeCriticalSectionAndSpinCount@8 0048520c     kernel32:KERNEL32.dll
 0002:00000210       __imp__ReadFile@20         00485210     kernel32:KERNEL32.dll
 0002:00000214       __imp__ExitThread@4        00485214     kernel32:KERNEL32.dll
 0002:00000218       __imp__GetModuleHandleExW@12 00485218     kernel32:KERNEL32.dll
 0002:0000021c       __imp__GetStdHandle@4      0048521c     kernel32:KERNEL32.dll
 0002:00000220       __imp__WriteFile@20        00485220     kernel32:KERNEL32.dll
 0002:00000224       __imp__GetCommandLineW@0   00485224     kernel32:KERNEL32.dll
 0002:00000228       __imp__HeapAlloc@12        00485228     kernel32:KERNEL32.dll
 0002:0000022c       __imp__HeapFree@12         0048522c     kernel32:KERNEL32.dll
 0002:00000230       __imp__FlsAlloc@4          00485230     kernel32:KERNEL32.dll
 0002:00000234       __imp__FlsGetValue@4       00485234     kernel32:KERNEL32.dll
 0002:00000238       __imp__FlsSetValue@8       00485238     kernel32:KERNEL32.dll
 0002:0000023c       __imp__FlsFree@4           0048523c     kernel32:KERNEL32.dll
 0002:00000240       __imp__VirtualProtect@16   00485240     kernel32:KERNEL32.dll
 0002:00000244       __imp__CompareStringW@24   00485244     kernel32:KERNEL32.dll
 0002:00000248       __imp__LCMapStringW@24     00485248     kernel32:KERNEL32.dll
 0002:0000024c       __imp__GetLocaleInfoW@16   0048524c     kernel32:KERNEL32.dll
 0002:00000250       __imp__IsValidLocale@8     00485250     kernel32:KERNEL32.dll
 0002:00000254       __imp__GetUserDefaultLCID@0 00485254     kernel32:KERNEL32.dll
 0002:00000258       __imp__EnumSystemLocalesW@8 00485258     kernel32:KERNEL32.dll
 0002:0000025c       __imp__GetFileType@4       0048525c     kernel32:KERNEL32.dll
 0002:00000260       __imp__SetFilePointerEx@20 00485260     kernel32:KERNEL32.dll
 0002:00000264       __imp__GetConsoleMode@8    00485264     kernel32:KERNEL32.dll
 0002:00000268       __imp__ReadConsoleW@20     00485268     kernel32:KERNEL32.dll
 0002:0000026c       __imp__WriteConsoleW@20    0048526c     kernel32:KERNEL32.dll
 0002:00000270       \177KERNEL32_NULL_THUNK_DATA 00485270     kernel32:KERNEL32.dll
 0002:00000274       __imp__GetDesktopWindow@0  00485274     user32:USER32.dll
 0002:00000278       __imp__GetWindowRect@8     00485278     user32:USER32.dll
 0002:0000027c       __imp__SetWindowTextA@8    0048527c     user32:USER32.dll
 0002:00000280       __imp__GetSystemMetrics@4  00485280     user32:USER32.dll
 0002:00000284       __imp__DialogBoxParamA@20  00485284     user32:USER32.dll
 0002:00000288       __imp__SystemParametersInfoA@16 00485288     user32:USER32.dll
 0002:0000028c       __imp__SetFocus@4          0048528c     user32:USER32.dll
 0002:00000290       __imp__GetDlgItem@8        00485290     user32:USER32.dll
 0002:00000294       __imp__EndDialog@8         00485294     user32:USER32.dll
 0002:00000298       __imp__DialogBoxIndirectParamA@20 00485298     user32:USER32.dll
 0002:0000029c       __imp__SetWindowPos@28     0048529c     user32:USER32.dll
 0002:000002a0       __imp__SendMessageA@16     004852a0     user32:USER32.dll
 0002:000002a4       \177USER32_NULL_THUNK_DATA 004852a4     user32:USER32.dll
 0002:000002a8       __imp__UnDecorateSymbolName@16 004852a8     Dbghelp:dbghelp.dll
 0002:000002ac       __imp__MiniDumpWriteDump@28 004852ac     Dbghelp:dbghelp.dll
 0002:000002b0       \177dbghelp_NULL_THUNK_DATA 004852b0     Dbghelp:dbghelp.dll
 0002:000002b4       ___guard_check_icall_fptr  004852b4     LIBCMT:guard_support.obj
 0002:000002b8       ___castguard_check_failure_os_handled_fptr 004852b8     LIBCMT:guard_support.obj
 0002:000002bc       ___xc_a                    004852bc     LIBCMT:initializers.obj
 0002:000002f8       ___xc_z                    004852f8     LIBCMT:initializers.obj
 0002:000002fc       ___xi_a                    004852fc     LIBCMT:initializers.obj
 0002:0000030c       ___acrt_stdio_initializer  0048530c     libucrt:stdio_initializer.obj
 0002:00000310       ___acrt_clock_initializer  00485310     libucrt:clock_initializer.obj
 0002:00000314       ___acrt_timeset_initializer 00485314     libucrt:timeset_initializer.obj
 0002:00000318       ___acrt_tran_sse2_initializer 00485318     libucrt:sse2_initializer.obj
 0002:0000031c       ___acrt_multibyte_initializer 0048531c     libucrt:multibyte_initializer.obj
 0002:00000320       ___acrt_fmode_initializer  00485320     libucrt:fmode_initializer.obj
 0002:00000324       ___xi_z                    00485324     LIBCMT:initializers.obj
 0002:00000328       ___xp_a                    00485328     LIBCMT:initializers.obj
 0002:00000330       ___acrt_locale_terminator  00485330     libucrt:locale_initializer.obj
 0002:00000334       ___dcrt_console_output_terminator 00485334     libucrt:console_output_initializer.obj
 0002:00000338       ___acrt_stdio_terminator   00485338     libucrt:stdio_initializer.obj
 0002:0000033c       ___xp_z                    0048533c     LIBCMT:initializers.obj
 0002:00000340       ___xt_a                    00485340     LIBCMT:initializers.obj
 0002:00000344       ___xt_z                    00485344     LIBCMT:initializers.obj
 0002:00000360       ??_C@_0BC@EOODALEL@Unknown?5exception@ 00485360     Crinkler.obj
 0002:00000374       ??_C@_0P@GHFPNOJB@bad?5allocation@ 00485374     Crinkler.obj
 0002:00000384       ??_C@_0BF@KINCDENJ@bad?5array?5new?5length@ 00485384     Crinkler.obj
 0002:0000039c       ??_C@_0BB@GCADKGJO@map?1set?5too?5long@ 0048539c     Crinkler.obj
 0002:000003b0       ??_C@_0BA@JFNIOLAK@string?5too?5long@ 004853b0     Crinkler.obj
 0002:000003c0       ??_7ProgressBar@@6B@       004853c0     Crinkler.obj
 0002:000003d8       ??_7ConsoleProgressBar@@6B@ 004853d8     Crinkler.obj
 0002:000003f0       ??_7WindowProgressBar@@6B@ 004853f0     Crinkler.obj
 0002:00000408       ??_7CompositeProgressBar@@6B@ 00485408     Crinkler.obj
 0002:00000420       ??_C@_03MPPIHBHJ@OFF@      00485420     Crinkler.obj
 0002:00000424       ??_C@_07MIDFMCAP@NOTHING@  00485424     Crinkler.obj
 0002:0000042c       ??_C@_05LMAHGIIA@PARTS@    0048542c     Crinkler.obj
 0002:00000434       ??_C@_08KMKOKDGA@SECTIONS@ 00485434     Crinkler.obj
 0002:00000440       ??_C@_06FAOOKADE@MODELS@   00485440     Crinkler.obj
 0002:00000448       ??_C@_03NIFPGLBG@ALL@      00485448     Crinkler.obj
 0002:0000044c       ??_C@_00CNPNBAHC@@         0048544c     Crinkler.obj
 0002:00000450       ??_7_UnrealizedChore@details@Concurrency@@6B@ 00485450     Crinkler.obj
 0002:00000458       ?_Grapheme_Break_property_data@std@@3U?$_Unicode_property_data@W4_Grapheme_Break_property_values@std@@$0FFL@$0A@@1@B 00485458     Crinkler.obj
 0002:00002480       ?_Extended_Pictographic_property_data@std@@3U?$_Unicode_property_data@W4_Extended_Pictographic_property_values@std@@$0EO@$00@1@B 00487480     Crinkler.obj
 0002:00002658       ?_Width_estimate_intervals_v2@std@@3QB_UB 00487658     Crinkler.obj
 0002:00002980       ??_C@_0BA@ELKIONDK@bad?5locale?5name@ 00487980     Crinkler.obj
 0002:00002990       ??_C@_05LAPONLG@false@     00487990     Crinkler.obj
 0002:00002998       ??_C@_04LOAJBDKD@true@     00487998     Crinkler.obj
 0002:000029a0       ??_7format_error@std@@6B@  004879a0     Crinkler.obj
 0002:000029a8       ??$__DIGIT_TABLE@D@std@@3QBDB 004879a8     Crinkler.obj
 0002:00002a70       ?__POW10_OFFSET@std@@3QBGB 00487a70     Crinkler.obj
 0002:00002af0       ?__POW10_OFFSET_2@std@@3QBGB 00487af0     Crinkler.obj
 0002:00002b80       ?__MIN_BLOCK_2@std@@3QBEB  00487b80     Crinkler.obj
 0002:00002bc8       ?__FLOAT_POW5_INV_SPLIT@std@@3QB_KB 00487bc8     Crinkler.obj
 0002:00002cc0       ?__FLOAT_POW5_SPLIT@std@@3QB_KB 00487cc0     Crinkler.obj
 0002:00002e38       ?_Charconv_digits@std@@3QBDB 00487e38     Crinkler.obj
 0002:00002e60       ??_C@_0EO@IIGPOHCI@?6label?5name?5?5?5?5?5?5?5?5?5?5?5?5?5?5?5?5?5?5?5?5@ 00487e60     Crinkler.obj
 0002:00002eb0       ??_C@_09GCOFNFBD@?6?$CF?938?438s@ 00487eb0     Crinkler.obj
 0002:00002ebc       ??_C@_0L@EJPFMDN@?5?5?$CF?936?436s@ 00487ebc     Crinkler.obj
 0002:00002ec8       ??_C@_0N@IFGPEODL@?5?5?5?5?$CF?934?434s@ 00487ec8     Crinkler.obj
 0002:00002ed8       ??_C@_0P@MKLNNCLH@?5?5?5?5?5?5?$CF?932?432s@ 00487ed8     Crinkler.obj
 0002:00002ee8       ??_C@_0BG@KFLHGOHD@?5?$CF9d?5?$CF8?42f?5?$CF9d?5?$CF8?42f?6@ 00487ee8     Crinkler.obj
 0002:00002f00       ??_C@_0BD@KKHBGNDD@?5?$CF9d?5?5?5?5?5?5?5?5?5?5?$CF9d?6@ 00487f00     Crinkler.obj
 0002:00002f14       ??_C@_0DD@LEHFPLCL@Input?5file?5is?5not?5a?5Crinkler?5co@ 00487f14     Crinkler.obj
 0002:00002f48       ??_C@_0DC@IODJPMBD@No?5functions?5were?5imported?5from@ 00487f48     Crinkler.obj
 0002:00002f7c       ??_C@_0BG@DDBEBGFF@Unsupported?5file?5type@ 00487f7c     Crinkler.obj
 0002:00002f94       ??_C@_06HOGKBANE@__imp_@   00487f94     Crinkler.obj
 0002:00002f9c       ??_C@_06EGGDDPIF@msvcrt@   00487f9c     Crinkler.obj
 0002:00002fa4       ??_C@_07OKPPBOMK@runtime@  00487fa4     Crinkler.obj
 0002:00002fac       ??_C@_0P@IFCHICC@mainCRTStartup@ 00487fac     Crinkler.obj
 0002:00002fbc       ??_C@_0BC@EOMPAEPF@WinMainCRTStartup@ 00487fbc     Crinkler.obj
 0002:00002fd0       ??_C@_0DG@PPIGIGJC@Cannot?5find?5entry?5point?5?8?$CFs?8?4?5S@ 00487fd0     Crinkler.obj
 0002:00003008       ??_C@_0DE@MIMMHEBG@Entry?5point?5not?5at?5start?5of?5sec@ 00488008     Crinkler.obj
 0002:00003040       ??_C@_0EF@MFKDHEAK@Cannot?5create?5integer?5symbol?5?8?$CF@ 00488040     Crinkler.obj
 0002:00003088       ??_C@_0FA@JCIGHBGI@Uninitialized?5hunk?5?8?$CFs?8?5forced?5@ 00488088     Crinkler.obj
 0002:000030d8       ??_C@_0DI@CNEFPJKN@Cannot?5find?5symbol?5?8?$CFs?8?5to?5be?5e@ 004880d8     Crinkler.obj
 0002:00003110       ??_C@_0BG@CEHDACLH@__imp__LoadLibraryA?$EA4@ 00488110     Crinkler.obj
 0002:00003128       ??_C@_0BG@OOEFHEAN@__imp__MessageBoxA?$EA16@ 00488128     Crinkler.obj
 0002:00003140       ??_C@_0BG@HEPCMGPN@__DynamicInitializers@ 00488140     Crinkler.obj
 0002:00003158       ??_C@_0BA@FDKAKDDE@Crinkler?5import@ 00488158     Crinkler.obj
 0002:00003168       ??_C@_0DC@FIIPFMOE@DLL?5fallback?5cannot?5be?5used?5wit@ 00488168     Crinkler.obj
 0002:0000319c       ??_C@_06FEMFHOOG@models@   0048819c     Crinkler.obj
 0002:000031a4       ??_C@_07OPDAKGAH@_Models@  004881a4     Crinkler.obj
 0002:000031ac       ??_C@_0BL@IFJFKOOO@Optimizing?5hash?5table?5size@ 004881ac     Crinkler.obj
 0002:000031c8       ??_C@_0BE@GNEDJFBJ@Reestimating?5models@ 004881c8     Crinkler.obj
 0002:000031dc       ??_C@_0BC@BCDNBDNA@Estimating?5models@ 004881dc     Crinkler.obj
 0002:000031f0       ??_C@_0CC@KFFHMKOA@?6Estimated?5compressed?5size?3?5?$CF?42@ 004881f0     Crinkler.obj
 0002:00003214       ??_C@_0N@HMPKBJOB@Reestimating@ 00488214     Crinkler.obj
 0002:00003224       ??_C@_0L@EHLCPIHK@Estimating@ 00488224     Crinkler.obj
 0002:00003230       ??_C@_0BB@HJPGHLBC@?$CFs?5models?5for?5?$CFs@ 00488230     Crinkler.obj
 0002:00003244       ??_C@_08IBBAJKND@Models?3?5@ 00488244     Crinkler.obj
 0002:00003250       ??_C@_0CH@DNLMFIDK@Estimated?5compressed?5size?5of?5?$CFs@ 00488250     Crinkler.obj
 0002:00003280       ??_C@_0N@MGHBILEJ@_SaturatePtr@ 00488280     Crinkler.obj
 0002:00003290       ??_C@_0BE@NNIAIJGH@_SaturateAdjust1Ptr@ 00488290     Crinkler.obj
 0002:000032a4       ??_C@_0BE@JKCAPDLH@_SaturateAdjust2Ptr@ 004882a4     Crinkler.obj
 0002:000032b8       ??_C@_0O@OJGJCEJN@_UnpackedData@ 004882b8     Crinkler.obj
 0002:000032c8       ??_C@_0L@FFEALDGL@_ImageBase@ 004882c8     Crinkler.obj
 0002:000032d4       ??_C@_0BC@PHINPHPA@_SubsystemTypePtr@ 004882d4     Crinkler.obj
 0002:000032e8       ??_C@_0BC@HOOJKFJG@_LinkerVersionPtr@ 004882e8     Crinkler.obj
 0002:000032fc       ??_C@_0BE@OLEHLOAM@_CharacteristicsPtr@ 004882fc     Crinkler.obj
 0002:00003310       ??_C@_0BI@GHKIELLA@_VirtualSizeHighBytePtr@ 00488310     Crinkler.obj
 0002:00003328       ??_C@_0L@JGPOMPEN@_ModelMask@ 00488328     Crinkler.obj
 0002:00003334       ??_C@_0O@JBGLDBBJ@_BaseProbPtr0@ 00488334     Crinkler.obj
 0002:00003344       ??_C@_0O@IIHAAAFI@_BaseProbPtr1@ 00488344     Crinkler.obj
 0002:00003354       ??_C@_0BA@LINMPMMD@_BoostFactorPtr@ 00488354     Crinkler.obj
 0002:00003364       ??_C@_0BG@DHCAILAC@_DepackEndPositionPtr@ 00488364     Crinkler.obj
 0002:0000337c       ??_C@_0P@OPAMMGEP@_HashTableSize@ 0048837c     Crinkler.obj
 0002:0000338c       ??_C@_0N@LHGLKDGG@_VirtualSize@ 0048838c     Crinkler.obj
 0002:0000339c       ??_C@_0N@CJIELOOC@_BaseProbPtr@ 0048839c     Crinkler.obj
 0002:000033ac       ??_C@_0O@JDOFCFPM@_ModelSkipPtr@ 004883ac     Crinkler.obj
 0002:000033bc       ??_C@_0BD@ILPGCFPF@_ExportTableRVAPtr@ 004883bc     Crinkler.obj
 0002:000033d0       ??_C@_0BM@MAJEAMPE@_NumberOfDataDirectoriesPtr@ 004883d0     Crinkler.obj
 0002:000033ec       ??_C@_0N@ICHFCMMK@_SpareNopPtr@ 004883ec     Crinkler.obj
 0002:00003404       ??_C@_0N@MEMPKFID@?$CFs?5size?3?5?$CFd?6@ 00488404     Crinkler.obj
 0002:0000345c       ??_C@_0BO@CHPKKLLL@Part?5?8?$CFs?8?5is?5larger?5than?564k?4@ 0048845c     Crinkler.obj
 0002:0000347c       ??_C@_02GMLFBBN@wb@        0048847c     Crinkler.obj
 0002:00003480       ??_C@_0BN@MCNEOMMD@Cannot?5open?5?8?$CFs?8?5for?5writing@ 00488480     Crinkler.obj
 0002:000034a0       ??_C@_0FI@NJAHGNDF@File?5compressed?5using?5a?5pre?91?44@ 004884a0     Crinkler.obj
 0002:000034f8       ??_C@_0DO@FOPHLFC@File?5compressed?5or?5recompressed@ 004884f8     Crinkler.obj
 0002:00003538       ??_C@_0EI@DEFEKIEP@Only?5files?5compressed?5using?5Cri@ 00488538     Crinkler.obj
 0002:00003580       ??_C@_06NKLGLLAF@Part?$CFd@ 00488580     Crinkler.obj
 0002:00003588       ??_C@_04BCJPDBDA@Code@     00488588     Crinkler.obj
 0002:00003590       ??_C@_04DICKPMGH@Data@     00488590     Crinkler.obj
 0002:00003598       ??_C@_0BI@OKGMBMBC@Original?5file?5size?3?5?$CFd?6@ 00488598     Crinkler.obj
 0002:000035b0       ??_C@_03IPHJCBHH@YES@      004885b0     Crinkler.obj
 0002:000035b4       ??_C@_02NFLNFON@NO@        004885b4     Crinkler.obj
 0002:000035b8       ??_C@_0BK@PBNIFJCJ@Original?5Tiny?5Header?3?5?$CFs?6@ 004885b8     Crinkler.obj
 0002:000035d4       ??_C@_0BL@POODLHIC@Original?5Virtual?5size?3?5?$CFd?6@ 004885d4     Crinkler.obj
 0002:000035f0       ??_C@_07PCJELJIA@CONSOLE@  004885f0     Crinkler.obj
 0002:000035f8       ??_C@_07LHJOABLP@WINDOWS@  004885f8     Crinkler.obj
 0002:00003600       ??_C@_0BN@INIKNHFJ@Original?5Subsystem?5type?3?5?$CFs?6@ 00488600     Crinkler.obj
 0002:00003620       ??_C@_0CC@JOKGDBN@Original?5Large?5address?5aware?3?5?$CF@ 00488620     Crinkler.obj
 0002:00003644       ??_C@_07HIMJODOE@INSTANT@  00488644     Crinkler.obj
 0002:0000364c       ??_C@_09JMLMCKLI@FAST?1SLOW@ 0048864c     Crinkler.obj
 0002:00003658       ??_C@_0BD@HHJOLBIO@FAST?1SLOW?1VERYSLOW@ 00488658     Crinkler.obj
 0002:0000366c       ??_C@_0BP@PHKHPGPG@Original?5Compression?5mode?3?5?$CFs?6@ 0048866c     Crinkler.obj
 0002:0000368c       ??_C@_0CA@OGCPPCPK@Original?5Saturate?5counters?3?5?$CFs?6@ 0048868c     Crinkler.obj
 0002:000036ac       ??_C@_0BI@LBFLFGMO@Original?5Hash?5size?3?5?$CFd?6@ 004886ac     Crinkler.obj
 0002:000036c4       ??_C@_0BA@NNKFBPCH@Total?5size?3?5?$CFd?6@ 004886c4     Crinkler.obj
 0002:000036d4       ??_C@_01EEMJAFIK@?6@       004886d4     Crinkler.obj
 0002:000036d8       ??_C@_0CI@KPJIGMFP@Failed?5to?5write?5to?5temporary?5fi@ 004886d8     Crinkler.obj
 0002:00003700       ??_C@_0EI@NCGMDOCI@Program?5was?5been?5unresponsive?5f@ 00488700     Crinkler.obj
 0002:00003748       ??_C@_0BP@LNKNKJE@Failed?5to?5read?5process?5memory?6@ 00488748     Crinkler.obj
 0002:00003768       ??_C@_0DA@NFHCLMBL@Call?5transformation?5code?5succes@ 00488768     Crinkler.obj
 0002:00003798       ??_C@_0DC@MHPCDMEN@Call?5transformation?5code?5does?5n@ 00488798     Crinkler.obj
 0002:000037cc       ??_C@_0CD@ICCCFOGO@Import?5code?5successfully?5patche@ 004887cc     Crinkler.obj
 0002:000037f0       ??_C@_0CF@NLLOGFPK@Import?5code?5does?5not?5need?5patch@ 004887f0     Crinkler.obj
 0002:00003818       ??_C@_0CG@HODDPGIK@Cannot?5find?5old?5import?5code?5to?5@ 00488818     Crinkler.obj
 0002:00003840       ??_C@_06OENKJGA@Header@    00488840     Crinkler.obj
 0002:00003848       ??_C@_0BA@MLAJHKNA@crinkler?5header@ 00488848     Crinkler.obj
 0002:00003858       ??_C@_07LFLIHBIB@_header@  00488858     Crinkler.obj
 0002:00003860       ??_C@_0N@JCFBFJEN@_DepackEntry@ 00488860     Crinkler.obj
 0002:00003870       ??_C@_06IENGEGME@linked@   00488870     Crinkler.obj
 0002:00003878       ??_C@_0BC@MDEKNPLM@Original?5Exports?3@ 00488878     Crinkler.obj
 0002:0000388c       ??_C@_06LFKKDFDG@?5NONE?6@ 0048888c     Crinkler.obj
 0002:00003894       ??_C@_0BD@POLNKHED@Resulting?5Exports?3@ 00488894     Crinkler.obj
 0002:000038a8       ??_C@_0BD@DOBHADI@?6Recompressing?4?4?4?6@ 004888a8     Crinkler.obj
 0002:000038bc       ??_C@_0CA@LJCOCBA@Real?5compressed?5total?5size?3?5?$CFd?6@ 004888bc     Crinkler.obj
 0002:000038dc       ??_C@_0DM@LILMGLD@Real?5compressed?5total?5size?3?5?$CFd?6@ 004888dc     Crinkler.obj
 0002:00003918       ??_C@_08KJPILKIK@HashHunk@ 00488918     Crinkler.obj
 0002:00003924       ??_C@_0BC@PJLJMEGM@?6Output?5file?3?5?$CFs?6@ 00488924     Crinkler.obj
 0002:00003938       ??_C@_0BG@GMCEEDPD@Final?5file?5size?3?5?$CFd?6?6@ 00488938     Crinkler.obj
 0002:00003950       ??_C@_07JBHCGDOG@CRT$XCU@  00488950     Crinkler.obj
 0002:00003958       ??_C@_0BK@HIDPJJNF@dynamic?5initializer?5calls@ 00488958     Crinkler.obj
 0002:00003974       ??_C@_01LKDEMHDF@s@        00488974     Crinkler.obj
 0002:00003978       ??_C@_0CF@POMNDHLE@?6Included?5?$CFd?5dynamic?5initialize@ 00488978     Crinkler.obj
 0002:000039a0       ??_C@_0BE@NPKLNCDJ@Part?5?8?$CFs?8?5is?5empty?4@ 004889a0     Crinkler.obj
 0002:000039b4       ??_C@_03DKEJHHJP@?$CFs?3@  004889b4     Crinkler.obj
 0002:000039b8       ??_C@_0CA@POHDLCKM@?6Uncompressed?5size?5of?5?$CF?9?$CKs?5?$CF10d@ 004889b8     Crinkler.obj
 0002:000039d8       ??_C@_0EN@EJMEEKAJ@Part?5?8?$CFs?8?5is?5larger?5than?564k?4?5S@ 004889d8     Crinkler.obj
 0002:00003a28       ??_C@_02JDPG@rb@           00488a28     Crinkler.obj
 0002:00003a2c       ??_C@_0CI@HJBACJIM@Forced?5alignment?5of?5?$CFd?5code?5hun@ 00488a2c     Crinkler.obj
 0002:00003a54       ??_C@_0BJ@EIILJABG@?5?$CIincluding?5entry?5point?$CJ@ 00488a54     Crinkler.obj
 0002:00003a70       ??_C@_02MIICKFIN@?4?6@     00488a70     Crinkler.obj
 0002:00003a74       ??_C@_07PFJDOKIE@_Import@  00488a74     Crinkler.obj
 0002:00003a7c       ??_C@_0N@FBKGGDDM@___ImageBase@ 00488a7c     Crinkler.obj
 0002:00003a8c       ??_C@_0O@KPKOFKBN@_HashShiftPtr@ 00488a8c     Crinkler.obj
 0002:00003a9c       ??_C@_0BC@IAIHMGGJ@_MaxNameLengthPtr@ 00488a9c     Crinkler.obj
 0002:00003ab0       ??_C@_0BF@CBKPDHJG@?6Truncating?5floats?3?6@ 00488ab0     Crinkler.obj
 0002:00003ac8       ??_C@_0BG@LKKDCDLE@?6Read?5reuse?5file?3?5?$CFs?6@ 00488ac8     Crinkler.obj
 0002:00003ae0       ??_C@_0BK@PFFKFBHM@?6Selected?5reuse?5mode?3?5?$CFs?6@ 00488ae0     Crinkler.obj
 0002:00003afc       ??_C@_0BF@KCEFILFM@Total?5text?5size?3?5?$CFd?6@ 00488afc     Crinkler.obj
 0002:00003b14       ??_C@_04OJAHODMC@Text@     00488b14     Crinkler.obj
 0002:00003b1c       ??_C@_0O@HNBJOJF@_HeaderHashes@ 00488b1c     Crinkler.obj
 0002:00003b2c       ??_C@_0CJ@NLPNCFIN@?6File?5size?5with?5reuse?5configura@ 00488b2c     Crinkler.obj
 0002:00003b58       ??_C@_0BI@FCFMOAJL@Writing?5reuse?5file?3?5?$CFs?6@ 00488b58     Crinkler.obj
 0002:00003b70       ??_C@_0BM@FCHBMHDD@Overwriting?5reuse?5file?3?5?$CFs?6@ 00488b70     Crinkler.obj
 0002:00003b8c       ??_C@_0P@PNPOMFP@File?5size?3?5?$CFd?6@ 00488b8c     Crinkler.obj
 0002:00003b9c       ??_C@_0CD@PDAEFAGN@Reverting?5to?5reuse?5configuratio@ 00488b9c     Crinkler.obj
 0002:00003bc0       ??_C@_0BJ@DPGLFJGN@Updating?5reuse?5file?3?5?$CFs?6@ 00488bc0     Crinkler.obj
 0002:00003bdc       ??_C@_0BI@BGOMJCBO@Keeping?5reuse?5file?3?5?$CFs?6@ 00488bdc     Crinkler.obj
 0002:00003bf4       ??_C@_0BE@DENNAEKC@Final?5file?5size?3?5?$CFd@ 00488bf4     Crinkler.obj
 0002:00003c08       ??_C@_0BE@PMPKMAM@?5?$CIprevious?5size?5?$CFd?$CJ@ 00488c08     Crinkler.obj
 0002:00003c1c       ??_C@_0N@FCELNGHN@?5?$CIno?5change?$CJ@ 00488c1c     Crinkler.obj
 0002:00003c2c       ??_C@_02PHMGELLB@?6?6@     00488c2c     Crinkler.obj
 0002:00003c30       ??_C@_0FD@EJBLHGJD@Output?5file?5too?5big?4?5Crinkler?5d@ 00488c30     Crinkler.obj
 0002:00003c84       ??_C@_0CD@DKJMFEJL@Ideal?5compressed?5size?5of?5?$CFs?3?5?$CF?4@ 00488c84     Crinkler.obj
 0002:00003ca8       ??_C@_0CD@IJLCADMF@Ideal?5compressed?5total?5size?3?5?$CF?4@ 00488ca8     Crinkler.obj
 0002:00003ccc       ??_C@_0BA@IJGCHEFD@compressed?5data@ 00488ccc     Crinkler.obj
 0002:00003cdc       ??_C@_0M@CPCNJFIA@_PackedData@ 00488cdc     Crinkler.obj
 0002:00003ce8       ??_C@_0L@NIOIKHIB@_HashTable@ 00488ce8     Crinkler.obj
 0002:00003cf4       ??_C@_05FPBGKCKL@final@    00488cf4     Crinkler.obj
 0002:00003cfc       ??_C@_0N@EKLEAHGF@_ExportTable@ 00488cfc     Crinkler.obj
 0002:00003d0c       ??_C@_0CA@EOADLFNL@Unmatched?5?8?$HN?8?5in?5format?5string?4@ 00488d0c     Crinkler.obj
 0002:00003d2c       ??_C@_0BH@MCHHCMKF@Invalid?5format?5string?4@ 00488d2c     Crinkler.obj
 0002:00003d44       ??_C@_0BK@NMCHMIGI@Unknown?5format?5specifier?4@ 00488d44     Crinkler.obj
 0002:00003d60       ??_C@_0BO@FFAGMLDI@Missing?5?8?$HN?8?5in?5format?5string?4@ 00488d60     Crinkler.obj
 0002:00003d80       ??_C@_0DB@GIGELLBG@Can?5not?5switch?5from?5manual?5to?5a@ 00488d80     Crinkler.obj
 0002:00003db4       ??_C@_0BL@KNEDAEPA@invalid?5fill?5character?5?8?$HL?8@ 00488db4     Crinkler.obj
 0002:00003dd0       ??_C@_0DH@FFGBOAOP@Format?5specifier?5requires?5numer@ 00488dd0     Crinkler.obj
 0002:00003e08       ??_C@_0BC@JOAOKPFE@Number?5is?5too?5big@ 00488e08     Crinkler.obj
 0002:00003e1c       ??_C@_0BM@ONFDPAFF@Invalid?5type?5specification?4@ 00488e1c     Crinkler.obj
 0002:00003e38       ??_C@_0CE@OLPMMFCN@Invalid?5presentation?5type?5speci@ 00488e38     Crinkler.obj
 0002:00003e5c       ??_C@_0CD@PLBGEFIO@Invalid?5presentation?5type?5for?5b@ 00488e5c     Crinkler.obj
 0002:00003e80       ??_C@_0CD@IFHOEGFC@Invalid?5presentation?5type?5for?5c@ 00488e80     Crinkler.obj
 0002:00003ea4       ??_C@_0CG@PIIJGCKO@Invalid?5presentation?5type?5for?5i@ 00488ea4     Crinkler.obj
 0002:00003ecc       ??_C@_0CN@EEOMCCM@Invalid?5presentation?5type?5for?5f@ 00488ecc     Crinkler.obj
 0002:00003efc       ??_C@_0CF@MMFFCGKF@Invalid?5presentation?5type?5for?5s@ 00488efc     Crinkler.obj
 0002:00003f24       ??_C@_0CG@LHDOJLDP@Invalid?5presentation?5type?5for?5p@ 00488f24     Crinkler.obj
 0002:00003f4c       ??_C@_0DM@LDJDLGDF@Hash?1sign?5modifier?5requires?5an?5@ 00488f4c     Crinkler.obj
 0002:00003f88       ??_C@_0EC@JCIMBFLB@Zero?5modifier?5requires?5an?5arith@ 00488f88     Crinkler.obj
 0002:00003fcc       ??_C@_0P@IHBBLECK@?5?1SUBSYSTEM?3?$HL?$HN@ 00488fcc     Crinkler.obj
 0002:00003fdc       ??_C@_0BE@HCHGHOKI@?5?1LARGEADDRESSAWARE@ 00488fdc     Crinkler.obj
 0002:00003ff0       ??_C@_0L@PKNMFOCD@?5?1ENTRY?3?$HL?$HN@ 00488ff0     Crinkler.obj
 0002:00003ffc       ??_C@_0N@HIOJGKBK@?5?1TINYHEADER@ 00488ffc     Crinkler.obj
 0002:0000400c       ??_C@_0N@PHHPMIID@?5?1TINYIMPORT@ 0048900c     Crinkler.obj
 0002:0000401c       ??_C@_0O@DFNHPAEP@?5?1COMPMODE?3?$HL?$HN@ 0048901c     Crinkler.obj
 0002:0000402c       ??_C@_0L@OEDOMGG@?5?1SATURATE@ 0048902c     Crinkler.obj
 0002:00004038       ??_C@_0O@LHBFLLN@?5?1HASHSIZE?3?$HL?$HN@ 00489038     Crinkler.obj
 0002:00004048       ??_C@_0P@IPMLCJOA@?5?1HASHTRIES?3?$HL?$HN@ 00489048     Crinkler.obj
 0002:00004058       ??_C@_0BA@BLPNPONO@?5?1ORDERTRIES?3?$HL?$HN@ 00489058     Crinkler.obj
 0002:00004068       ??_C@_0L@NOPIEJBM@?5?1RANGE?3?$HL?$HN@ 00489068     Crinkler.obj
 0002:00004074       ??_C@_0BD@HKGPACGO@?5?1REPLACEDLL?3?$HL?$HN?$DN?$HL?$HN@ 00489074     Crinkler.obj
 0002:00004088       ??_C@_0BE@OINDMCPO@?5?1FALLBACKDLL?3?$HL?$HN?$DN?$HL?$HN@ 00489088     Crinkler.obj
 0002:0000409c       ??_C@_0P@ICOBEDKN@?5?1UNSAFEIMPORT@ 0048909c     Crinkler.obj
 0002:000040ac       ??_C@_0BC@KBCEAEFB@?5?1TRANSFORM?3CALLS@ 004890ac     Crinkler.obj
 0002:000040c0       ??_C@_0BE@NCIFDFHO@?5?1TRUNCATEFLOATS?3?$HL?$HN@ 004890c0     Crinkler.obj
 0002:000040d4       ??_C@_0BF@FFKAOPNO@?5?1OVERRIDEALIGNMENTS@ 004890d4     Crinkler.obj
 0002:000040ec       ??_C@_03IDBILICM@?3?$HL?$HN@ 004890ec     Crinkler.obj
 0002:000040f0       ??_C@_0O@LKIDOONL@?5?1UNALIGNCODE@ 004890f0     Crinkler.obj
 0002:00004100       ??_C@_0BB@FDEOEGKP@?5?1NOINITIALIZERS@ 00489100     Crinkler.obj
 0002:00004114       ??_C@_0BF@PLFJOCBF@?5?1EXPORT?3?$HL?$HN?$DN0x?$HL?308X?$HN@ 00489114     Crinkler.obj
 0002:0000412c       ??_C@_0M@OHFBIJN@?5?1EXPORT?3?$HL?$HN@ 0048912c     Crinkler.obj
 0002:00004138       ??_C@_0P@JHMLJGDB@?5?1EXPORT?3?$HL?$HN?$DN?$HL?$HN@ 00489138     Crinkler.obj
 0002:00004148       ??_C@_03OJHLLCGB@inf@      00489148     Crinkler.obj
 0002:0000414c       ??_C@_08OFCDMILK@nan?$CIind?$CJ@ 0048914c     Crinkler.obj
 0002:00004158       ??_C@_03LHCJEHON@nan@      00489158     Crinkler.obj
 0002:0000415c       ??_C@_09IPFBKMDL@nan?$CIsnan?$CJ@ 0048915c     Crinkler.obj
 0002:00004168       ??_C@_0BN@CAABEHAA@Missing?5precision?5specifier?4@ 00489168     Crinkler.obj
 0002:00004188       ??_C@_0BJ@FNNNKMGD@Invalid?5fill?5?$CItoo?5long?$CJ?4@ 00489188     Crinkler.obj
 0002:0000430c       ??_C@_0CM@EFKJINMJ@Format?5specifier?5requires?5numer@ 0048930c     Crinkler.obj
 0002:00004338       ??_C@_0DB@FGJJGOLD@Can?5not?5switch?5from?5automatic?5t@ 00489338     Crinkler.obj
 0002:0000436c       ??_C@_05JHILFKJA@0e?$CL00@ 0048936c     Crinkler.obj
 0002:000043a4       ??_C@_05EJCIBGJD@_Step@    004893a4     Crinkler.obj
 0002:000043ac       ??_7?$_Fmt_iterator_buffer@V?$back_insert_iterator@V?$vector@DV?$allocator@D@std@@@std@@@std@@DU_Fmt_buffer_traits@2@@std@@6B@ 004893ac     Crinkler.obj
 0002:000043b0       ??_C@_0CO@ILLNLEBH@Precision?5not?5allowed?5for?5this?5@ 004893b0     Crinkler.obj
 0002:000043e0       ?_Adjustment@?CB@???$__to_chars@D@std@@YA?AU?$pair@PADW4errc@std@@@1@QAD0U__floating_decimal_32@1@W4chars_format@1@II@Z@4QBEB 004893e0     Crinkler.obj
 0002:00004408       ?_Max_shifted_mantissa@?DC@???$__to_chars@D@std@@YA?AU?$pair@PADW4errc@std@@@1@QAD0U__floating_decimal_32@1@W4chars_format@1@II@Z@4QBIB 00489408     Crinkler.obj
 0002:00004438       ?_Adjustment@?CB@???$__to_chars@D@std@@YA?AU?$pair@PADW4errc@std@@@1@QAD0U__floating_decimal_64@1@W4chars_format@1@N@Z@4QBEB 00489438     Crinkler.obj
 0002:00004570       ?_Max_shifted_mantissa@?DC@???$__to_chars@D@std@@YA?AU?$pair@PADW4errc@std@@@1@QAD0U__floating_decimal_64@1@W4chars_format@1@N@Z@4QB_KB 00489570     Crinkler.obj
 0002:00004628       ??_C@_0BA@FOIKENOD@vector?5too?5long@ 00489628     Crinkler.obj
 0002:00004640       ??_C@_0BE@JHBJMIJI@Argument?5not?5found?4@ 00489640     Crinkler.obj
 0002:00004654       ??_C@_0BI@KLAHEKGE@String?5pointer?5is?5null?4@ 00489654     Crinkler.obj
 0002:0000466c       ??_C@_0CC@OGKFJOLL@integral?5cannot?5be?5stored?5in?5ch@ 0048966c     Crinkler.obj
 0002:00004694       ??_C@_02HDBOMKFI@0b@       00489694     Crinkler.obj
 0002:00004698       ??_C@_02OGJKOOPK@0B@       00489698     Crinkler.obj
 0002:0000469c       ??_C@_02MDDDDAID@0x@       0048969c     Crinkler.obj
 0002:000046a0       ??_C@_02FGLHBECB@0X@       004896a0     Crinkler.obj
 0002:000046a4       ??_C@_01GBGANLPD@0@        004896a4     Crinkler.obj
 0002:000046a8       ??_C@_0BD@GHJPJCGO@Number?5is?5too?5big?4@ 004896a8     Crinkler.obj
 0002:000046bc       ??_C@_0BJ@FLMOJPKL@Width?5is?5not?5an?5integer?4@ 004896bc     Crinkler.obj
 0002:000046d8       ??_C@_0BA@INGMONDA@Negative?5width?4@ 004896d8     Crinkler.obj
 0002:000046e8       ??_C@_0BN@DNNEEKIC@Precision?5is?5not?5an?5integer?4@ 004896e8     Crinkler.obj
 0002:00004708       ??_C@_0BE@DEGOCOHL@Negative?5precision?4@ 00489708     Crinkler.obj
 0002:0000471c       __real@00000000            0048971c     Crinkler.obj
 0002:00004720       __real@0000000000000000    00489720     Crinkler.obj
 0002:00004728       __real@3a000000            00489728     Crinkler.obj
 0002:0000472c       __real@3f800000            0048972c     Crinkler.obj
 0002:00004730       __real@3ff0000000000000    00489730     Crinkler.obj
 0002:00004740       __xmm@0000000000000000ffffffffffffffff 00489740     Crinkler.obj
 0002:00004750       __xmm@7fffffff7fffffff7fffffff7fffffff 00489750     Crinkler.obj
 0002:00004760       __xmm@7fffffffffffffff7fffffffffffffff 00489760     Crinkler.obj
 0002:00004770       ??_C@_07KCLLBNKA@Exports@  00489770     Export.obj
 0002:00004778       ??_C@_06NOPGBFOL@EXPORT@   00489778     Export.obj
 0002:00004780       ??_C@_07FLMNHPPG@exports@  00489780     Export.obj
 0002:00004788       ??_C@_0BB@OIHPIFOC@_ExportAddresses@ 00489788     Export.obj
 0002:0000479c       ??_C@_0N@KDNDLIJG@_ExportNames@ 0048979c     Export.obj
 0002:000047ac       ??_C@_0BA@JDHIBPDI@_ExportOrdinals@ 004897ac     Export.obj
 0002:000047bc       ??_C@_0N@JKOCNDDI@_ExportName_@ 004897bc     Export.obj
 0002:000047cc       ??_C@_0P@ILNLDLO@?5?5?$CFs?5?$DN?50x?$CF08X?6@ 004897cc     Export.obj
 0002:000047dc       ??_C@_05LDOEBFOB@?5?5?$CFs?6@ 004897dc     Export.obj
 0002:000047e4       ??_C@_0M@OJMEEIGH@?5?5?$CFs?5?9?$DO?5?$CFs?6@ 004897e4     Export.obj
 0002:000047f0       ??_C@_0LD@IEFAPPNG@?6?$DM?$CBDOCTYPE?5HTML?5PUBLIC?5?$CC?9?1?1W3C?1@ 004897f0     HtmlReport.obj
 0002:000048a8       ??_C@_0BMDJ@OJJJKILH@?6if?5?$CIINITIAL_THEME?5?$DN?$DN?5?8LIGHT?8?5?$HM@ 004898a8     HtmlReport.obj
 0002:000064e8       ??_C@_0JKE@NKOJOOPE@?6?$DMstyle?5type?$DN?8text?1css?8?$DO?6body?$HL?6@ 0048b4e8     HtmlReport.obj
 0002:00006e90       ??_C@_0CPN@EKFJPDNO@?6?$DMa?5id?$DN?8state_1?8?5href?$DN?8?$CD?8?5oncli@ 0048be90     HtmlReport.obj
 0002:00007190       ??_C@_0JB@KJGHGDDO@?6?$DM?1table?$DO?6?$DMp?$DO?$DMa?5href?$DN?8http?3?1?1cr@ 0048c190     HtmlReport.obj
 0002:00007230       ??_C@_03NKBOLEBK@0?41@     0048c230     HtmlReport.obj
 0002:00007234       ??_C@_03LOHCHBBO@0?45@     0048c234     HtmlReport.obj
 0002:00007238       ??_C@_01HIHLOKLC@1@        0048c238     HtmlReport.obj
 0002:0000723c       ??_C@_01FDFGLJHB@2@        0048c23c     HtmlReport.obj
 0002:00007240       ??_C@_01EKENIIDA@3@        0048c240     HtmlReport.obj
 0002:00007244       ??_C@_01BMBHCPLG@5@        0048c244     HtmlReport.obj
 0002:00007248       ??_C@_01COCBENDE@7@        0048c248     HtmlReport.obj
 0002:0000724c       ??_C@_01LAKCGALK@9@        0048c24c     HtmlReport.obj
 0002:00007250       ??_C@_02MIGHPNDL@12@       0048c250     HtmlReport.obj
 0002:00007254       ??_C@_08MCGACOPD@a?5lot?5of@ 0048c254     HtmlReport.obj
 0002:00007260       ??_C@_04MLLDKFCD@DARK@     0048c260     HtmlReport.obj
 0002:00007268       ??_C@_05MFNJIKNP@LIGHT@    0048c268     HtmlReport.obj
 0002:00007270       ??_C@_04LMMJFDCN@AUTO@     0048c270     HtmlReport.obj
 0002:00007278       ??_C@_07DCLBNMLN@generic@  0048c278     HtmlReport.obj
 0002:00007280       ??_7_System_error_category@std@@6B@ 0048c280     HtmlReport.obj
 0002:00007298       ??_C@_06FHFOAHML@system@   0048c298     HtmlReport.obj
 0002:000072a0       ?_Unknown_error@?6??message@_System_error_category@std@@UBE?AV?$basic_string@DU?$char_traits@D@std@@V?$allocator@D@2@@3@H@Z@4QBDB 0048c2a0     HtmlReport.obj
 0002:000072ae       ?_Is_slash@filesystem@std@@3U_Is_slash_oper@12@B 0048c2ae     HtmlReport.obj
 0002:000072b0       ??_C@_01IPJKGB@?$CD@       0048c2b0     HtmlReport.obj
 0002:000072b4       ??_C@_0BN@OOLJICIM@?$DMtd?5byte?9spacing?$DO?$CGnbsp?$DL?$DM?1td?$DO@ 0048c2b4     HtmlReport.obj
 0002:000072d4       ??_C@_0DH@NFCKPLKJ@?$DMtd?5class?$DN?8sc?$HL?$HN?8?5name?$DN?8byte?8?5by@ 0048c2d4     HtmlReport.obj
 0002:0000730c       ??_C@_0DD@BPAGOJOB@?$DMtd?5class?$DN?8sc?$HL?$HN?8?5name?$DN?8byte?8?5by@ 0048c30c     HtmlReport.obj
 0002:00007340       ??_C@_0BA@JEHJMEOJ@?$DMtd?$DO?$CGnbsp?$DL?$DM?1td?$DO@ 0048c340     HtmlReport.obj
 0002:00007350       ??_C@_0BG@JOBHPHPA@?$DMtd?$DO?$CGnbsp?$DL?$CGnbsp?$DL?$DM?1td?$DO@ 0048c350     HtmlReport.obj
 0002:00007368       ??_C@_04KNINFIGH@?$DM?1a?$DO@ 0048c368     HtmlReport.obj
 0002:00007370       ??_C@_04CDCBNPCK@?$CC?$CJ?8?$DO@ 0048c370     HtmlReport.obj
 0002:00007378       ??_C@_0BN@FPCCAHJI@?8?5onclick?$DN?8recursiveExpand?$CI?$CC@ 0048c378     HtmlReport.obj
 0002:00007398       ??_C@_0L@LNIEBLFF@?$DMa?5href?$DN?8?$CD@ 0048c398     HtmlReport.obj
 0002:000073a4       ??_C@_09BBJECIDC@?$HL?$HN?$CL0x?$HL?3X?$HN@ 0048c3a4     HtmlReport.obj
 0002:000073b0       ??_C@_09NHPLCBLF@?$HL?$HN?90x?$HL?3X?$HN@ 0048c3b0     HtmlReport.obj
 0002:000073bc       ??_C@_02EMFKHFLK@?$CFX@    0048c3bc     HtmlReport.obj
 0002:000073c0       ??_C@_02MCILKGOH@?$HL?$HN@ 0048c3c0     HtmlReport.obj
 0002:000073c4       ??_C@_0DE@BJNIMJMD@?$DMtitle?$DO?$HL?$HN?3?5?$HL?$HN?5?9?5Crinkler?5compre@ 0048c3c4     HtmlReport.obj
 0002:000073f8       ??_C@_0DC@GBCAGNMB@?$DMlink?5rel?$DN?8icon?8?5href?$DN?8data?3ima@ 0048c3f8     HtmlReport.obj
 0002:0000742c       ??_C@_0CA@BCKLLODE@?$DMscript?5type?$DN?8text?1javascript?8?$DO@ 0048c42c     HtmlReport.obj
 0002:0000744c       ??_C@_0BG@JMGGIEGC@const?5CODEBASE?5?$DN?5?$HL?$HN?$DL?6@ 0048c44c     HtmlReport.obj
 0002:00007464       ??_C@_0BL@CNCFKJHF@const?5BIT_PRECISION?5?$DN?5?$HL?$HN?$DL?6@ 0048c464     HtmlReport.obj
 0002:00007480       ??_C@_0BN@LHEHKEKN@const?5INITIAL_THEME?5?$DN?5?8?$HL?$HN?8?$DL?6@ 0048c480     HtmlReport.obj
 0002:000074a0       ??_C@_0BD@JBELMNMA@const?5sizefill?5?$DN?5?$FL@ 0048c4a0     HtmlReport.obj
 0002:000074b4       ??_C@_01IHBHIGKO@?0@       0048c4b4     HtmlReport.obj
 0002:000074b8       ??_C@_04OMLPCBHH@?$HL?$HN?$HL?$HN@ 0048c4b8     HtmlReport.obj
 0002:000074c0       ??_C@_03DFANBFGH@?$FN?$DL?6@ 0048c4c0     HtmlReport.obj
 0002:000074c4       ??_C@_09LJLKNN@?$DM?1script?$DO@ 0048c4c4     HtmlReport.obj
 0002:000074d0       ??_C@_0O@PHIMDEIL@Crinkler?53?40a@ 0048c4d0     HtmlReport.obj
 0002:000074e0       ??_C@_0DI@JKCAKALK@?$DMp?$DO?$DMb?$DOReport?5for?5file?5?$HL?$HN?5genera@ 0048c4e0     HtmlReport.obj
 0002:00007518       ??_C@_0P@PAANNPDA@?$DMp?$DO?$DMb?$DOOptions?3@ 0048c518     HtmlReport.obj
 0002:00007528       ??_C@_08FKEIAKLO@?$DM?1b?$DO?$DM?1p?$DO@ 0048c528     HtmlReport.obj
 0002:00007534       ??_C@_0CD@EBPKMEH@?$DMp?$DO?$DMb?$DOOutput?5file?5size?3?5?$HL?$HN?$DM?1b?$DO?$DM@ 0048c534     HtmlReport.obj
 0002:00007558       ??_C@_0EO@HFODHDHN@?$DMp?$DO?$DMtable?$DO?$DMtr?$DO?$DMtd?5rowspan?$DN?82?8?$DO?$DM@ 0048c558     HtmlReport.obj
 0002:000075a8       ??_C@_0EL@LJMEEPHM@?$DMtd?5class?$DN?8sc?$HL?$HN?8?5style?$DN?8backgro@ 0048c5a8     HtmlReport.obj
 0002:000075f4       ??_C@_0BL@COBPAOIL@Less?5than?5?$HL?$HN?5bits?5per?5byte@ 0048c5f4     HtmlReport.obj
 0002:00007610       ??_C@_0BL@GKCNMOHK@More?5than?5?$HL?$HN?5bits?5per?5byte@ 0048c610     HtmlReport.obj
 0002:0000762c       ??_C@_0CA@FNPEEKJ@Between?5?$HL?$HN?5and?5?$HL?$HN?5bits?5per?5byte@ 0048c62c     HtmlReport.obj
 0002:0000764c       ??_C@_0CA@KMIBAPHP@?8?$DO?$CGnbsp?$DL?$CGnbsp?$DL?$CGnbsp?$DL?$CGnbsp?$DL?$DM?1td?$DO@ 0048c64c     HtmlReport.obj
 0002:0000766c       ??_C@_0CP@LADILKBG@?$DM?1tr?$DO?6?$DMtr?$DO?$DMtd?5colspan?$DN?82?8?5align@ 0048c66c     HtmlReport.obj
 0002:0000769c       ??_C@_0CH@NBIJDDAD@?$DMtd?5colspan?$DN?82?8?5align?$DN?8center?8?$DO@ 0048c69c     HtmlReport.obj
 0002:000076c4       ??_C@_0BM@OOGBFKFJ@?$DMtd?$DO?$DM?1td?$DO?$DM?1tr?$DO?$DM?1table?$DO?$DM?1p?$DO?6@ 0048c6c4     HtmlReport.obj
 0002:000076e0       ??_C@_0BJ@FGLFLAKG@?$DMstyle?5type?$DN?8text?1css?8?$DO?6@ 0048c6e0     HtmlReport.obj
 0002:00007700       ??_C@_0EA@LOPGEDHL@?4sc?$HL?$HN?5?$HL?$HL?5color?3?5?$CD?$HL?306X?$HN?$DL?5?$HN?$HN?6?4li@ 0048c700     HtmlReport.obj
 0002:00007740       ??_C@_09KBAHDLGC@?$DM?1style?$DO?6@ 0048c740     HtmlReport.obj
 0002:0000774c       ??_C@_0BA@HCMGKG@part_symbol_row@ 0048c74c     HtmlReport.obj
 0002:0000775c       ??_C@_01JLIPDDHJ@?3@       0048c75c     HtmlReport.obj
 0002:00007760       ??_C@_0BD@IKLPMKPF@section_symbol_row@ 0048c760     HtmlReport.obj
 0002:00007774       ??_C@_0BC@KPNHDKPL@public_symbol_row@ 0048c774     HtmlReport.obj
 0002:00007788       ??_C@_0BD@FCCCJELP@private_symbol_row@ 0048c788     HtmlReport.obj
 0002:000077a0       ??_C@_0ED@GLANJAJK@?$DMtr?$DO?$DMtd?5nowrap?5colspan?$DN?85?8?$DO?$DMdiv@ 0048c7a0     HtmlReport.obj
 0002:000077e4       ??_C@_05HPMBBINO@?$HL?$HN_?$HL?$HN@ 0048c7e4     HtmlReport.obj
 0002:000077ec       ??_C@_0DH@DODAPPEP@?$DMtr?5class?$DN?8?$HL?$HN_expandable?8?5oncli@ 0048c7ec     HtmlReport.obj
 0002:00007824       ??_C@_0CF@JEHLFPBO@?$DMtr?5class?$DN?8?$HL?$HN?8?5style?$DN?8display?3n@ 0048c824     HtmlReport.obj
 0002:0000784c       ??_C@_0BA@BJHKAOOC@?$DMtr?5class?$DN?8?$HL?$HN?8?$DO@ 0048c84c     HtmlReport.obj
 0002:0000785c       ??_C@_07IFDINNEA@?$DM?1span?$DO@ 0048c85c     HtmlReport.obj
 0002:00007864       ??_C@_02HMHJGNPF@?8?$DO@   0048c864     HtmlReport.obj
 0002:00007868       ??_C@_0L@ENKBEJOD@?$DMspan?5id?$DN?8@ 0048c868     HtmlReport.obj
 0002:00007874       ??_C@_07LEMCJFAN@?$DMa?5id?$DN?8@ 0048c874     HtmlReport.obj
 0002:0000787c       ??_C@_06ODLOODK@?$CGnbsp?$DL@ 0048c87c     HtmlReport.obj
 0002:00007884       ??_C@_01JOAMLHOP@?9@       0048c884     HtmlReport.obj
 0002:00007888       ??_C@_0EK@MPIGPFDP@?$DMth?5nowrap?5class?$DN?8c1?8?$DO?$HL0?$HN?$HL1?308X@ 0048c888     HtmlReport.obj
 0002:000078d4       ??_C@_0BO@BAFCHEFC@?$DMth?5nowrap?5class?$DN?8c3?8?$DO?$HL?$HN?$DM?1th?$DO@ 0048c8d4     HtmlReport.obj
 0002:000078f8       ??_C@_0EE@FJPIPPFP@?$DMth?5nowrap?5class?$DN?8c4?8?$DO?$HL?3?42f?$HN?$DM?1t@ 0048c8f8     HtmlReport.obj
 0002:00007940       ??_C@_0ED@ENNALMDA@?$DMth?5nowrap?5class?$DN?8c4?8?$DO?$CGnbsp?$DL?$DM?1t@ 0048c940     HtmlReport.obj
 0002:00007988       ??_C@_0GE@PNKOMJMJ@?$DMth?5nowrap?5class?$DN?8c3?8?$DO?$CGnbsp?$DL?$DM?1t@ 0048c988     HtmlReport.obj
 0002:000079ec       ??_C@_05IMPJLBNH@?$DM?1tr?$DO@ 0048c9ec     HtmlReport.obj
 0002:000079f4       ??_C@_0BJ@EEDKFDKK@?$DM?1table?$DO?$DM?1div?$DO?$DM?1td?$DO?$DM?1tr?$DO@ 0048c9f4     HtmlReport.obj
 0002:00007a10       ??_C@_0EB@OABELCBE@?$DMtr?$DO?$DMtd?5nowrap?5colspan?$DN?85?8?$DO?$DMdiv@ 0048ca10     HtmlReport.obj
 0002:00007a54       ??_C@_0DE@JEIFIKMJ@?$DMtr?$DO?$DMtd?5nowrap?5colspan?$DN?85?8?$DO?$DMtab@ 0048ca54     HtmlReport.obj
 0002:00007a88       ??_C@_0BO@MFOOJLAK@?$DMtr?5name?$DN?8byte?8?5byte?$DN?8?$HL?$HN?$DL?$HL?$HN?8?$DO@ 0048ca88     HtmlReport.obj
 0002:00007aa8       ??_C@_0DD@DAPFLBAL@?$DMtd?5nowrap?5class?$DN?8address?8?$DO?$CGnbs@ 0048caa8     HtmlReport.obj
 0002:00007adc       ??_C@_0DO@MBOEJFHP@?$DMtd?5nowrap?5colspan?$DN4?5class?$DN?8hex@ 0048cadc     HtmlReport.obj
 0002:00007b1c       ??_C@_0BL@HJFCKOHI@?$DMtd?5nowrap?5class?$DN?8sc?$HL?$HN?8?$DO?$HL?$HN@ 0048cb1c     HtmlReport.obj
 0002:00007b38       ??_C@_0BI@EJINHDDI@?$DM?1td?$DO?$DM?1tr?$DO?$DM?1table?$DO?$DM?1tr?$DO@ 0048cb38     HtmlReport.obj
 0002:00007b50       ??_C@_0DH@DODKODLC@?$DMtr?$DO?$DMtd?5nowrap?5class?$DN?8address?8?$DO@ 0048cb50     HtmlReport.obj
 0002:00007b88       ??_C@_0CG@NJFONKHD@?$DMtd?5class?$DN?8sc?$HL?$HN?8?5colspan?$DN?8?$HL?$HN?8?$DO?$HL@ 0048cb88     HtmlReport.obj
 0002:00007bb0       ??_C@_0BI@IJIGDMON@?$DM?1tr?$DO?$DM?1table?$DO?$DM?1td?$DO?$DM?1tr?$DO@ 0048cbb0     HtmlReport.obj
 0002:00007bc8       ??_C@_06MAIPDONP@?$DM?1div?$DO@ 0048cbc8     HtmlReport.obj
 0002:00007bd0       ??_C@_0BF@DKEGEOLP@?$DM?1table?$DO?$HL?$HN?$DM?1td?$DO?$DM?1tr?$DO@ 0048cbd0     HtmlReport.obj
 0002:00007be8       ??_C@_0BN@CBFFAIMI@Cannot?5open?5file?5for?5writing@ 0048cbe8     HtmlReport.obj
 0002:00007c08       ??_C@_0BI@CFPLBAOH@invalid?5string?5position@ 0048cc08     HtmlReport.obj
 0002:00007c20       ??_7?$_Fmt_iterator_buffer@V?$back_insert_iterator@V?$basic_string@DU?$char_traits@D@std@@V?$allocator@D@2@@std@@@std@@DU_Fmt_buffer_traits@2@@std@@6B@ 0048cc20     HtmlReport.obj
 0002:00007c24       __real@3b800000            0048cc24     HtmlReport.obj
 0002:00007c28       __real@42c80000            0048cc28     HtmlReport.obj
 0002:00007c2c       ??_C@_06DJFHFKB@__RTC_@    0048cc2c     Hunk.obj
 0002:00007c34       ??_C@_0DI@KKLFJPNN@Disable?5?8Basic?5Runtime?5Checks?8?5@ 0048cc34     Hunk.obj
 0002:00007c6c       ??_C@_0BC@IBCJPMOM@__security_cookie@ 0048cc6c     Hunk.obj
 0002:00007c80       ??_C@_0DJ@PKOCGDPL@Disable?5?8Buffer?5Security?5Check?8@ 0048cc80     Hunk.obj
 0002:00007cbc       ??_C@_0BD@IDIIECKB@_crt_debugger_hook@ 0048ccbc     Hunk.obj
 0002:00007cd0       ??_C@_0BN@EPFFOKHI@Define?5your?5own?5entry?5point?4@ 0048ccd0     Hunk.obj
 0002:00007cf0       ??_C@_06DCDKBOGN@__ftol@   0048ccf0     Hunk.obj
 0002:00007cf8       ??_C@_0HE@NMINBAG@Suppress?5_ftol?5calls?5with?5the?5?1@ 0048ccf8     Hunk.obj
 0002:00007d6c       ??_C@_05DNADIBKB@__Cxx@    0048cd6c     Hunk.obj
 0002:00007d74       ??_C@_0BG@IPKNANKA@Don?8t?5use?5exceptions?4@ 0048cd74     Hunk.obj
 0002:00007d8c       ??_C@_0BI@CGHOEJPD@__imp_?$DP?$DP1exception?$EAstd?$EA@ 0048cd8c     Hunk.obj
 0002:00007da4       ??_C@_0P@CEGKDJBK@Don?8t?5use?5STL?4@ 0048cda4     Hunk.obj
 0002:00007db4       ??_C@_08GDBMFOGK@__alloca@ 0048cdb4     Hunk.obj
 0002:00007dc0       ??_C@_08CEHLGEBN@__chkstk@ 0048cdc0     Hunk.obj
 0002:00007dd0       ??_C@_0FI@JKGMJPKK@Avoid?5declaring?5large?5arrays?5or@ 0048cdd0     Hunk.obj
 0002:00007e28       ??_C@_02LMMGGCAJ@?3?5@     0048ce28     Hunk.obj
 0002:00007e2c       ??_C@_0CF@JMLMFMKL@Cannot?5find?5symbol?5?8?$CFs?8?4?6?5?$CK?5HIN@ 0048ce2c     Hunk.obj
 0002:00007e54       ??_C@_0BI@LMOJBKB@Cannot?5find?5symbol?5?8?$CFs?8@ 0048ce54     Hunk.obj
 0002:00007e6c       ??_C@_0M@OGNBNEEM@?$CFs?5sections@ 0048ce6c     Hunk.obj
 0002:00007e78       ??_C@_06CIPIPFKB@?4dummy@  0048ce78     Hunk.obj
 0002:00007e80       ??_C@_03ELJPOBCB@tf_@      0048ce80     Hunk.obj
 0002:00007e84       ??_C@_02JDNIPIGD@NA@       0048ce84     Hunk.obj
 0002:00007e88       ??_C@_05CNONOOAN@tf?$CFd_@ 0048ce88     Hunk.obj
 0002:00007e90       ??_C@_0M@IJPGLJFH@__real?$EA?$CF16X@ 0048ce90     Hunk.obj
 0002:00007e9c       ??_C@_04BANGNJGK@?$EA3NA@  0048ce9c     Hunk.obj
 0002:00007ea4       ??_C@_0L@LEINBDPJ@__real?$EA?$CF8X@ 0048cea4     Hunk.obj
 0002:00007eb0       ??_C@_04BCJAGHDD@?$EA3MA@  0048ceb0     Hunk.obj
 0002:00007eb8       ??_C@_0DM@GLGIKEKA@?$CFs?$FL?$CFd?$FN?3?5?$CFf?5?$CI0x?$CF?48X?$CF?48X?564?5bits?$CJ@ 0048ceb8     Hunk.obj
 0002:00007ef4       ??_C@_0DE@CPBAGIEP@?$CFs?$FL?$CFd?$FN?3?5?$CFf?5?$CI0x?$CF?48X?532?5bits?$CJ?5?9?$DO?5@ 0048cef4     Hunk.obj
 0002:00007f28       ??_C@_05CBJPDLOK@align@    0048cf28     Hunk.obj
 0002:00007f30       ??_C@_05NJJHCOAI@?$CFd_?$CFd@ 0048cf30     Hunk.obj
 0002:00007f38       ??_C@_0ED@KIJAKNE@Alignment?5label?5?8?$CFs?8?5outside?5le@ 0048cf38     Hunk.obj
 0002:00007f7c       ??_C@_0CO@JEOJGHOD@More?5than?5one?5alignment?5label?5i@ 0048cf7c     Hunk.obj
 0002:00007fac       ??_C@_0DA@LMFIEOPJ@Alignment?5of?5section?5?8?$CFs?8?5overr@ 0048cfac     Hunk.obj
 0002:00007fdc       ??_C@_05GAKFMAOJ@?5?$CL?5?$CFd@ 0048cfdc     Hunk.obj
 0002:00007fe4       ??_C@_05OPOFDFEJ@?5?9?5?$CFd@ 0048cfe4     Hunk.obj
 0002:00007fec       ??_C@_0DJ@BDDGBENG@Alignment?5of?5section?5?8?$CFs?8?5overr@ 0048cfec     Hunk.obj
 0002:00008028       ??_C@_0N@EABLCPMK@DLLNamesHunk@ 0048d028     Hunk.obj
 0002:00008050       ??_C@_0CE@FLAJPMKA@Import?5?8?$CFs?8?5cannot?5be?5found?5in?5@ 0048d050     ImportHandler.obj
 0002:00008074       ??_C@_08PNLNEKOB@kernel32@ 0048d074     ImportHandler.obj
 0002:00008080       ??_C@_06KMMDPPA@user32@    0048d080     ImportHandler.obj
 0002:00008088       ??_C@_0BM@MGJPOFFD@Could?5not?5find?5?8?$CFs?8?5in?5?8?$CFs?8@ 0048d088     ImportHandler.obj
 0002:000080a4       ??_C@_01LFCBOECM@?4@       0048d0a4     ImportHandler.obj
 0002:000080a8       ??_C@_0EF@ODLJMPNK@Import?5?8?$CFs?8?5from?5?8?$CFs?8?5uses?5forw@ 0048d0a8     ImportHandler.obj
 0002:000080f0       ??_C@_0CN@CLANFMML@?6?9Imports?9?9?9?9?9?9?9?9?9?9?9?9?9?9?9?9?9?9?9?9?9?9@ 0048d0f0     ImportHandler.obj
 0002:00008120       ??_C@_0P@FMEPPHNH@ImportListHunk@ 0048d120     ImportHandler.obj
 0002:00008130       ??_C@_0BE@CKOBAAGC@Cyclic?5DLL?5fallback@ 0048d130     ImportHandler.obj
 0002:00008144       ??_C@_03OFAPEBGM@?$CFs?6@  0048d144     ImportHandler.obj
 0002:00008148       ??_C@_0BF@EFOAIGPG@?5?5ordinal?5range?5?$HL?6?5?5@ 0048d148     ImportHandler.obj
 0002:00008160       ??_C@_0BO@NHPKOMKC@?5?5?$CFs?5?$CIordinal?5?$CFd?0?5hash?5?$CF08X?$CJ?6@ 0048d160     ImportHandler.obj
 0002:00008180       ??_C@_0BF@INBHFGBP@?5?5?5?5?$CFs?5?$CIordinal?5?$CFd?$CJ?6@ 0048d180     ImportHandler.obj
 0002:00008198       ??_C@_04POOIJLFB@?5?5?$HN?6@ 0048d198     ImportHandler.obj
 0002:000081a0       ??_C@_0CP@CAGGDINB@No?5functions?5were?5imported?5from@ 0048d1a0     ImportHandler.obj
 0002:000081d0       ??_C@_0DC@ENPNKFEL@No?5functions?5were?5imported?5from@ 0048d1d0     ImportHandler.obj
 0002:00008204       ??_C@_0M@JHDMMMGK@_ImportList@ 0048d204     ImportHandler.obj
 0002:00008210       ??_C@_0BA@EEJPNIEJ@crinkler?5import@ 0048d210     ImportHandler.obj
 0002:00008220       ??_C@_04IEKGFKDD@?4bss@    0048d220     ImportHandler.obj
 0002:00008228       ??_C@_05LDKNOBJL@?4data@   0048d228     ImportHandler.obj
 0002:00008230       ??_C@_09DIMPOJCJ@_DLLNames@ 0048d230     ImportHandler.obj
 0002:0000823c       ??_C@_0DJ@BAPKNBKF@Kernel32?5needs?5to?5be?5linked?5for@ 0048d23c     ImportHandler.obj
 0002:00008278       ??_C@_0CM@KNMIMJFD@Could?5not?5find?5collision?9free?5h@ 0048d278     ImportHandler.obj
 0002:000082a4       ??_C@_0BA@KLDDALIO@_HashMultiplier@ 0048d2a4     ImportHandler.obj
 0002:000082b4       ??_C@_0BD@JLCPCPCI@?5?5?$CFs?5?$CIordinal?5?$CFd?$CJ?6@ 0048d2b4     ImportHandler.obj
 0002:000082c8       ??_C@_0BGP@BIBPFOA@?6Note?3?5Programs?5linked?5using?5th@ 0048d2c8     ImportHandler.obj
 0002:00008498       ??_C@_0BG@EOMJEIFA@vector?$DMbool?$DO?5too?5long@ 0048d498     ImportHandler.obj
 0002:000084b0       ??_C@_0FN@LHLFECAA@Link?9time?5code?5generation?5is?5no@ 0048d4b0     LTCGLoader.obj
 0002:00008510       ??_7Transform@@6B@         0048d510     main.obj
 0002:0000851c       ??_7IdentityTransform@@6B@ 0048d51c     main.obj
 0002:00008528       ??_7CmdParam@@6B@          0048d528     main.obj
 0002:00008534       ??_7CallTransform@@6B@     0048d534     main.obj
 0002:00008540       ??_C@_01KDCPPGHE@r@        0048d540     main.obj
 0002:00008544       ??_C@_01KICIPPFI@?2@       0048d544     main.obj
 0002:00008548       ??_C@_01ICJEACDI@?$DL@     0048d548     main.obj
 0002:0000854c       ??_C@_08KPFCJPKF@SYSTEM32@ 0048d54c     main.obj
 0002:00008558       ??_C@_08MEDCHDM@SYSWOW64@  0048d558     main.obj
 0002:00008564       ??_C@_04HGBGCCEA@?4DLL@    0048d564     main.obj
 0002:0000856c       ??_C@_04HBHDLLBA@PATH@     0048d56c     main.obj
 0002:00008574       ??_C@_0BF@MOPLNHCG@Cannot?5find?5DLL?5?8?$CFs?8@ 0048d574     main.obj
 0002:00008590       ??_C@_0HI@KGGMDAPG@Missing?5export?5table?5in?5?8?$CFs?8?6?6I@ 0048d590     main.obj
 0002:00008608       ??_C@_0CD@PMIBFDPD@Launching?5default?5linker?5at?5?8?$CFs@ 0048d608     main.obj
 0002:0000862c       ??_C@_0CP@FFMLIGOI@Failed?5to?5launch?5default?5linker@ 0048d62c     main.obj
 0002:0000865c       ??_C@_0CI@HMJCGCDA@Cannot?5find?5default?5linker?5?8?$CFs?8@ 0048d65c     main.obj
 0002:00008684       ??_C@_0L@FCHOOCIF@size?5in?5mb@ 0048d684     main.obj
 0002:00008690       ??_C@_0CA@LDLACMBJ@number?5of?5megabytes?5for?5hashing@ 0048d690     main.obj
 0002:000086b0       ??_C@_08BNDHEBJM@HASHSIZE@ 0048d6b0     main.obj
 0002:000086bc       ??_C@_0BI@CICDDLBO@number?5of?5hashing?5tries@ 0048d6bc     main.obj
 0002:000086d4       ??_C@_09CAKLIIOD@HASHTRIES@ 0048d6d4     main.obj
 0002:000086e0       ??_C@_0CD@NCCNPDGM@number?5of?5section?5reordering?5tr@ 0048d6e0     main.obj
 0002:00008704       ??_C@_0L@OOHHBDBC@ORDERTRIES@ 0048d704     main.obj
 0002:00008710       ??_C@_04MLOLHOPP@bits@     0048d710     main.obj
 0002:00008718       ??_C@_0BB@BKBGAGED@truncates?5floats@ 0048d718     main.obj
 0002:0000872c       ??_C@_0P@LCDKPBJ@TRUNCATEFLOATS@ 0048d72c     main.obj
 0002:0000873c       ??_C@_0CP@GJFGKOMD@override?5section?5alignments?5usi@ 0048d73c     main.obj
 0002:0000876c       ??_C@_0BD@DPAHOGMI@OVERRIDEALIGNMENTS@ 0048d76c     main.obj
 0002:00008780       ??_C@_0CG@CFCOMBPD@force?5alignment?5of?5code?5section@ 0048d780     main.obj
 0002:000087a8       ??_C@_0M@EJIHLHGL@UNALIGNCODE@ 0048d7a8     main.obj
 0002:000087b4       ??_C@_0CK@BKBAGIBO@Do?5not?5implicitly?5link?5to?5runti@ 0048d7b4     main.obj
 0002:000087e0       ??_C@_0N@LIIALNB@NODEFAULTLIB@ 0048d7e0     main.obj
 0002:000087f0       ??_C@_06OJHAJCPM@symbol@   0048d7f0     main.obj
 0002:000087f8       ??_C@_0BH@LKAIGBLI@name?5of?5the?5entrypoint@ 0048d7f8     main.obj
 0002:00008810       ??_C@_05LGEFKHJN@ENTRY@    0048d810     main.obj
 0002:00008818       ??_C@_07INJEBCIE@out?4exe@ 0048d818     main.obj
 0002:00008820       ??_C@_08BABJIOEM@filename@ 0048d820     main.obj
 0002:0000882c       ??_C@_0BA@GMKDMLLC@output?5filename@ 0048d82c     main.obj
 0002:0000883c       ??_C@_03KJGMBMID@OUT@      0048d83c     main.obj
 0002:00008840       ??_C@_0BF@EDFELLKN@report?5html?5filename@ 0048d840     main.obj
 0002:00008858       ??_C@_06MDMHKGOO@REPORT@   0048d858     main.obj
 0002:00008860       ??_C@_0BM@HEIKDOEA@select?5initial?5report?5theme@ 0048d860     main.obj
 0002:0000887c       ??_C@_0M@CNMJGPJK@REPORTTHEME@ 0048d87c     main.obj
 0002:00008888       ??_C@_0BE@BOAJNIMO@reuse?5html?5filename@ 0048d888     main.obj
 0002:0000889c       ??_C@_05IAEPPEKA@REUSE@    0048d89c     main.obj
 0002:000088a4       ??_C@_0BC@MDKBPKAJ@select?5reuse?5mode@ 0048d8a4     main.obj
 0002:000088b8       ??_C@_09PMHGFICM@REUSEMODE@ 0048d8b8     main.obj
 0002:000088c4       ??_C@_0CD@BGPCBHGE@Show?5a?5dialog?5to?5select?5reuse?5m@ 0048d8c4     main.obj
 0002:000088e8       ??_C@_08CMEFNML@REUSEGUI@  0048d8e8     main.obj
 0002:000088f4       ??_C@_04PCJFHION@help@     0048d8f4     main.obj
 0002:000088fc       ??_C@_01OGPIMHDM@?$DP@     0048d8fc     main.obj
 0002:00008900       ??_C@_0BB@NLHGIGJH@enables?5Crinkler@ 0048d900     main.obj
 0002:00008914       ??_C@_08NBGIFLO@CRINKLER@  0048d914     main.obj
 0002:00008920       ??_C@_0BL@KDMHAFCC@recompress?5a?5Crinkler?5file@ 0048d920     main.obj
 0002:0000893c       ??_C@_0L@ODLMLPAF@RECOMPRESS@ 0048d93c     main.obj
 0002:00008948       ??_C@_0BK@BICCGAJK@crash?5if?5a?5DLL?5is?5missing@ 0048d948     main.obj
 0002:00008964       ??_C@_0N@EJHDPEHI@UNSAFEIMPORT@ 0048d964     main.obj
 0002:00008974       ??_C@_0BO@DEOBMNFN@show?5a?5graphical?5progress?5bar@ 0048d974     main.obj
 0002:00008994       ??_C@_0M@PEFHCMCO@PROGRESSGUI@ 0048d994     main.obj
 0002:000089a0       ??_C@_0BA@NPLEEBJB@use?5tiny?5header@ 0048d9a0     main.obj
 0002:000089b0       ??_C@_0L@MFMBJCAI@TINYHEADER@ 0048d9b0     main.obj
 0002:000089bc       ??_C@_0BA@FACCODAI@use?5tiny?5import@ 0048d9bc     main.obj
 0002:000089cc       ??_C@_0L@EKFHDAJB@TINYIMPORT@ 0048d9cc     main.obj
 0002:000089d8       ??_C@_0BB@FPDDHNCG@select?5subsystem@ 0048d9d8     main.obj
 0002:000089ec       ??_C@_09CMMNJCPD@SUBSYSTEM@ 0048d9ec     main.obj
 0002:000089f8       ??_C@_0BL@GKHMNPCB@use?5separate?5part?5for?5text@ 0048d9f8     main.obj
 0002:00008a14       ??_C@_08HKEEEIIO@TEXTPART@ 0048da14     main.obj
 0002:00008a20       ??_C@_0BL@LPDGJFAG@allow?5addresses?5beyond?52gb@ 0048da20     main.obj
 0002:00008a3c       ??_C@_0BC@GFFPJKLJ@LARGEADDRESSAWARE@ 0048da3c     main.obj
 0002:00008a50       ??_C@_06IOJAGNKJ@NORMAL@   0048da50     main.obj
 0002:00008a58       ??_C@_0M@MJCADJFN@BELOWNORMAL@ 0048da58     main.obj
 0002:00008a64       ??_C@_04IMMGDCFE@IDLE@     0048da64     main.obj
 0002:00008a6c       ??_C@_0BA@OOKOELKN@select?5priority@ 0048da6c     main.obj
 0002:00008a7c       ??_C@_08PHDJDNOC@PRIORITY@ 0048da7c     main.obj
 0002:00008a88       ??_C@_08MGEFONHF@VERYSLOW@ 0048da88     main.obj
 0002:00008a94       ??_C@_04BJJAFLBC@SLOW@     0048da94     main.obj
 0002:00008a9c       ??_C@_04HNOLJCOK@FAST@     0048da9c     main.obj
 0002:00008aa4       ??_C@_0BB@JFOBKLLA@compression?5mode@ 0048daa4     main.obj
 0002:00008ab8       ??_C@_08LOIPFCFD@COMPMODE@ 0048dab8     main.obj
 0002:00008ac4       ??_C@_07MENJGFFE@IMPORTS@  0048dac4     main.obj
 0002:00008acc       ??_C@_06EDNDDPFA@LABELS@   0048dacc     main.obj
 0002:00008ad4       ??_C@_05IJDJACGD@print@    0048dad4     main.obj
 0002:00008adc       ??_C@_05ECKPOFCN@PRINT@    0048dadc     main.obj
 0002:00008ae4       ??_C@_05JLLGMKNB@CALLS@    0048dae4     main.obj
 0002:00008aec       ??_C@_0BH@JCEMALDI@select?5transformations@ 0048daec     main.obj
 0002:00008b04       ??_C@_09LFBMEAFB@TRANSFORM@ 0048db04     main.obj
 0002:00008b10       ??_C@_0CP@CCJMKAEL@saturate?5counters?5?$CIfor?5highly?5r@ 0048db10     main.obj
 0002:00008b40       ??_C@_08LLAHJOKO@SATURATE@ 0048db40     main.obj
 0002:00008b4c       ??_C@_04EACGPHON@dirs@     0048db4c     main.obj
 0002:00008b54       ??_C@_0CH@KGGELHMF@adds?5a?5path?5to?5the?5library?5sear@ 0048db54     main.obj
 0002:00008b7c       ??_C@_07DPECNPAL@LIBPATH@  0048db7c     main.obj
 0002:00008b84       ??_C@_07EBPJLM@dllname@    0048db84     main.obj
 0002:00008b8c       ??_C@_0CB@PGGCGOFL@use?5range?5importing?5for?5this?5dl@ 0048db8c     main.obj
 0002:00008bb0       ??_C@_05OJPIIJFC@RANGE@    0048dbb0     main.obj
 0002:00008bb8       ??_C@_0O@HGBBJMIA@oldDLL?$DNnewDLL@ 0048dbb8     main.obj
 0002:00008bc8       ??_C@_0BL@ILMDFAPN@replace?5a?5dll?5with?5another@ 0048dbc8     main.obj
 0002:00008be4       ??_C@_0L@KMABKDH@REPLACEDLL@ 0048dbe4     main.obj
 0002:00008bf0       ??_C@_0BC@CPKOELLF@firstDLL?$DNotherDLL@ 0048dbf0     main.obj
 0002:00008c04       ??_C@_0CP@LAEPPGIA@try?5opening?5another?5dll?5if?5the?5@ 0048dc04     main.obj
 0002:00008c34       ??_C@_0M@OOIDOLJC@FALLBACKDLL@ 0048dc34     main.obj
 0002:00008c40       ??_C@_0BB@CCMAINCA@name?$DNvalue?1label@ 0048dc40     main.obj
 0002:00008c54       ??_C@_0BF@JPNNMKBM@export?5value?5by?5name@ 0048dc54     main.obj
 0002:00008c6c       ??_C@_0BP@BBKNDHHC@remove?5exports?5from?5executable@ 0048dc6c     main.obj
 0002:00008c8c       ??_C@_0N@HHNEGJKM@STRIPEXPORTS@ 0048dc8c     main.obj
 0002:00008c9c       ??_C@_0CA@LGJAJNGP@do?5not?5run?5dynamic?5initializers@ 0048dc9c     main.obj
 0002:00008cbc       ??_C@_0P@PKAEJKEI@NOINITIALIZERS@ 0048dcbc     main.obj
 0002:00008ccc       ??_C@_0BC@MJACHCBK@list?5of?5filenames@ 0048dccc     main.obj
 0002:00008ce0       ??_C@_05PENKCLCM@FILES@    0048dce0     main.obj
 0002:00008ce8       ??_C@_0EP@GNCMEIJJ@Crinkler?53?40a?5?$CIMay?5?59?52026?$CJ?5?$CIc?$CJ@ 0048dce8     main.obj
 0002:00008d38       ??_C@_02GLHBANAM@?1?$DP@   0048dd38     main.obj
 0002:00008d3c       ??_C@_09LGMDKBDL@?1CRINKLER@ 0048dd3c     main.obj
 0002:00008d48       ??_C@_0N@EFOANEIK@CRINKLER?4EXE@ 0048dd48     main.obj
 0002:00008d58       ??_C@_0M@JJELIMAP@?1RECOMPRESS@ 0048dd58     main.obj
 0002:00008d64       ??_C@_07EKNIKJFJ@?$CKdummy?$CK@ 0048dd64     main.obj
 0002:00008d6c       ??_C@_0DH@OCOFFDMA@Crinkler?5recompression?5takes?5ex@ 0048dd6c     main.obj
 0002:00008da4       ??_C@_0M@BKKINIEH@Source?3?5?$CFs?6@ 0048dda4     main.obj
 0002:00008db0       ??_C@_0M@DPALJIHE@Target?3?5?$CFs?6@ 0048ddb0     main.obj
 0002:00008dbc       ??_C@_0CJ@CMMFFNNK@Subsystem?5type?3?5Inherited?5from?5@ 0048ddbc     main.obj
 0002:00008de8       ??_C@_0BE@FFGCEKON@Subsystem?5type?3?5?$CFs?6@ 0048dde8     main.obj
 0002:00008dfc       ??_C@_0CO@FNGBFOEK@Large?5address?5aware?3?5Inherited?5@ 0048ddfc     main.obj
 0002:00008e2c       ??_C@_0BJ@ENJHDKLP@Large?5address?5aware?3?5?$CFs?6@ 0048de2c     main.obj
 0002:00008e48       ??_C@_0DC@COMOFJIP@Compression?5mode?3?5Models?5inheri@ 0048de48     main.obj
 0002:00008e7c       ??_C@_0BG@PJLAKKFL@Compression?5mode?3?5?$CFs?6@ 0048de7c     main.obj
 0002:00008e94       ??_C@_0CM@GHLEEMDO@Saturate?5counters?3?5Inherited?5fr@ 0048de94     main.obj
 0002:00008ec0       ??_C@_0BH@EOEGDKPD@Saturate?5counters?3?5?$CFs?6@ 0048dec0     main.obj
 0002:00008ed8       ??_C@_0CE@FEDGELOP@Hash?5size?3?5Inherited?5from?5origi@ 0048ded8     main.obj
 0002:00008efc       ??_C@_0BC@IDEHGKPJ@Hash?5size?3?5?$CFd?5MB?6@ 0048defc     main.obj
 0002:00008f10       ??_C@_0BA@CANCPPLG@Hash?5tries?3?5?$CFd?6@ 0048df10     main.obj
 0002:00008f20       ??_C@_04OKGDLNCL@NONE@     0048df20     main.obj
 0002:00008f28       ??_C@_0M@KJLMAEAB@Report?3?5?$CFs?6@ 0048df28     main.obj
 0002:00008f34       ??_C@_0BC@HJDDFONI@Report?5theme?3?5?$CFs?6@ 0048df34     main.obj
 0002:00008f48       ??_C@_0P@EFMGCAGH@Replace?5DLLs?3?5@ 0048df48     main.obj
 0002:00008f58       ??_C@_02KEGNLNML@?0?5@     0048df58     main.obj
 0002:00008f5c       ??_C@_08DHHJCFN@?$CFs?5?9?$DO?5?$CFs@ 0048df5c     main.obj
 0002:00008f68       ??_C@_0EK@JCGIPFDA@In?5recompression?0?5a?5DLL?5can?5onl@ 0048df68     main.obj
 0002:00008fb4       ??_C@_09HBHJDGGP@Exports?3?5@ 0048dfb4     main.obj
 0002:00008fc0       ??_C@_0M@EKKKJBFI@Strip?5away?6@ 0048dfc0     main.obj
 0002:00008fcc       ??_C@_0BE@OOHGPPMD@Keep?5from?5original?6@ 0048dfcc     main.obj
 0002:00008fe0       ??_C@_0BH@CMDCKGDH@Strip?5and?5replace?5by?3?6@ 0048dfe0     main.obj
 0002:00008ff8       ??_C@_0BJ@ECIKKGFA@Keep?5and?5supplement?5by?3?6@ 0048dff8     main.obj
 0002:00009014       ??_C@_0DN@EMGFAOFL@Export?5stripping?5can?5only?5be?5pe@ 0048e014     main.obj
 0002:00009054       ??_C@_0CP@NFGOFBDF@Transforms?5are?5not?5supported?5wi@ 0048e054     main.obj
 0002:00009084       ??_C@_0BF@LDGAIPPM@Tiny?5compressor?3?5?$CFs?6@ 0048e084     main.obj
 0002:0000909c       ??_C@_0BB@EBNBECOF@Tiny?5import?3?5?$CFs?6@ 0048e09c     main.obj
 0002:000090b0       ??_C@_0BB@LIEGOFBN@Order?5tries?3?5?$CFd?6@ 0048e0b0     main.obj
 0002:000090c4       ??_C@_0BA@HODJNJO@Reuse?5mode?3?5?$CFs?6@ 0048e0c4     main.obj
 0002:000090d4       ??_C@_0BA@FPPMAEFG@Reuse?5file?3?5?$CFs?6@ 0048e0d4     main.obj
 0002:000090e4       ??_C@_0CF@NFOCDHEA@Reuse?5mode?3?5OFF?5?$CIno?5file?5specif@ 0048e0e4     main.obj
 0002:0000910c       ??_C@_0BA@JIMHENII@Transforms?3?5?$CFs?6@ 0048e10c     main.obj
 0002:0000911c       ??_C@_0BA@HPIDNEIO@Fallback?5DLLs?3?5@ 0048e11c     main.obj
 0002:0000912c       ??_C@_0N@GEJOHKAJ@Range?5DLLs?3?5@ 0048e12c     main.obj
 0002:0000913c       ??_C@_02DKCKIIND@?$CFs@    0048e13c     main.obj
 0002:00009140       ??_C@_08PDNNMGIM@Exports?3@ 0048e140     main.obj
 0002:0000914c       ??_C@_02KCAFKDJ@?$DP?3@    0048e14c     main.obj
 0002:00009150       ??_C@_03LCHNFMKO@LIB@      0048e150     main.obj
 0002:00009154       ??_C@_0BH@GJNDOEMB@Cannot?5open?5file?5?8?$CFs?8?6@ 0048e154     main.obj
 0002:0000916c       ??_C@_0P@EGIKPAOL@Loading?5?$CFs?4?4?4?6@ 0048e16c     main.obj
 0002:0000917c       ??_C@_0N@MGJADCGC@Linking?4?4?4?6?6@ 0048e17c     main.obj
 0002:0000918c       ??_C@_0BG@MNCKNEOD@time?5spent?3?5?$CFdm?$CF02ds?6@ 0048e18c     main.obj
 0002:000091a4       ??_C@_0O@MGDGCKO@Uninitialized@ 0048e1a4     PartList.obj
 0002:000091b4       ??_C@_0BD@CPABHKEA@ContinuationJump?$CFd@ 0048e1b4     PartList.obj
 0002:000091c8       ??_C@_0CB@PLFDACII@Virtual?5size?5overflows?52GB?5limi@ 0048e1c8     PartList.obj
 0002:000092ac       ??_C@_0BC@KBDMBKEH@deque?$DMT?$DO?5too?5long@ 0048e2ac     PartList.obj
 0002:000092c0       ??_C@_0BC@FINGIOCM@Ignore?5reuse?5file@ 0048e2c0     Reuse.obj
 0002:000092d4       ??_C@_0CA@KAPEKFEK@Ignore?5and?5overwrite?5reuse?5file@ 0048e2d4     Reuse.obj
 0002:000092f4       ??_C@_0M@MCLNDAGE@Reuse?5parts@ 0048e2f4     Reuse.obj
 0002:00009300       ??_C@_0BJ@IIPADPLN@Reuse?5parts?5and?5sections@ 0048e300     Reuse.obj
 0002:0000931c       ??_C@_0CB@ONBDBFNA@Reuse?5parts?0?5sections?5and?5model@ 0048e31c     Reuse.obj
 0002:00009340       ??_C@_0BB@PJEKKFC@Reuse?5everything@ 0048e340     Reuse.obj
 0002:00009354       ??_C@_08CIGKLNEF@?5?$CFx?3?$CFd?$CFn@ 0048e354     Reuse.obj
 0002:00009360       ??_C@_0BC@JPHNLAJO@?$CD?5Hash?5table?5size@ 0048e360     Reuse.obj
 0002:00009374       ??_C@_0BI@HOLKOAP@Duplicate?5hash?5size?3?5?$CFs@ 0048e374     Reuse.obj
 0002:0000938c       ??_C@_0BD@HOEEIGEP@Duplicate?5part?3?5?$CFs@ 0048e38c     Reuse.obj
 0002:000093a0       ??_C@_08NDACJNEH@sections@ 0048e3a0     Reuse.obj
 0002:000093ac       ??_C@_0BL@IKFBKLJI@Unknown?5reuse?5file?5tag?3?5?$CFs@ 0048e3ac     Reuse.obj
 0002:000093c8       ??_C@_0BE@MMABNDBL@Unexpected?5line?3?5?$CFs@ 0048e3c8     Reuse.obj
 0002:000093dc       ??_C@_0BF@KMNJBAFP@Duplicate?5models?3?5?$CFs@ 0048e3dc     Reuse.obj
 0002:000093f4       ??_C@_03EBJOKFHF@?5?$CFd@  0048e3f4     Reuse.obj
 0002:000093f8       ??_C@_0CG@IFGIKMDG@The?5?8Uninitialized?8?5part?5must?5b@ 0048e3f8     Reuse.obj
 0002:00009420       ??_C@_0DD@KIGGGHEG@Models?5missing?5for?5part?5?8?$CFs?8?0?5u@ 0048e420     Reuse.obj
 0002:00009454       ??_C@_0CH@CAONMNLN@Models?5specified?5for?5unknown?5pa@ 0048e454     Reuse.obj
 0002:0000947c       ??_C@_01NOFIACDB@w@        0048e47c     Reuse.obj
 0002:00009480       ??_C@_09KDBLPMKP@?6?$CD?5?$CFs?5?$CFs?6@ 0048e480     Reuse.obj
 0002:0000948c       ??_C@_04EINJHBMM@?6?$CFs?6@ 0048e48c     Reuse.obj
 0002:00009494       ??_C@_03PMGGPEJJ@?$CFd?6@  0048e494     Reuse.obj
 0002:00009498       ??_C@_0BP@FCAAMCLB@Reused?5section?5not?5present?3?5?$CFs@ 0048e498     Reuse.obj
 0002:000094b8       ??_C@_0DE@KJMHJGCK@Section?5not?5present?5in?5reuse?5fi@ 0048e4b8     Reuse.obj
 0002:000094ec       ??_C@_0BC@NJLKOCOK@Select?5Reuse?5Mode@ 0048e4ec     Reuse.obj
 0002:00009560       ??_C@_0BL@GOIGLPKN@unordered_map?1set?5too?5long@ 0048e560     Reuse.obj
 0002:0000957c       ??_C@_0BK@OGNNAFAB@invalid?5hash?5bucket?5count@ 0048e57c     Reuse.obj
 0002:000095a0       __xmm@41f00000000000000000000000000000 0048e5a0     Reuse.obj
 0002:000095b0       ??_C@_0BG@PGNNGALE@?6?$CFs?3?5warning?5LNK?3?5?$CFs?6@ 0048e5b0     Log.obj
 0002:000095c8       ??_C@_0BF@DBAAIJEK@?6?$CFs?3?5error?5LNK?3?5?$CFs?6?6@ 0048e5c8     Log.obj
 0002:000095e0       ??_C@_0BD@IMHGKAID@?6?$CFs?3?5error?5LNK?3?5?$CFs@ 0048e5e0     Log.obj
 0002:000095f4       ??_C@_0BC@BADGLCAK@dump?$CF04d_mini?4dmp@ 0048e5f4     MiniDump.obj
 0002:00009608       ??_C@_0BC@HOCFIICJ@dump?$CF04d_full?4dmp@ 0048e608     MiniDump.obj
 0002:0000961c       ??_C@_0DP@BPGMONP@?6Oops?$CB?5Crinkler?5has?5crashed?4?6Du@ 0048e61c     MiniDump.obj
 0002:0000965c       ??_C@_01DCLJPIOD@?$CB@     0048e65c     NameMangling.obj
 0002:000096a4       ??_C@_04OEDFLLKD@?$CC?$CFs?$CC@ 0048e6a4     CmdLineInterface.obj
 0002:000096ac       ??_C@_0CD@CJFHIBAM@Error?3?5argument?5must?5be?5non?9emp@ 0048e6ac     CmdLineInterface.obj
 0002:000096d0       ??_C@_0DN@MLEPENIK@Error?3?5error?5parsing?5token?3?5?8?$CFs@ 0048e6d0     CmdLineInterface.obj
 0002:00009710       ??_C@_0EJ@NOFPAEKE@Error?3?5error?5parsing?5token?3?5?8?$CFs@ 0048e710     CmdLineInterface.obj
 0002:0000975c       ??_C@_0DI@LNODHCJL@Error?3?5parameter?5cannot?5be?5defi@ 0048e75c     CmdLineInterface.obj
 0002:00009794       ??_C@_0CE@NAAODADD@Error?3?5cannot?5parse?5token?5?8?$CFs?8?3@ 0048e794     CmdLineInterface.obj
 0002:000097b8       ??_C@_0CA@IJDPKHAC@Ignoring?5unknown?5argument?5?8?$CFs?8?6@ 0048e7b8     CmdLineInterface.obj
 0002:000097d8       ??_C@_04LOAOMKLI@?$CFs?6?6@ 0048e7d8     CmdLineInterface.obj
 0002:000097e0       ??_C@_0O@IGHNBNGC@?5?5?5options?3?6?6@ 0048e7e0     CmdLineInterface.obj
 0002:000097f0       ??_C@_09BKMLAGIN@?5?5?5?5?5?5?$CFs?6@ 0048e7f0     CmdLineInterface.obj
 0002:000097fc       ??_C@_07LFFNHEBN@?$CFs?$FL?3?$CFs?$FN@ 0048e7fc     CmdParam.obj
 0002:00009804       ??_C@_05CCMOGDN@?$CFs?3?$CFs@ 0048e804     CmdParam.obj
 0002:0000980c       ??_C@_08FEPILOB@?1?$CF?924s?$CFs@ 0048e80c     CmdParam.obj
 0002:00009818       ??_7CmdParamFlags@@6B@     0048e818     CmdParamFlags.obj
 0002:00009824       ??_C@_01DNKMNLPK@?$HM@     0048e824     CmdParamFlags.obj
 0002:00009828       ??_C@_0BE@LHFMHEMF@unknown?5argument?5?$CFs@ 0048e828     CmdParamFlags.obj
 0002:0000983c       ??_7CmdParamInt@@6B@       0048e83c     CmdParamInt.obj
 0002:00009848       ??_C@_04PEOOHEKN@?$CFd?$CFc@ 0048e848     CmdParamInt.obj
 0002:00009850       ??_C@_0DA@BNKHLCAG@argument?5is?5not?5within?5the?5lega@ 0048e850     CmdParamInt.obj
 0002:00009880       ??_C@_0BK@HJCFFFKP@expected?5integer?5argument@ 0048e880     CmdParamInt.obj
 0002:0000989c       ??_7CmdParamMultiAssign@@6B@ 0048e89c     CmdParamMultiAssign.obj
 0002:000098a8       ??_C@_0BN@MOMEBLFE@identifier?5must?5be?5non?5empty@ 0048e8a8     CmdParamMultiAssign.obj
 0002:000098c8       ??_C@_0BP@BLCEBHPL@argument?5must?5be?5an?5assignment@ 0048e8c8     CmdParamMultiAssign.obj
 0002:000098e8       ??_C@_0CN@CDCELBAI@argument?5must?5contain?5exactly?5o@ 0048e8e8     CmdParamMultiAssign.obj
 0002:00009918       ??_7CmdParamString@@6B@    0048e918     CmdParamString.obj
 0002:00009924       ??_7CmdParamSwitch@@6B@    0048e924     CmdParamSwitch.obj
 0002:00009930       ??_7HunkLoader@@6B@        0048e930     CoffLibraryLoader.obj
 0002:0000993c       ??_7CoffObjectLoader@@6B@  0048e93c     CoffLibraryLoader.obj
 0002:00009948       ??_C@_0BB@JBINBAHL@?1?5?5?5?5?5?5?5?5?5?5?5?5?5?5?5@ 0048e948     CoffLibraryLoader.obj
 0002:0000995c       ??_C@_05LJNAGFEK@?$CFs?$HM?$CFd@ 0048e95c     CoffLibraryLoader.obj
 0002:00009964       ??_C@_09LGGENLMM@stub_for_@ 0048e964     CoffLibraryLoader.obj
 0002:00009970       ??_C@_0BA@OBIGDAID@c?$FL?$CFs?$FN?$CBconstants@ 0048e970     CoffObjectLoader.obj
 0002:00009980       ??_C@_0N@EKICPMOH@h?$FL?$CFs?$FN?$CI?$CFd?$CJ?$CB?$CFs@ 0048e980     CoffObjectLoader.obj
 0002:00009990       ??_C@_0N@PGOCCEEK@l?$FL?$CFs?$CI?$CFd?$CJ?$FN?$CB?$CFs@ 0048e990     CoffObjectLoader.obj
 0002:000099a0       ??_C@_08FJCEIGBA@u?$FL?$CFs?$FN?$CB?$CFs@ 0048e9a0     CoffObjectLoader.obj
 0002:000099ac       ??_7MultiLoader@@6B@       0048e9ac     MultiLoader.obj
 0002:000099b8       ??_7CoffLibraryLoader@@6B@ 0048e9b8     MultiLoader.obj
 0002:000099c4       ??_7LTCGLoader@@6B@        0048e9c4     MultiLoader.obj
 0002:000099d0       ??_C@_0L@OBDLOJAH@?5?5?$CFs?3?5?$CF?42f@ 0048e9d0     EmpiricalHunkSorter.obj
 0002:000099dc       ??_C@_0BP@NOOIOFJD@?5?5Iteration?3?5?$CF5d?5?5Size?3?5?$CF5?42f?6@ 0048e9dc     EmpiricalHunkSorter.obj
 0002:000099fc       ??_C@_0BB@HOMGCPO@?5?5Iteration?3?5?$CF5d@ 0048e9fc     EmpiricalHunkSorter.obj
 0002:00009a10       ??_C@_0P@FOEICEFD@?5?5Size?3?5?$CF5?42f?6@ 0048ea10     EmpiricalHunkSorter.obj
 0002:00009a20       ??_C@_0BK@NNAEOHAJ@?6?6Reordering?5sections?4?4?4?6@ 0048ea20     EmpiricalHunkSorter.obj
 0002:00009a3c       ??_C@_0BE@DIGLOIJK@Reordering?5sections@ 0048ea3c     EmpiricalHunkSorter.obj
 0002:00009a50       ??_C@_0BG@EFLFEGCA@Time?5spent?3?5?$CFdm?$CF02ds?6@ 0048ea50     EmpiricalHunkSorter.obj
 0002:00009ae0       ??_C@_0BB@JECAAK@call?5detransform@ 0048eae0     CallTransform.obj
 0002:00009af4       ??_C@_0BD@JCJENKGJ@call?5detransformer@ 0048eaf4     CallTransform.obj
 0002:00009b08       ??_C@_0L@FLDFHIOH@_CallTrans@ 0048eb08     CallTransform.obj
 0002:00009b14       ??_C@_0BI@FBALKNOI@?6Calls?5transformed?3?5?$CFd?6@ 0048eb14     CallTransform.obj
 0002:00009b2c       ??_C@_0P@DHLDHFFF@_CallTransSize@ 0048eb2c     CallTransform.obj
 0002:00009b3c       ??_C@_0CL@DLNPOEHI@No?5calls?5?9?5call?5transformation?5@ 0048eb3c     CallTransform.obj
 0002:00009b68       ??_C@_04KHMCCJKM@Stub@     0048eb68     Transform.obj
 0002:00009b70       ??_C@_08PHGBCJAH@?6?$HM?9?9?5?$CFs?5@ 0048eb70     ConsoleProgressBar.obj
