 Crinkler

 Timestamp is 69ff2304 (Sat May  9 14:05:24 2026)

 Preferred load address is 0000000140000000

 Start         Length     Name                   Class
 0001:00000000 000001d0H .text$di                CODE
 0001:000001d0 00098de0H .text$mn                CODE
 0001:00098fb0 00000060H .text$mn$00             CODE
 0001:00099010 00000e90H .text$mn$21             CODE
 0001:00099ea0 00001770H .text$x                 CODE
 0001:0009b610 00000207H .text$yd                CODE
 0002:00000000 00000588H .idata$5                DATA
 0002:00000588 00000038H .00cfg                  DATA
 0002:000005c0 00000008H .CRT$XCA                DATA
 0002:000005c8 00000008H .CRT$XCAA               DATA
 0002:000005d0 00000028H .CRT$XCC                DATA
 0002:000005f8 00000010H .CRT$XCL                DATA
 0002:00000608 00000030H .CRT$XCU                DATA
 0002:00000638 00000008H .CRT$XCZ                DATA
 0002:00000640 00000008H .CRT$XIA                DATA
 0002:00000648 00000008H .CRT$XIAA               DATA
 0002:00000650 00000008H .CRT$XIAC               DATA
 0002:00000658 00000038H .CRT$XIC                DATA
 0002:00000690 00000008H .CRT$XIZ                DATA
 0002:00000698 00000008H .CRT$XPA                DATA
 0002:000006a0 00000008H .CRT$XPB                DATA
 0002:000006a8 00000010H .CRT$XPX                DATA
 0002:000006b8 00000008H .CRT$XPXA               DATA
 0002:000006c0 00000008H .CRT$XPZ                DATA
 0002:000006c8 00000008H .CRT$XTA                DATA
 0002:000006d0 00000010H .CRT$XTZ                DATA
 0002:000006d8 00000000H .gehcont$y              DATA
 0002:000006d8 00000000H .gfids$y                DATA
 0002:000006d8 00000000H .giats$y                DATA
 0002:000006e0 00036580H .rdata                  DATA
 0002:00036c60 000001a0H .rdata$00               DATA
 0002:00036e00 00000000H .rdata$CastGuardVftablesA DATA
 0002:00036e00 00000000H .rdata$CastGuardVftablesC DATA
 0002:00036e00 00002e14H .rdata$r                DATA
 0002:00039c14 000018e0H .rdata$voltmd           DATA
 0002:0003b4f4 00000474H .rdata$zzzdbg           DATA
 0002:0003b968 00000008H .rtc$IAA                DATA
 0002:0003b970 00000008H .rtc$IZZ                DATA
 0002:0003b978 00000008H .rtc$TAA                DATA
 0002:0003b980 00000008H .rtc$TZZ                DATA
 0002:0003b988 00008610H .xdata                  DATA
 0002:00043f98 00000b64H .xdata$x                DATA
 0002:00044afc 00000000H .edata                  DATA
 0002:00044afc 00000050H .idata$2                DATA
 0002:00044b4c 00000014H .idata$3                DATA
 0002:00044b60 00000588H .idata$4                DATA
 0002:000450e8 00000d92H .idata$6                DATA
 0003:00000000 00031c70H .data                   DATA
 0003:00031c70 00001680H .data$r                 DATA
 0003:000332f0 00001140H .data$rs                DATA
 0003:00034430 0004779cH .bss                    DATA
 0004:00000000 0000810cH .pdata                  DATA
 0005:00000000 00008000H logtable                DATA
 0006:00000000 00000100H .fptable                DATA
 0007:00000000 00000100H .rsrc$01                DATA
 0007:00000100 000001b0H .rsrc$02                DATA

  Address         Publics by Value              Rva+Base               Lib:Object

 0000:00000000       __AbsoluteZero             0000000000000000     <absolute>
 0000:00000000       __arm64x_extra_rfe_table   0000000000000000     <absolute>
 0000:00000000       __arm64x_extra_rfe_table_size 0000000000000000     <absolute>
 0000:00000000       __arm64x_native_entrypoint 0000000000000000     <absolute>
 0000:00000000       __arm64x_redirection_metadata 0000000000000000     <absolute>
 0000:00000000       __arm64x_redirection_metadata_count 0000000000000000     <absolute>
 0000:00000000       __dynamic_value_reloc_table 0000000000000000     <absolute>
 0000:00000000       __enclave_config           0000000000000000     <absolute>
 0000:00000000       __guard_check_icall_a64n_fptr 0000000000000000     <absolute>
 0000:00000000       __guard_eh_cont_count      0000000000000000     <absolute>
 0000:00000000       __guard_eh_cont_table      0000000000000000     <absolute>
 0000:00000000       __guard_fids_count         0000000000000000     <absolute>
 0000:00000000       __guard_fids_table         0000000000000000     <absolute>
 0000:00000000       __guard_iat_count          0000000000000000     <absolute>
 0000:00000000       __guard_iat_table          0000000000000000     <absolute>
 0000:00000000       __guard_longjmp_count      0000000000000000     <absolute>
 0000:00000000       __guard_longjmp_table      0000000000000000     <absolute>
 0000:00000000       __hybrid_auxiliary_delayload_iat 0000000000000000     <absolute>
 0000:00000000       __hybrid_auxiliary_delayload_iat_copy 0000000000000000     <absolute>
 0000:00000000       __hybrid_auxiliary_iat     0000000000000000     <absolute>
 0000:00000000       __hybrid_auxiliary_iat_copy 0000000000000000     <absolute>
 0000:00000000       __hybrid_code_map          0000000000000000     <absolute>
 0000:00000000       __hybrid_code_map_count    0000000000000000     <absolute>
 0000:00000000       __hybrid_image_info_bitfield 0000000000000000     <absolute>
 0000:00000000       __x64_code_ranges_to_entry_points 0000000000000000     <absolute>
 0000:00000000       __x64_code_ranges_to_entry_points_count 0000000000000000     <absolute>
 0000:00000100       __guard_flags              0000000000000100     <absolute>
 0000:00000000       __ImageBase                0000000140000000     <linker-defined>
 0001:000001d0       ??$?RD@_Precision_checker@std@@SA_KD@Z 00000001400011d0 f i Crinkler.obj
 0001:000001d0       ??$?RM@_Precision_checker@std@@SA_KM@Z 00000001400011d0 f i Crinkler.obj
 0001:000001d0       ??$?RN@_Precision_checker@std@@SA_KN@Z 00000001400011d0 f i Crinkler.obj
 0001:000001d0       ??$?RO@_Precision_checker@std@@SA_KO@Z 00000001400011d0 f i Crinkler.obj
 0001:000001d0       ??$?RPEBD@_Precision_checker@std@@SA_KQEBD@Z 00000001400011d0 f i Crinkler.obj
 0001:000001d0       ??$?RPEBX@_Precision_checker@std@@SA_KQEBX@Z 00000001400011d0 f i Crinkler.obj
 0001:000001d0       ??$?RUmonostate@std@@@_Precision_checker@std@@SA_KUmonostate@1@@Z 00000001400011d0 f i Crinkler.obj
 0001:000001d0       ??$?RV?$basic_string_view@DU?$char_traits@D@std@@@std@@@_Precision_checker@std@@SA_KV?$basic_string_view@DU?$char_traits@D@std@@@1@@Z 00000001400011d0 f i Crinkler.obj
 0001:000001d0       ??$?RVhandle@?$basic_format_arg@V?$basic_format_context@V?$back_insert_iterator@V?$_Fmt_buffer@D@std@@@std@@D@std@@@std@@@_Precision_checker@std@@SA_KVhandle@?$basic_format_arg@V?$basic_format_context@V?$back_insert_iterator@V?$_Fmt_buffer@D@std@@@std@@D@std@@@1@@Z 00000001400011d0 f i Crinkler.obj
 0001:000001d0       ??$?R_N@_Precision_checker@std@@SA_K_N@Z 00000001400011d0 f i Crinkler.obj
 0001:000001f0       ??$?RD@_Width_checker@std@@SA_KD@Z 00000001400011f0 f i Crinkler.obj
 0001:000001f0       ??$?RM@_Width_checker@std@@SA_KM@Z 00000001400011f0 f i Crinkler.obj
 0001:000001f0       ??$?RN@_Width_checker@std@@SA_KN@Z 00000001400011f0 f i Crinkler.obj
 0001:000001f0       ??$?RO@_Width_checker@std@@SA_KO@Z 00000001400011f0 f i Crinkler.obj
 0001:000001f0       ??$?RPEBD@_Width_checker@std@@SA_KQEBD@Z 00000001400011f0 f i Crinkler.obj
 0001:000001f0       ??$?RPEBX@_Width_checker@std@@SA_KQEBX@Z 00000001400011f0 f i Crinkler.obj
 0001:000001f0       ??$?RUmonostate@std@@@_Width_checker@std@@SA_KUmonostate@1@@Z 00000001400011f0 f i Crinkler.obj
 0001:000001f0       ??$?RV?$basic_string_view@DU?$char_traits@D@std@@@std@@@_Width_checker@std@@SA_KV?$basic_string_view@DU?$char_traits@D@std@@@1@@Z 00000001400011f0 f i Crinkler.obj
 0001:000001f0       ??$?RVhandle@?$basic_format_arg@V?$basic_format_context@V?$back_insert_iterator@V?$_Fmt_buffer@D@std@@@std@@D@std@@@std@@@_Width_checker@std@@SA_KVhandle@?$basic_format_arg@V?$basic_format_context@V?$back_insert_iterator@V?$_Fmt_buffer@D@std@@@std@@D@std@@@1@@Z 00000001400011f0 f i Crinkler.obj
 0001:000001f0       ??$?R_N@_Width_checker@std@@SA_K_N@Z 00000001400011f0 f i Crinkler.obj
 0001:00000210       ??$?__MDU?$char_traits@D@std@@V?$allocator@D@1@@std@@YA?AUstrong_ordering@0@AEBV?$basic_string@DU?$char_traits@D@std@@V?$allocator@D@2@@0@0@Z 0000000140001210 f i Crinkler.obj
 0001:000002a0       ??$_Allocate_manually_vector_aligned@U_Default_allocate_traits@std@@@std@@YAPEAX_K@Z 00000001400012a0 f i Crinkler.obj
 0001:000002f0       ??$_Atomic_address_as@DU?$_Atomic_padded@_N@std@@@std@@YAPECDAEAU?$_Atomic_padded@_N@0@@Z 00000001400012f0 f i Crinkler.obj
 0001:000002f0       ??$_Atomic_address_as@DU?$_Atomic_padded@_N@std@@@std@@YAPEDDAEBU?$_Atomic_padded@_N@0@@Z 00000001400012f0 f i Crinkler.obj
 0001:000002f0       ??$_Atomic_address_as@HU?$_Atomic_padded@H@std@@@std@@YAPEDHAEBU?$_Atomic_padded@H@0@@Z 00000001400012f0 f i Crinkler.obj
 0001:000002f0       ??$_Atomic_address_as@JU?$_Atomic_padded@H@std@@@std@@YAPECJAEAU?$_Atomic_padded@H@0@@Z 00000001400012f0 f i Crinkler.obj
 0001:00000300       ??$_Atomic_reinterpret_as@D_N@std@@YADAEB_N@Z 0000000140001300 f i Crinkler.obj
 0001:00000310       ??$_Construct@$00PEBD@?$basic_string@DU?$char_traits@D@std@@V?$allocator@D@2@@std@@AEAAXQEBD_K@Z 0000000140001310 f i Crinkler.obj
 0001:00000400       ??$_Copy_backward_memmove@PEADPEAD@std@@YAPEADPEAD00@Z 0000000140001400 f i Crinkler.obj
 0001:00000400       ??$_Copy_backward_memmove@PEAPEAVHunk@@PEAPEAV1@@std@@YAPEAPEAVHunk@@PEAPEAV1@00@Z 0000000140001400 f i ImportHandler.obj
 0001:00000400       ??$_Copy_backward_memmove@PEAPEAVPart@@PEAPEAV1@@std@@YAPEAPEAVPart@@PEAPEAV1@00@Z 0000000140001400 f i PartList.obj
 0001:00000400       ??$_Copy_backward_memmove@PEAPEAVSymbol@@PEAPEAV1@@std@@YAPEAPEAVSymbol@@PEAPEAV1@00@Z 0000000140001400 f i Hunk.obj
 0001:00000420       ??$_Copy_memmove@PEADPEAD@std@@YAPEADPEAD00@Z 0000000140001420 f i Crinkler.obj
 0001:00000420       ??$_Copy_memmove@PEAEPEAE@std@@YAPEAEPEAE00@Z 0000000140001420 f i Hunk.obj
 0001:00000420       ??$_Copy_memmove@PEBDPEAD@std@@YAPEADPEBD0PEAD@Z 0000000140001420 f i Crinkler.obj
 0001:00000420       ??$_Copy_memmove@PEBDPEAE@std@@YAPEAEPEBD0PEAE@Z 0000000140001420 f i Hunk.obj
 0001:00000440       ??$_Copy_memmove@PEAHPEAH@std@@YAPEAHPEAH00@Z 0000000140001440 f i Crinkler.obj
 0001:00000440       ??$_Copy_memmove@PEAIPEAI@std@@YAPEAIPEAI00@Z 0000000140001440 f i ImportHandler.obj
 0001:00000460       ??$_Copy_memmove@PEAPEAPEAVHunk@@PEAPEAPEAV1@@std@@YAPEAPEAPEAVHunk@@PEAPEAPEAV1@00@Z 0000000140001460 f i PartList.obj
 0001:00000460       ??$_Copy_memmove@PEAPEAUCompressionReportRecord@@PEAPEAU1@@std@@YAPEAPEAUCompressionReportRecord@@PEAPEAU1@00@Z 0000000140001460 f i Hunk.obj
 0001:00000460       ??$_Copy_memmove@PEAPEAVCmdParam@@PEAPEAV1@@std@@YAPEAPEAVCmdParam@@PEAPEAV1@00@Z 0000000140001460 f i CmdLineInterface.obj
 0001:00000460       ??$_Copy_memmove@PEAPEAVHunk@@PEAPEAV1@@std@@YAPEAPEAVHunk@@PEAPEAV1@00@Z 0000000140001460 f i Crinkler.obj
 0001:00000460       ??$_Copy_memmove@PEAPEAVHunkLoader@@PEAPEAV1@@std@@YAPEAPEAVHunkLoader@@PEAPEAV1@00@Z 0000000140001460 f i MultiLoader.obj
 0001:00000460       ??$_Copy_memmove@PEAPEAVPart@@PEAPEAV1@@std@@YAPEAPEAVPart@@PEAPEAV1@00@Z 0000000140001460 f i PartList.obj
 0001:00000460       ??$_Copy_memmove@PEAPEAVProgressBar@@PEAPEAV1@@std@@YAPEAPEAVProgressBar@@PEAPEAV1@00@Z 0000000140001460 f i CompositeProgressBar.obj
 0001:00000460       ??$_Copy_memmove@PEAPEAVSymbol@@PEAPEAV1@@std@@YAPEAPEAVSymbol@@PEAPEAV1@00@Z 0000000140001460 f i Crinkler.obj
 0001:00000480       ??$_Copy_memmove_n@PEADPEAD@std@@YAPEADPEAD_K0@Z 0000000140001480 f i Crinkler.obj
 0001:00000480       ??$_Copy_memmove_n@PEBDPEAD@std@@YAPEADPEBD_KPEAD@Z 0000000140001480 f i Crinkler.obj
 0001:000004a0       ??$_Copy_memmove_tail@PEAD@std@@YAPEADQEBDQEAD_K2@Z 00000001400014a0 f i Crinkler.obj
 0001:000004a0       ??$_Copy_memmove_tail@PEAE@std@@YAPEAEQEBDQEAE_K2@Z 00000001400014a0 f i Hunk.obj
 0001:000004a0       ??$_Copy_memmove_tail@PEAH@std@@YAPEAHQEBDQEAH_K2@Z 00000001400014a0 f i Crinkler.obj
 0001:000004a0       ??$_Copy_memmove_tail@PEAI@std@@YAPEAIQEBDQEAI_K2@Z 00000001400014a0 f i ImportHandler.obj
 0001:000004a0       ??$_Copy_memmove_tail@PEAPEAPEAVHunk@@@std@@YAPEAPEAPEAVHunk@@QEBDQEAPEAPEAV1@_K2@Z 00000001400014a0 f i PartList.obj
 0001:000004a0       ??$_Copy_memmove_tail@PEAPEAUCompressionReportRecord@@@std@@YAPEAPEAUCompressionReportRecord@@QEBDQEAPEAU1@_K2@Z 00000001400014a0 f i Hunk.obj
 0001:000004a0       ??$_Copy_memmove_tail@PEAPEAVCmdParam@@@std@@YAPEAPEAVCmdParam@@QEBDQEAPEAV1@_K2@Z 00000001400014a0 f i CmdLineInterface.obj
 0001:000004a0       ??$_Copy_memmove_tail@PEAPEAVHunk@@@std@@YAPEAPEAVHunk@@QEBDQEAPEAV1@_K2@Z 00000001400014a0 f i Crinkler.obj
 0001:000004a0       ??$_Copy_memmove_tail@PEAPEAVHunkLoader@@@std@@YAPEAPEAVHunkLoader@@QEBDQEAPEAV1@_K2@Z 00000001400014a0 f i MultiLoader.obj
 0001:000004a0       ??$_Copy_memmove_tail@PEAPEAVPart@@@std@@YAPEAPEAVPart@@QEBDQEAPEAV1@_K2@Z 00000001400014a0 f i PartList.obj
 0001:000004a0       ??$_Copy_memmove_tail@PEAPEAVProgressBar@@@std@@YAPEAPEAVProgressBar@@QEBDQEAPEAV1@_K2@Z 00000001400014a0 f i CompositeProgressBar.obj
 0001:000004a0       ??$_Copy_memmove_tail@PEAPEAVSymbol@@@std@@YAPEAPEAVSymbol@@QEBDQEAPEAV1@_K2@Z 00000001400014a0 f i Crinkler.obj
 0001:000004a0       ??$_Copy_memmove_tail@PEAU?$pair@PEADH@std@@@std@@YAPEAU?$pair@PEADH@0@QEBDQEAU10@_K2@Z 00000001400014a0 f i Export.obj
 0001:000004d0       ??$_Emplace_reallocate@AEBQEAUCompressionReportRecord@@@?$vector@PEAUCompressionReportRecord@@V?$allocator@PEAUCompressionReportRecord@@@std@@@std@@AEAAPEAPEAUCompressionReportRecord@@QEAPEAU2@AEBQEAU2@@Z 00000001400014d0 f i Hunk.obj
 0001:000004d0       ??$_Emplace_reallocate@AEBQEAVCmdParam@@@?$vector@PEAVCmdParam@@V?$allocator@PEAVCmdParam@@@std@@@std@@AEAAPEAPEAVCmdParam@@QEAPEAV2@AEBQEAV2@@Z 00000001400014d0 f i CmdLineInterface.obj
 0001:000004d0       ??$_Emplace_reallocate@AEBQEAVHunk@@@?$vector@PEAVHunk@@V?$allocator@PEAVHunk@@@std@@@std@@AEAAPEAPEAVHunk@@QEAPEAV2@AEBQEAV2@@Z 00000001400014d0 f i Crinkler.obj
 0001:000004d0       ??$_Emplace_reallocate@AEBQEAVProgressBar@@@?$vector@PEAVProgressBar@@V?$allocator@PEAVProgressBar@@@std@@@std@@AEAAPEAPEAVProgressBar@@QEAPEAV2@AEBQEAV2@@Z 00000001400014d0 f i CompositeProgressBar.obj
 0001:000004d0       ??$_Emplace_reallocate@AEBQEAVSymbol@@@?$vector@PEAVSymbol@@V?$allocator@PEAVSymbol@@@std@@@std@@AEAAPEAPEAVSymbol@@QEAPEAV2@AEBQEAV2@@Z 00000001400014d0 f i Hunk.obj
 0001:000004d0       ??$_Emplace_reallocate@PEAVHunkLoader@@@?$vector@PEAVHunkLoader@@V?$allocator@PEAVHunkLoader@@@std@@@std@@AEAAPEAPEAVHunkLoader@@QEAPEAV2@$$QEAPEAV2@@Z 00000001400014d0 f i MultiLoader.obj
 0001:000004d0       ??$_Emplace_reallocate@PEAVSymbol@@@?$vector@PEAVSymbol@@V?$allocator@PEAVSymbol@@@std@@@std@@AEAAPEAPEAVSymbol@@QEAPEAV2@$$QEAPEAV2@@Z 00000001400014d0 f i Crinkler.obj
 0001:00000660       ??$_Erase_tree@V?$allocator@U?$_Tree_node@U?$pair@$$CBV?$basic_string@DU?$char_traits@D@std@@V?$allocator@D@2@@std@@H@std@@PEAX@std@@@std@@@?$_Tree_val@U?$_Tree_simple_types@U?$pair@$$CBV?$basic_string@DU?$char_traits@D@std@@V?$allocator@D@2@@std@@H@std@@@std@@@std@@QEAAXAEAV?$allocator@U?$_Tree_node@U?$pair@$$CBV?$basic_string@DU?$char_traits@D@std@@V?$allocator@D@2@@std@@H@std@@PEAX@std@@@1@PEAU?$_Tree_node@U?$pair@$$CBV?$basic_string@DU?$char_traits@D@std@@V?$allocator@D@2@@std@@H@std@@PEAX@1@@Z 0000000140001660 f i HtmlReport.obj
 0001:00000660       ??$_Erase_tree@V?$allocator@U?$_Tree_node@U?$pair@$$CBV?$basic_string@DU?$char_traits@D@std@@V?$allocator@D@2@@std@@PEAVMemoryFile@@@std@@PEAX@std@@@std@@@?$_Tree_val@U?$_Tree_simple_types@U?$pair@$$CBV?$basic_string@DU?$char_traits@D@std@@V?$allocator@D@2@@std@@PEAVMemoryFile@@@std@@@std@@@std@@QEAAXAEAV?$allocator@U?$_Tree_node@U?$pair@$$CBV?$basic_string@DU?$char_traits@D@std@@V?$allocator@D@2@@std@@PEAVMemoryFile@@@std@@PEAX@std@@@1@PEAU?$_Tree_node@U?$pair@$$CBV?$basic_string@DU?$char_traits@D@std@@V?$allocator@D@2@@std@@PEAVMemoryFile@@@std@@PEAX@1@@Z 0000000140001660 f i main.obj
 0001:00000660       ??$_Erase_tree@V?$allocator@U?$_Tree_node@U?$pair@$$CBV?$basic_string@DU?$char_traits@D@std@@V?$allocator@D@2@@std@@PEAVModelList4k@@@std@@PEAX@std@@@std@@@?$_Tree_val@U?$_Tree_simple_types@U?$pair@$$CBV?$basic_string@DU?$char_traits@D@std@@V?$allocator@D@2@@std@@PEAVModelList4k@@@std@@@std@@@std@@QEAAXAEAV?$allocator@U?$_Tree_node@U?$pair@$$CBV?$basic_string@DU?$char_traits@D@std@@V?$allocator@D@2@@std@@PEAVModelList4k@@@std@@PEAX@std@@@1@PEAU?$_Tree_node@U?$pair@$$CBV?$basic_string@DU?$char_traits@D@std@@V?$allocator@D@2@@std@@PEAVModelList4k@@@std@@PEAX@1@@Z 0000000140001660 f i Reuse.obj
 0001:00000660       ??$_Erase_tree@V?$allocator@U?$_Tree_node@U?$pair@$$CBV?$basic_string@DU?$char_traits@D@std@@V?$allocator@D@2@@std@@PEAVSymbol@@@std@@PEAX@std@@@std@@@?$_Tree_val@U?$_Tree_simple_types@U?$pair@$$CBV?$basic_string@DU?$char_traits@D@std@@V?$allocator@D@2@@std@@PEAVSymbol@@@std@@@std@@@std@@QEAAXAEAV?$allocator@U?$_Tree_node@U?$pair@$$CBV?$basic_string@DU?$char_traits@D@std@@V?$allocator@D@2@@std@@PEAVSymbol@@@std@@PEAX@std@@@1@PEAU?$_Tree_node@U?$pair@$$CBV?$basic_string@DU?$char_traits@D@std@@V?$allocator@D@2@@std@@PEAVSymbol@@@std@@PEAX@1@@Z 0000000140001660 f i Crinkler.obj
 0001:000006e0       ??$_Erase_tree@V?$allocator@U?$_Tree_node@U?$pair@$$CBV?$basic_string@DU?$char_traits@D@std@@V?$allocator@D@2@@std@@V12@@std@@PEAX@std@@@std@@@?$_Tree_val@U?$_Tree_simple_types@U?$pair@$$CBV?$basic_string@DU?$char_traits@D@std@@V?$allocator@D@2@@std@@V12@@std@@@std@@@std@@QEAAXAEAV?$allocator@U?$_Tree_node@U?$pair@$$CBV?$basic_string@DU?$char_traits@D@std@@V?$allocator@D@2@@std@@V12@@std@@PEAX@std@@@1@PEAU?$_Tree_node@U?$pair@$$CBV?$basic_string@DU?$char_traits@D@std@@V?$allocator@D@2@@std@@V12@@std@@PEAX@1@@Z 00000001400016e0 f i Crinkler.obj
 0001:00000770       ??$_Erase_tree@V?$allocator@U?$_Tree_node@V?$basic_string@DU?$char_traits@D@std@@V?$allocator@D@2@@std@@PEAX@std@@@std@@@?$_Tree_val@U?$_Tree_simple_types@V?$basic_string@DU?$char_traits@D@std@@V?$allocator@D@2@@std@@@std@@@std@@QEAAXAEAV?$allocator@U?$_Tree_node@V?$basic_string@DU?$char_traits@D@std@@V?$allocator@D@2@@std@@PEAX@std@@@1@PEAU?$_Tree_node@V?$basic_string@DU?$char_traits@D@std@@V?$allocator@D@2@@std@@PEAX@1@@Z 0000000140001770 f i Crinkler.obj
 0001:000007f0       ??$_Erase_tree@V?$allocator@U?$_Tree_node@VExport@@PEAX@std@@@std@@@?$_Tree_val@U?$_Tree_simple_types@VExport@@@std@@@std@@QEAAXAEAV?$allocator@U?$_Tree_node@VExport@@PEAX@std@@@1@PEAU?$_Tree_node@VExport@@PEAX@1@@Z 00000001400017f0 f i Crinkler.obj
 0001:00000880       ??$_Fill_memset@PEADD@std@@YAXPEADD_K@Z 0000000140001880 f i Crinkler.obj
 0001:00000880       ??$_Fill_memset@PEAEE@std@@YAXPEAEE_K@Z 0000000140001880 f i Crinkler.obj
 0001:00000890       ??$_Find_vectorized@$$CBDD@std@@YAPEBDQEBD0D@Z 0000000140001890 f i Crinkler.obj
 0001:00000890       ??$_Find_vectorized@DD@std@@YAPEADQEAD0D@Z 0000000140001890 f i Crinkler.obj
 0001:000008a0       ??$_Floating_to_chars@$00M@std@@YA?AUto_chars_result@0@PEADQEADMW4chars_format@0@H@Z 00000001400018a0 f i Crinkler.obj
 0001:000009e0       ??$_Floating_to_chars@$00N@std@@YA?AUto_chars_result@0@PEADQEADNW4chars_format@0@H@Z 00000001400019e0 f i Crinkler.obj
 0001:00000b40       ??$_Floating_to_chars@$01M@std@@YA?AUto_chars_result@0@PEADQEADMW4chars_format@0@H@Z 0000000140001b40 f i Crinkler.obj
 0001:00000cc0       ??$_Floating_to_chars@$01N@std@@YA?AUto_chars_result@0@PEADQEADNW4chars_format@0@H@Z 0000000140001cc0 f i Crinkler.obj
 0001:00000e60       ??$_Floating_to_chars@$0A@M@std@@YA?AUto_chars_result@0@PEADQEADMW4chars_format@0@H@Z 0000000140001e60 f i Crinkler.obj
 0001:00000f90       ??$_Floating_to_chars@$0A@N@std@@YA?AUto_chars_result@0@PEADQEADNW4chars_format@0@H@Z 0000000140001f90 f i Crinkler.obj
 0001:000010e0       ??$_Floating_to_chars_fixed_precision@M@std@@YA?AUto_chars_result@0@QEAD0MH@Z 00000001400020e0 f i Crinkler.obj
 0001:00001140       ??$_Floating_to_chars_fixed_precision@N@std@@YA?AUto_chars_result@0@QEAD0NH@Z 0000000140002140 f i Crinkler.obj
 0001:000011a0       ??$_Floating_to_chars_general_precision@M@std@@YA?AUto_chars_result@0@PEADQEADMH@Z 00000001400021a0 f i Crinkler.obj
 0001:00001420       ??$_Floating_to_chars_general_precision@N@std@@YA?AUto_chars_result@0@PEADQEADNH@Z 0000000140002420 f i Crinkler.obj
 0001:000016d0       ??$_Floating_to_chars_hex_precision@M@std@@YA?AUto_chars_result@0@PEADQEADMH@Z 00000001400026d0 f i Crinkler.obj
 0001:000018e0       ??$_Floating_to_chars_hex_precision@N@std@@YA?AUto_chars_result@0@PEADQEADNH@Z 00000001400028e0 f i Crinkler.obj
 0001:00001b20       ??$_Floating_to_chars_hex_shortest@M@std@@YA?AUto_chars_result@0@PEADQEADM@Z 0000000140002b20 f i Crinkler.obj
 0001:00001cc0       ??$_Floating_to_chars_hex_shortest@N@std@@YA?AUto_chars_result@0@PEADQEADN@Z 0000000140002cc0 f i Crinkler.obj
 0001:00001e60       ??$_Floating_to_chars_ryu@M@std@@YA?AUto_chars_result@0@QEAD0MW4chars_format@0@@Z 0000000140002e60 f i Crinkler.obj
 0001:00001e90       ??$_Floating_to_chars_ryu@N@std@@YA?AUto_chars_result@0@QEAD0NW4chars_format@0@@Z 0000000140002e90 f i Crinkler.obj
 0001:00001ec0       ??$_Floating_to_chars_scientific_precision@M@std@@YA?AUto_chars_result@0@QEAD0MH@Z 0000000140002ec0 f i Crinkler.obj
 0001:00001f20       ??$_Floating_to_chars_scientific_precision@N@std@@YA?AUto_chars_result@0@QEAD0NH@Z 0000000140002f20 f i Crinkler.obj
 0001:00001f80       ??$_Fmt_write@DV?$back_insert_iterator@V?$_Fmt_buffer@D@std@@@std@@@std@@YA?AV?$back_insert_iterator@V?$_Fmt_buffer@D@std@@@0@V10@D@Z 0000000140002f80 f i Crinkler.obj
 0001:00001fe0       ??$_Fmt_write@DV?$back_insert_iterator@V?$_Fmt_buffer@D@std@@@std@@@std@@YA?AV?$back_insert_iterator@V?$_Fmt_buffer@D@std@@@0@V10@DU?$_Basic_format_specs@D@0@V_Lazy_locale@0@@Z 0000000140002fe0 f i Crinkler.obj
 0001:00002060       ??$_Fmt_write@DV?$back_insert_iterator@V?$_Fmt_buffer@D@std@@@std@@@std@@YA?AV?$back_insert_iterator@V?$_Fmt_buffer@D@std@@@0@V10@PEBD@Z 0000000140003060 f i Crinkler.obj
 0001:000020f0       ??$_Fmt_write@DV?$back_insert_iterator@V?$_Fmt_buffer@D@std@@@std@@@std@@YA?AV?$back_insert_iterator@V?$_Fmt_buffer@D@std@@@0@V10@PEBDAEBU?$_Basic_format_specs@D@0@V_Lazy_locale@0@@Z 00000001400030f0 f i Crinkler.obj
 0001:00002160       ??$_Fmt_write@DV?$back_insert_iterator@V?$_Fmt_buffer@D@std@@@std@@@std@@YA?AV?$back_insert_iterator@V?$_Fmt_buffer@D@std@@@0@V10@QEBX@Z 0000000140003160 f i Crinkler.obj
 0001:00002250       ??$_Fmt_write@DV?$back_insert_iterator@V?$_Fmt_buffer@D@std@@@std@@@std@@YA?AV?$back_insert_iterator@V?$_Fmt_buffer@D@std@@@0@V10@QEBXAEBU?$_Basic_format_specs@D@0@V_Lazy_locale@0@@Z 0000000140003250 f i Crinkler.obj
 0001:000023e0       ??$_Fmt_write@DV?$back_insert_iterator@V?$_Fmt_buffer@D@std@@@std@@@std@@YA?AV?$back_insert_iterator@V?$_Fmt_buffer@D@std@@@0@V10@Umonostate@0@@Z 00000001400033e0 f i Crinkler.obj
 0001:000023e0       ??$_Fmt_write@DV?$back_insert_iterator@V?$_Fmt_buffer@D@std@@@std@@@std@@YA?AV?$back_insert_iterator@V?$_Fmt_buffer@D@std@@@0@V10@Umonostate@0@AEBU?$_Basic_format_specs@D@0@V_Lazy_locale@0@@Z 00000001400033e0 f i Crinkler.obj
 0001:000023f0       ??$_Fmt_write@DV?$back_insert_iterator@V?$_Fmt_buffer@D@std@@@std@@@std@@YA?AV?$back_insert_iterator@V?$_Fmt_buffer@D@std@@@0@V10@V?$basic_string_view@DU?$char_traits@D@std@@@0@@Z 00000001400033f0 f i Crinkler.obj
 0001:00002480       ??$_Fmt_write@DV?$back_insert_iterator@V?$_Fmt_buffer@D@std@@@std@@@std@@YA?AV?$back_insert_iterator@V?$_Fmt_buffer@D@std@@@0@V10@V?$basic_string_view@DU?$char_traits@D@std@@@0@AEBU?$_Basic_format_specs@D@0@V_Lazy_locale@0@@Z 0000000140003480 f i Crinkler.obj
 0001:00002530       ??$_Fmt_write@DV?$back_insert_iterator@V?$_Fmt_buffer@D@std@@@std@@@std@@YA?AV?$back_insert_iterator@V?$_Fmt_buffer@D@std@@@0@V10@_N@Z 0000000140003530 f i Crinkler.obj
 0001:00002570       ??$_Fmt_write@DV?$back_insert_iterator@V?$_Fmt_buffer@D@std@@@std@@@std@@YA?AV?$back_insert_iterator@V?$_Fmt_buffer@D@std@@@0@V10@_NU?$_Basic_format_specs@D@0@V_Lazy_locale@0@@Z 0000000140003570 f i Crinkler.obj
 0001:000027e0       ??$_Fmt_write@DV?$back_insert_iterator@V?$_Fmt_buffer@D@std@@@std@@H@std@@YA?AV?$back_insert_iterator@V?$_Fmt_buffer@D@std@@@0@V10@H@Z 00000001400037e0 f i Crinkler.obj
 0001:000028c0       ??$_Fmt_write@DV?$back_insert_iterator@V?$_Fmt_buffer@D@std@@@std@@H@std@@YA?AV?$back_insert_iterator@V?$_Fmt_buffer@D@std@@@0@V10@HAEBU?$_Basic_format_specs@D@0@V_Lazy_locale@0@@Z 00000001400038c0 f i Crinkler.obj
 0001:00002900       ??$_Fmt_write@DV?$back_insert_iterator@V?$_Fmt_buffer@D@std@@@std@@I@std@@YA?AV?$back_insert_iterator@V?$_Fmt_buffer@D@std@@@0@V10@I@Z 0000000140003900 f i Crinkler.obj
 0001:000029a0       ??$_Fmt_write@DV?$back_insert_iterator@V?$_Fmt_buffer@D@std@@@std@@I@std@@YA?AV?$back_insert_iterator@V?$_Fmt_buffer@D@std@@@0@V10@IAEBU?$_Basic_format_specs@D@0@V_Lazy_locale@0@@Z 00000001400039a0 f i Crinkler.obj
 0001:000029e0       ??$_Fmt_write@DV?$back_insert_iterator@V?$_Fmt_buffer@D@std@@@std@@M@std@@YA?AV?$back_insert_iterator@V?$_Fmt_buffer@D@std@@@0@V10@M@Z 00000001400039e0 f i Crinkler.obj
 0001:00002aa0       ??$_Fmt_write@DV?$back_insert_iterator@V?$_Fmt_buffer@D@std@@@std@@M@std@@YA?AV?$back_insert_iterator@V?$_Fmt_buffer@D@std@@@0@V10@MAEBU?$_Basic_format_specs@D@0@V_Lazy_locale@0@@Z 0000000140003aa0 f i Crinkler.obj
 0001:000031d0       ??$_Fmt_write@DV?$back_insert_iterator@V?$_Fmt_buffer@D@std@@@std@@N@std@@YA?AV?$back_insert_iterator@V?$_Fmt_buffer@D@std@@@0@V10@N@Z 00000001400041d0 f i Crinkler.obj
 0001:00003290       ??$_Fmt_write@DV?$back_insert_iterator@V?$_Fmt_buffer@D@std@@@std@@N@std@@YA?AV?$back_insert_iterator@V?$_Fmt_buffer@D@std@@@0@V10@NAEBU?$_Basic_format_specs@D@0@V_Lazy_locale@0@@Z 0000000140004290 f i Crinkler.obj
 0001:00003290       ??$_Fmt_write@DV?$back_insert_iterator@V?$_Fmt_buffer@D@std@@@std@@O@std@@YA?AV?$back_insert_iterator@V?$_Fmt_buffer@D@std@@@0@V10@OAEBU?$_Basic_format_specs@D@0@V_Lazy_locale@0@@Z 0000000140004290 f i Crinkler.obj
 0001:000039d0       ??$_Fmt_write@DV?$back_insert_iterator@V?$_Fmt_buffer@D@std@@@std@@O@std@@YA?AV?$back_insert_iterator@V?$_Fmt_buffer@D@std@@@0@V10@O@Z 00000001400049d0 f i Crinkler.obj
 0001:00003a90       ??$_Fmt_write@DV?$back_insert_iterator@V?$_Fmt_buffer@D@std@@@std@@_J@std@@YA?AV?$back_insert_iterator@V?$_Fmt_buffer@D@std@@@0@V10@_J@Z 0000000140004a90 f i Crinkler.obj
 0001:00003b80       ??$_Fmt_write@DV?$back_insert_iterator@V?$_Fmt_buffer@D@std@@@std@@_J@std@@YA?AV?$back_insert_iterator@V?$_Fmt_buffer@D@std@@@0@V10@_JAEBU?$_Basic_format_specs@D@0@V_Lazy_locale@0@@Z 0000000140004b80 f i Crinkler.obj
 0001:00003bc0       ??$_Fmt_write@DV?$back_insert_iterator@V?$_Fmt_buffer@D@std@@@std@@_K@std@@YA?AV?$back_insert_iterator@V?$_Fmt_buffer@D@std@@@0@V10@_K@Z 0000000140004bc0 f i Crinkler.obj
 0001:00003c80       ??$_Fmt_write@DV?$back_insert_iterator@V?$_Fmt_buffer@D@std@@@std@@_K@std@@YA?AV?$back_insert_iterator@V?$_Fmt_buffer@D@std@@@0@V10@_KAEBU?$_Basic_format_specs@D@0@V_Lazy_locale@0@@Z 0000000140004c80 f i Crinkler.obj
 0001:00003cc0       ??$_Format_to_it@DV?$back_insert_iterator@V?$vector@DV?$allocator@D@std@@@std@@@std@@V?$basic_format_context@V?$back_insert_iterator@V?$_Fmt_buffer@D@std@@@std@@D@2@@std@@YA?AV?$back_insert_iterator@V?$vector@DV?$allocator@D@std@@@std@@@0@V10@V?$basic_string_view@DU?$char_traits@D@std@@@0@V?$basic_format_args@V?$basic_format_context@V?$back_insert_iterator@V?$_Fmt_buffer@D@std@@@std@@D@std@@@0@V_Lazy_locale@0@@Z 0000000140004cc0 f i Crinkler.obj
 0001:00003dc0       ??$_Get_arg@V?$basic_format_context@V?$back_insert_iterator@V?$_Fmt_buffer@D@std@@@std@@D@std@@@std@@YA?AV?$basic_format_arg@V?$basic_format_context@V?$back_insert_iterator@V?$_Fmt_buffer@D@std@@@std@@D@std@@@0@AEBV?$basic_format_context@V?$back_insert_iterator@V?$_Fmt_buffer@D@std@@@std@@D@0@_K@Z 0000000140004dc0 f i Crinkler.obj
 0001:00003f50       ??$_Insert_counted_range@PEBD@?$vector@DV?$allocator@D@std@@@std@@AEAAXV?$_Vector_const_iterator@V?$_Vector_val@U?$_Simple_types@D@std@@@std@@@1@PEBD_K@Z 0000000140004f50 f i Crinkler.obj
 0001:000041b0       ??$_Integer_to_chars@E@std@@YA?AUto_chars_result@0@PEADQEADEH@Z 00000001400051b0 f i Crinkler.obj
 0001:000043b0       ??$_Integer_to_chars@H@std@@YA?AUto_chars_result@0@PEADQEADHH@Z 00000001400053b0 f i Crinkler.obj
 0001:000045e0       ??$_Integer_to_chars@I@std@@YA?AUto_chars_result@0@PEADQEADIH@Z 00000001400055e0 f i Crinkler.obj
 0001:000047e0       ??$_Integer_to_chars@_J@std@@YA?AUto_chars_result@0@PEADQEAD_JH@Z 00000001400057e0 f i Crinkler.obj
 0001:00004a30       ??$_Integer_to_chars@_K@std@@YA?AUto_chars_result@0@PEADQEAD_KH@Z 0000000140005a30 f i Crinkler.obj
 0001:00004cf0       ??$_Large_integer_to_chars@D@std@@YA?AU?$pair@PEADW4errc@std@@@0@QEAD0IH@Z 0000000140005cf0 f i Crinkler.obj
 0001:00004eb0       ??$_Maklocchr@D@std@@YADDPEADAEBU_Cvtvec@@@Z 0000000140005eb0 f i Crinkler.obj
 0001:00004ec0       ??$_Maklocstr@D@std@@YAPEADPEBDPEADAEBU_Cvtvec@@@Z 0000000140005ec0 f i Crinkler.obj
 0001:00004f20       ??$_Measure_string_prefix@D@std@@YAPEBDV?$basic_string_view@DU?$char_traits@D@std@@@0@AEAH@Z 0000000140005f20 f i Crinkler.obj
 0001:000050b0       ??$_Move_unchecked@PEADPEAD@std@@YAPEADPEAD00@Z 00000001400060b0 f i Crinkler.obj
 0001:000050c0       ??$_On_type@D@?$_Specs_checker@V?$_Specs_handler@V?$basic_format_parse_context@D@std@@V?$basic_format_context@V?$back_insert_iterator@V?$_Fmt_buffer@D@std@@@std@@D@2@@std@@@std@@QEAAXD@Z 00000001400060c0 f i Crinkler.obj
 0001:00005730       ??$_Parse_arg_id@DAEAU?$_Id_adapter@D@std@@@std@@YAPEBDPEBD0AEAU?$_Id_adapter@D@0@@Z 0000000140006730 f i Crinkler.obj
 0001:00005820       ??$_Parse_arg_id@DU?$_Precision_adapter@DAEAV?$_Specs_checker@V?$_Specs_handler@V?$basic_format_parse_context@D@std@@V?$basic_format_context@V?$back_insert_iterator@V?$_Fmt_buffer@D@std@@@std@@D@2@@std@@@std@@@std@@@std@@YAPEBDPEBD0$$QEAU?$_Precision_adapter@DAEAV?$_Specs_checker@V?$_Specs_handler@V?$basic_format_parse_context@D@std@@V?$basic_format_context@V?$back_insert_iterator@V?$_Fmt_buffer@D@std@@@std@@D@2@@std@@@std@@@0@@Z 0000000140006820 f i Crinkler.obj
 0001:00005a10       ??$_Parse_arg_id@DU?$_Width_adapter@DAEAV?$_Specs_checker@V?$_Specs_handler@V?$basic_format_parse_context@D@std@@V?$basic_format_context@V?$back_insert_iterator@V?$_Fmt_buffer@D@std@@@std@@D@2@@std@@@std@@@std@@@std@@YAPEBDPEBD0$$QEAU?$_Width_adapter@DAEAV?$_Specs_checker@V?$_Specs_handler@V?$basic_format_parse_context@D@std@@V?$basic_format_context@V?$back_insert_iterator@V?$_Fmt_buffer@D@std@@@std@@D@2@@std@@@std@@@0@@Z 0000000140006a10 f i Crinkler.obj
 0001:00005bc0       ??$_Parse_format_specs@DAEAV?$_Specs_checker@V?$_Specs_handler@V?$basic_format_parse_context@D@std@@V?$basic_format_context@V?$back_insert_iterator@V?$_Fmt_buffer@D@std@@@std@@D@2@@std@@@std@@@std@@YAPEBDPEBD0AEAV?$_Specs_checker@V?$_Specs_handler@V?$basic_format_parse_context@D@std@@V?$basic_format_context@V?$back_insert_iterator@V?$_Fmt_buffer@D@std@@@std@@D@2@@std@@@0@@Z 0000000140006bc0 f i Crinkler.obj
 0001:00005fa0       ??$_Parse_format_string@DAEAU?$_Format_handler@D@std@@@std@@YAXV?$basic_string_view@DU?$char_traits@D@std@@@0@AEAU?$_Format_handler@D@0@@Z 0000000140006fa0 f i Crinkler.obj
 0001:00006120       ??$_Parse_replacement_field@DAEAU?$_Format_handler@D@std@@@std@@YAPEBDPEBD0AEAU?$_Format_handler@D@0@@Z 0000000140007120 f i Crinkler.obj
 0001:00006330       ??$_Reallocate_grow_by@V<lambda_1>@?1??append@?$basic_string@DU?$char_traits@D@std@@V?$allocator@D@2@@std@@QEAAAEAV34@QEBD_K@Z@PEBD_K@?$basic_string@DU?$char_traits@D@std@@V?$allocator@D@2@@std@@AEAAAEAV01@_KV<lambda_1>@?1??append@01@QEAAAEAV01@QEBD0@Z@PEBD_K@Z 0000000140007330 f i Crinkler.obj
 0001:000064c0       ??$_Search_vectorized@$$CBD$$CBD@std@@YAPEBDQEBD00_K@Z 00000001400074c0 f i HtmlReport.obj
 0001:000064c0       ??$_Search_vectorized@E$$CBE@std@@YAPEAEQEAE0QEBE_K@Z 00000001400074c0 f i Crinkler.obj
 0001:000064d0       ?AllowGeneralFetchOfReservedContexts@SchedulerBase@details@Concurrency@@MEAA_NXZ 00000001400074d0 f   libconcrt:SchedulerBase.obj
 0001:000064d0       ?DoTransform@IdentityTransform@@UEAA_NPEAVHunk@@H_N@Z 00000001400074d0 f   main.obj
 0001:000064d0       ?SweepWaitNode@SingleWaitBlock@details@Concurrency@@UEAA_NXZ 00000001400074d0 f   libconcrt:event.obj
 0001:000064d0       __acrt_uninitialize_command_line 00000001400074d0 f   libucrt:argv_data.obj
 0001:000064d0       _should_initialize_environment 00000001400074d0 f   LIBCMT:env_mode.obj
 0001:000064e0       ??$_Uninitialized_move@PEADV?$allocator@D@std@@@std@@YAPEADQEAD0PEADAEAV?$allocator@D@0@@Z 00000001400074e0 f i Crinkler.obj
 0001:00006520       ??$_Visit@U?$_Arg_formatter@V?$back_insert_iterator@V?$_Fmt_buffer@D@std@@@std@@D@std@@@?$basic_format_arg@V?$basic_format_context@V?$back_insert_iterator@V?$_Fmt_buffer@D@std@@@std@@D@std@@@std@@QEAA?A_T$$QEAU?$_Arg_formatter@V?$back_insert_iterator@V?$_Fmt_buffer@D@std@@@std@@D@1@@Z 0000000140007520 f i Crinkler.obj
 0001:00006800       ??$_Widen_and_copy@DV?$back_insert_iterator@V?$_Fmt_buffer@D@std@@@std@@@std@@YA?AV?$back_insert_iterator@V?$_Fmt_buffer@D@std@@@0@PEBDQEBDV10@@Z 0000000140007800 f i Crinkler.obj
 0001:00006890       ??$_Write_aligned@V?$back_insert_iterator@V?$_Fmt_buffer@D@std@@@std@@U?$_Basic_format_specs@D@2@AEAV<lambda_1>@?1???$_Fmt_write@DV?$back_insert_iterator@V?$_Fmt_buffer@D@std@@@std@@@2@YA?AV12@V12@QEBXAEBU32@V_Lazy_locale@2@@Z@@std@@YA?AV?$back_insert_iterator@V?$_Fmt_buffer@D@std@@@0@V10@HAEBU?$_Basic_format_specs@D@0@W4_Fmt_align@0@AEAV<lambda_1>@?1???$_Fmt_write@DV?$back_insert_iterator@V?$_Fmt_buffer@D@std@@@std@@@0@YA?AV10@0QEBX1V_Lazy_locale@0@@Z@@Z 0000000140007890 f i Crinkler.obj
 0001:00006a00       ??$_Write_aligned@V?$back_insert_iterator@V?$_Fmt_buffer@D@std@@@std@@U?$_Basic_format_specs@D@2@AEAV<lambda_1>@?1???$_Fmt_write@DV?$back_insert_iterator@V?$_Fmt_buffer@D@std@@@std@@M@2@YA?AV12@V12@MAEBU32@V_Lazy_locale@2@@Z@@std@@YA?AV?$back_insert_iterator@V?$_Fmt_buffer@D@std@@@0@V10@HAEBU?$_Basic_format_specs@D@0@W4_Fmt_align@0@AEAV<lambda_1>@?1???$_Fmt_write@DV?$back_insert_iterator@V?$_Fmt_buffer@D@std@@@std@@M@0@YA?AV10@0M1V_Lazy_locale@0@@Z@@Z 0000000140007a00 f i Crinkler.obj
 0001:00006a00       ??$_Write_aligned@V?$back_insert_iterator@V?$_Fmt_buffer@D@std@@@std@@U?$_Basic_format_specs@D@2@AEAV<lambda_1>@?1???$_Fmt_write@DV?$back_insert_iterator@V?$_Fmt_buffer@D@std@@@std@@N@2@YA?AV12@V12@NAEBU32@V_Lazy_locale@2@@Z@@std@@YA?AV?$back_insert_iterator@V?$_Fmt_buffer@D@std@@@0@V10@HAEBU?$_Basic_format_specs@D@0@W4_Fmt_align@0@AEAV<lambda_1>@?1???$_Fmt_write@DV?$back_insert_iterator@V?$_Fmt_buffer@D@std@@@std@@N@0@YA?AV10@0N1V_Lazy_locale@0@@Z@@Z 0000000140007a00 f i Crinkler.obj
 0001:00006a00       ??$_Write_aligned@V?$back_insert_iterator@V?$_Fmt_buffer@D@std@@@std@@U?$_Basic_format_specs@D@2@AEAV<lambda_1>@?1???$_Fmt_write@DV?$back_insert_iterator@V?$_Fmt_buffer@D@std@@@std@@O@2@YA?AV12@V12@OAEBU32@V_Lazy_locale@2@@Z@@std@@YA?AV?$back_insert_iterator@V?$_Fmt_buffer@D@std@@@0@V10@HAEBU?$_Basic_format_specs@D@0@W4_Fmt_align@0@AEAV<lambda_1>@?1???$_Fmt_write@DV?$back_insert_iterator@V?$_Fmt_buffer@D@std@@@std@@O@0@YA?AV10@0O1V_Lazy_locale@0@@Z@@Z 0000000140007a00 f i Crinkler.obj
 0001:00006b70       ??$_Write_aligned@V?$back_insert_iterator@V?$_Fmt_buffer@D@std@@@std@@U?$_Basic_format_specs@D@2@AEAV<lambda_1>@?1???$_Write_integral@DV?$back_insert_iterator@V?$_Fmt_buffer@D@std@@@std@@E@2@YA?AV12@V12@EU32@V_Lazy_locale@2@@Z@@std@@YA?AV?$back_insert_iterator@V?$_Fmt_buffer@D@std@@@0@V10@HAEBU?$_Basic_format_specs@D@0@W4_Fmt_align@0@AEAV<lambda_1>@?1???$_Write_integral@DV?$back_insert_iterator@V?$_Fmt_buffer@D@std@@@std@@E@0@YA?AV10@0EU20@V_Lazy_locale@0@@Z@@Z 0000000140007b70 f i Crinkler.obj
 0001:00006b70       ??$_Write_aligned@V?$back_insert_iterator@V?$_Fmt_buffer@D@std@@@std@@U?$_Basic_format_specs@D@2@AEAV<lambda_1>@?1???$_Write_integral@DV?$back_insert_iterator@V?$_Fmt_buffer@D@std@@@std@@I@2@YA?AV12@V12@IU32@V_Lazy_locale@2@@Z@@std@@YA?AV?$back_insert_iterator@V?$_Fmt_buffer@D@std@@@0@V10@HAEBU?$_Basic_format_specs@D@0@W4_Fmt_align@0@AEAV<lambda_1>@?1???$_Write_integral@DV?$back_insert_iterator@V?$_Fmt_buffer@D@std@@@std@@I@0@YA?AV10@0IU20@V_Lazy_locale@0@@Z@@Z 0000000140007b70 f i Crinkler.obj
 0001:00006b70       ??$_Write_aligned@V?$back_insert_iterator@V?$_Fmt_buffer@D@std@@@std@@U?$_Basic_format_specs@D@2@AEAV<lambda_1>@?1???$_Write_integral@DV?$back_insert_iterator@V?$_Fmt_buffer@D@std@@@std@@_K@2@YA?AV12@V12@_KU32@V_Lazy_locale@2@@Z@@std@@YA?AV?$back_insert_iterator@V?$_Fmt_buffer@D@std@@@0@V10@HAEBU?$_Basic_format_specs@D@0@W4_Fmt_align@0@AEAV<lambda_1>@?1???$_Write_integral@DV?$back_insert_iterator@V?$_Fmt_buffer@D@std@@@std@@_K@0@YA?AV10@0_KU20@V_Lazy_locale@0@@Z@@Z 0000000140007b70 f i Crinkler.obj
 0001:00006ce0       ??$_Write_aligned@V?$back_insert_iterator@V?$_Fmt_buffer@D@std@@@std@@U?$_Basic_format_specs@D@2@AEAV<lambda_1>@?1???$_Write_integral@DV?$back_insert_iterator@V?$_Fmt_buffer@D@std@@@std@@H@2@YA?AV12@V12@HU32@V_Lazy_locale@2@@Z@@std@@YA?AV?$back_insert_iterator@V?$_Fmt_buffer@D@std@@@0@V10@HAEBU?$_Basic_format_specs@D@0@W4_Fmt_align@0@AEAV<lambda_1>@?1???$_Write_integral@DV?$back_insert_iterator@V?$_Fmt_buffer@D@std@@@std@@H@0@YA?AV10@0HU20@V_Lazy_locale@0@@Z@@Z 0000000140007ce0 f i Crinkler.obj
 0001:00006e50       ??$_Write_aligned@V?$back_insert_iterator@V?$_Fmt_buffer@D@std@@@std@@U?$_Basic_format_specs@D@2@AEAV<lambda_1>@?1???$_Write_integral@DV?$back_insert_iterator@V?$_Fmt_buffer@D@std@@@std@@_J@2@YA?AV12@V12@_JU32@V_Lazy_locale@2@@Z@@std@@YA?AV?$back_insert_iterator@V?$_Fmt_buffer@D@std@@@0@V10@HAEBU?$_Basic_format_specs@D@0@W4_Fmt_align@0@AEAV<lambda_1>@?1???$_Write_integral@DV?$back_insert_iterator@V?$_Fmt_buffer@D@std@@@std@@_J@0@YA?AV10@0_JU20@V_Lazy_locale@0@@Z@@Z 0000000140007e50 f i Crinkler.obj
 0001:00006fc0       ??$_Write_aligned@V?$back_insert_iterator@V?$_Fmt_buffer@D@std@@@std@@U?$_Basic_format_specs@D@2@V<lambda_1>@?1???$_Fmt_write@DV?$back_insert_iterator@V?$_Fmt_buffer@D@std@@@std@@@2@YA?AV12@V12@V?$basic_string_view@DU?$char_traits@D@std@@@2@AEBU32@V_Lazy_locale@2@@Z@@std@@YA?AV?$back_insert_iterator@V?$_Fmt_buffer@D@std@@@0@V10@HAEBU?$_Basic_format_specs@D@0@W4_Fmt_align@0@$$QEAV<lambda_1>@?1???$_Fmt_write@DV?$back_insert_iterator@V?$_Fmt_buffer@D@std@@@std@@@0@YA?AV10@0V?$basic_string_view@DU?$char_traits@D@std@@@0@1V_Lazy_locale@0@@Z@@Z 0000000140007fc0 f i Crinkler.obj
 0001:00007160       ??$_Write_integral@DV?$back_insert_iterator@V?$_Fmt_buffer@D@std@@@std@@E@std@@YA?AV?$back_insert_iterator@V?$_Fmt_buffer@D@std@@@0@V10@EU?$_Basic_format_specs@D@0@V_Lazy_locale@0@@Z 0000000140008160 f i Crinkler.obj
 0001:00007600       ??$_Write_integral@DV?$back_insert_iterator@V?$_Fmt_buffer@D@std@@@std@@H@std@@YA?AV?$back_insert_iterator@V?$_Fmt_buffer@D@std@@@0@V10@HU?$_Basic_format_specs@D@0@V_Lazy_locale@0@@Z 0000000140008600 f i Crinkler.obj
 0001:00007ac0       ??$_Write_integral@DV?$back_insert_iterator@V?$_Fmt_buffer@D@std@@@std@@I@std@@YA?AV?$back_insert_iterator@V?$_Fmt_buffer@D@std@@@0@V10@IU?$_Basic_format_specs@D@0@V_Lazy_locale@0@@Z 0000000140008ac0 f i Crinkler.obj
 0001:00007f60       ??$_Write_integral@DV?$back_insert_iterator@V?$_Fmt_buffer@D@std@@@std@@_J@std@@YA?AV?$back_insert_iterator@V?$_Fmt_buffer@D@std@@@0@V10@_JU?$_Basic_format_specs@D@0@V_Lazy_locale@0@@Z 0000000140008f60 f i Crinkler.obj
 0001:00008420       ??$_Write_integral@DV?$back_insert_iterator@V?$_Fmt_buffer@D@std@@@std@@_K@std@@YA?AV?$back_insert_iterator@V?$_Fmt_buffer@D@std@@@0@V10@_KU?$_Basic_format_specs@D@0@V_Lazy_locale@0@@Z 0000000140009420 f i Crinkler.obj
 0001:000088c0       ??$_Write_separated_integer@DV?$back_insert_iterator@V?$_Fmt_buffer@D@std@@@std@@@std@@YA?AV?$back_insert_iterator@V?$_Fmt_buffer@D@std@@@0@PEBDQEBDV?$basic_string_view@DU?$char_traits@D@std@@@0@DHV10@@Z 00000001400098c0 f i Crinkler.obj
 0001:000089f0       ??$_Write_sign@V?$back_insert_iterator@V?$_Fmt_buffer@D@std@@@std@@@std@@YA?AV?$back_insert_iterator@V?$_Fmt_buffer@D@std@@@0@V10@W4_Fmt_sign@0@_N@Z 00000001400099f0 f i Crinkler.obj
 0001:00008a90       ??$_Zero_range@PEAD@std@@YAPEADQEAD0@Z 0000000140009a90 f i Export.obj
 0001:00008a90       ??$_Zero_range@PEAE@std@@YAPEAEQEAE0@Z 0000000140009a90 f i Hunk.obj
 0001:00008a90       ??$_Zero_range@PEAH@std@@YAPEAHQEAH0@Z 0000000140009a90 f i Crinkler.obj
 0001:00008a90       ??$_Zero_range@PEAI@std@@YAPEAIQEAI0@Z 0000000140009a90 f i ImportHandler.obj
 0001:00008a90       ??$_Zero_range@PEAPEAPEAVHunk@@@std@@YAPEAPEAPEAVHunk@@QEAPEAPEAV1@0@Z 0000000140009a90 f i PartList.obj
 0001:00008a90       ??$_Zero_range@PEAPEAVHunk@@@std@@YAPEAPEAVHunk@@QEAPEAV1@0@Z 0000000140009a90 f i CoffObjectLoader.obj
 0001:00008a90       ??$_Zero_range@PEAPEAVModelList4k@@@std@@YAPEAPEAVModelList4k@@QEAPEAV1@0@Z 0000000140009a90 f i Crinkler.obj
 0001:00008a90       ??$_Zero_range@PEAPEBD@std@@YAPEAPEBDQEAPEBD0@Z 0000000140009a90 f i CoffLibraryLoader.obj
 0001:00008ab0       ??$__append_c_digits@D@std@@YAXIIQEAD@Z 0000000140009ab0 f i Crinkler.obj
 0001:00008b50       ??$__append_n_digits@D@std@@YAXIIQEAD@Z 0000000140009b50 f i Crinkler.obj
 0001:00008c60       ??$__append_nine_digits@D@std@@YAXIQEAD@Z 0000000140009c60 f i Crinkler.obj
 0001:00008d00       ??$__d2fixed_buffered_n@D@std@@YA?AU?$pair@PEADW4errc@std@@@0@PEADQEADNI@Z 0000000140009d00 f i Crinkler.obj
 0001:000092c0       ??$__d2s_buffered_n@D@std@@YA?AU?$pair@PEADW4errc@std@@@0@QEAD0NW4chars_format@0@@Z 000000014000a2c0 f i Crinkler.obj
 0001:00009480       ??$__f2s_buffered_n@D@std@@YA?AU?$pair@PEADW4errc@std@@@0@QEAD0MW4chars_format@0@@Z 000000014000a480 f i Crinkler.obj
 0001:000095b0       ??$__to_chars@D@std@@YA?AU?$pair@PEADW4errc@std@@@0@QEAD0U__floating_decimal_32@0@W4chars_format@0@II@Z 000000014000a5b0 f i Crinkler.obj
 0001:00009960       ??$__to_chars@D@std@@YA?AU?$pair@PEADW4errc@std@@@0@QEAD0U__floating_decimal_64@0@W4chars_format@0@N@Z 000000014000a960 f i Crinkler.obj
 0001:0000a020       ??$format_to@V?$back_insert_iterator@V?$vector@DV?$allocator@D@std@@@std@@@std@@$$V@std@@YA?AV?$back_insert_iterator@V?$vector@DV?$allocator@D@std@@@std@@@0@V10@U?$basic_format_string@D$$V@0@@Z 000000014000b020 f i Crinkler.obj
 0001:0000a060       ??$format_to@V?$back_insert_iterator@V?$vector@DV?$allocator@D@std@@@std@@@std@@AEAH@std@@YA?AV?$back_insert_iterator@V?$vector@DV?$allocator@D@std@@@std@@@0@V10@U?$basic_format_string@DAEAH@0@AEAH@Z 000000014000b060 f i Crinkler.obj
 0001:0000a060       ??$format_to@V?$back_insert_iterator@V?$vector@DV?$allocator@D@std@@@std@@@std@@AEBH@std@@YA?AV?$back_insert_iterator@V?$vector@DV?$allocator@D@std@@@std@@@0@V10@U?$basic_format_string@DAEBH@0@AEBH@Z 000000014000b060 f i HtmlReport.obj
 0001:0000a060       ??$format_to@V?$back_insert_iterator@V?$vector@DV?$allocator@D@std@@@std@@@std@@H@std@@YA?AV?$back_insert_iterator@V?$vector@DV?$allocator@D@std@@@std@@@0@V10@U?$basic_format_string@DH@0@$$QEAH@Z 000000014000b060 f i Crinkler.obj
 0001:0000a0d0       ??$format_to@V?$back_insert_iterator@V?$vector@DV?$allocator@D@std@@@std@@@std@@AEAV?$basic_string@DU?$char_traits@D@std@@V?$allocator@D@2@@2@@std@@YA?AV?$back_insert_iterator@V?$vector@DV?$allocator@D@std@@@std@@@0@V10@U?$basic_format_string@DAEAV?$basic_string@DU?$char_traits@D@std@@V?$allocator@D@2@@std@@@0@AEAV?$basic_string@DU?$char_traits@D@std@@V?$allocator@D@2@@0@@Z 000000014000b0d0 f i Crinkler.obj
 0001:0000a0d0       ??$format_to@V?$back_insert_iterator@V?$vector@DV?$allocator@D@std@@@std@@@std@@AEBV?$basic_string@DU?$char_traits@D@std@@V?$allocator@D@2@@2@@std@@YA?AV?$back_insert_iterator@V?$vector@DV?$allocator@D@std@@@std@@@0@V10@U?$basic_format_string@DAEBV?$basic_string@DU?$char_traits@D@std@@V?$allocator@D@2@@std@@@0@AEBV?$basic_string@DU?$char_traits@D@std@@V?$allocator@D@2@@0@@Z 000000014000b0d0 f i Crinkler.obj
 0001:0000a140       ??$format_to@V?$back_insert_iterator@V?$vector@DV?$allocator@D@std@@@std@@@std@@AEAY07$$CBD@std@@YA?AV?$back_insert_iterator@V?$vector@DV?$allocator@D@std@@@std@@@0@V10@U?$basic_format_string@DAEAY07$$CBD@0@AEAY07$$CBD@Z 000000014000b140 f i Crinkler.obj
 0001:0000a1b0       ??$format_to@V?$back_insert_iterator@V?$vector@DV?$allocator@D@std@@@std@@@std@@AEAV?$basic_string@DU?$char_traits@D@std@@V?$allocator@D@2@@2@AEAV32@@std@@YA?AV?$back_insert_iterator@V?$vector@DV?$allocator@D@std@@@std@@@0@V10@U?$basic_format_string@DAEAV?$basic_string@DU?$char_traits@D@std@@V?$allocator@D@2@@std@@AEAV12@@0@AEAV?$basic_string@DU?$char_traits@D@std@@V?$allocator@D@2@@0@2@Z 000000014000b1b0 f i HtmlReport.obj
 0001:0000a1b0       ??$format_to@V?$back_insert_iterator@V?$vector@DV?$allocator@D@std@@@std@@@std@@AEBV?$basic_string@DU?$char_traits@D@std@@V?$allocator@D@2@@2@AEBV32@@std@@YA?AV?$back_insert_iterator@V?$vector@DV?$allocator@D@std@@@std@@@0@V10@U?$basic_format_string@DAEBV?$basic_string@DU?$char_traits@D@std@@V?$allocator@D@2@@std@@AEBV12@@0@AEBV?$basic_string@DU?$char_traits@D@std@@V?$allocator@D@2@@0@2@Z 000000014000b1b0 f i Crinkler.obj
 0001:0000a220       ??$format_to@V?$back_insert_iterator@V?$vector@DV?$allocator@D@std@@@std@@@std@@AEAV?$basic_string@DU?$char_traits@D@std@@V?$allocator@D@2@@2@AEAH@std@@YA?AV?$back_insert_iterator@V?$vector@DV?$allocator@D@std@@@std@@@0@V10@U?$basic_format_string@DAEAV?$basic_string@DU?$char_traits@D@std@@V?$allocator@D@2@@std@@AEAH@0@AEAV?$basic_string@DU?$char_traits@D@std@@V?$allocator@D@2@@0@AEAH@Z 000000014000b220 f i HtmlReport.obj
 0001:0000a220       ??$format_to@V?$back_insert_iterator@V?$vector@DV?$allocator@D@std@@@std@@@std@@AEBV?$basic_string@DU?$char_traits@D@std@@V?$allocator@D@2@@2@H@std@@YA?AV?$back_insert_iterator@V?$vector@DV?$allocator@D@std@@@std@@@0@V10@U?$basic_format_string@DAEBV?$basic_string@DU?$char_traits@D@std@@V?$allocator@D@2@@std@@H@0@AEBV?$basic_string@DU?$char_traits@D@std@@V?$allocator@D@2@@0@$$QEAH@Z 000000014000b220 f i Crinkler.obj
 0001:0000a290       ??$format_to@V?$back_insert_iterator@V?$vector@DV?$allocator@D@std@@@std@@@std@@AEAPEBD@std@@YA?AV?$back_insert_iterator@V?$vector@DV?$allocator@D@std@@@std@@@0@V10@U?$basic_format_string@DAEAPEBD@0@AEAPEBD@Z 000000014000b290 f i HtmlReport.obj
 0001:0000a290       ??$format_to@V?$back_insert_iterator@V?$vector@DV?$allocator@D@std@@@std@@@std@@PEBD@std@@YA?AV?$back_insert_iterator@V?$vector@DV?$allocator@D@std@@@std@@@0@V10@U?$basic_format_string@DPEBD@0@$$QEAPEBD@Z 000000014000b290 f i Crinkler.obj
 0001:0000a300       ??$make_format_args@V?$basic_format_context@V?$back_insert_iterator@V?$_Fmt_buffer@D@std@@@std@@D@std@@$$BY07$$CBD@std@@YA?A_PAEAY07$$CBD@Z 000000014000b300 f i Crinkler.obj
 0001:0000a320       ??$make_format_args@V?$basic_format_context@V?$back_insert_iterator@V?$_Fmt_buffer@D@std@@@std@@D@std@@$$CBV?$basic_string@DU?$char_traits@D@std@@V?$allocator@D@2@@2@$$CBV32@@std@@YA?A_PAEBV?$basic_string@DU?$char_traits@D@std@@V?$allocator@D@2@@0@0@Z 000000014000b320 f i Crinkler.obj
 0001:0000a320       ??$make_format_args@V?$basic_format_context@V?$back_insert_iterator@V?$_Fmt_buffer@D@std@@@std@@D@std@@V?$basic_string@DU?$char_traits@D@std@@V?$allocator@D@2@@2@V32@@std@@YA?A_PAEAV?$basic_string@DU?$char_traits@D@std@@V?$allocator@D@2@@0@0@Z 000000014000b320 f i HtmlReport.obj
 0001:0000a390       ??$make_format_args@V?$basic_format_context@V?$back_insert_iterator@V?$_Fmt_buffer@D@std@@@std@@D@std@@$$CBV?$basic_string@DU?$char_traits@D@std@@V?$allocator@D@2@@2@@std@@YA?A_PAEBV?$basic_string@DU?$char_traits@D@std@@V?$allocator@D@2@@0@@Z 000000014000b390 f i Crinkler.obj
 0001:0000a390       ??$make_format_args@V?$basic_format_context@V?$back_insert_iterator@V?$_Fmt_buffer@D@std@@@std@@D@std@@V?$basic_string@DU?$char_traits@D@std@@V?$allocator@D@2@@2@@std@@YA?A_PAEAV?$basic_string@DU?$char_traits@D@std@@V?$allocator@D@2@@0@@Z 000000014000b390 f i Crinkler.obj
 0001:0000a3d0       ??$make_format_args@V?$basic_format_context@V?$back_insert_iterator@V?$_Fmt_buffer@D@std@@@std@@D@std@@$$CBV?$basic_string@DU?$char_traits@D@std@@V?$allocator@D@2@@2@H@std@@YA?A_PAEBV?$basic_string@DU?$char_traits@D@std@@V?$allocator@D@2@@0@AEAH@Z 000000014000b3d0 f i Crinkler.obj
 0001:0000a3d0       ??$make_format_args@V?$basic_format_context@V?$back_insert_iterator@V?$_Fmt_buffer@D@std@@@std@@D@std@@V?$basic_string@DU?$char_traits@D@std@@V?$allocator@D@2@@2@H@std@@YA?A_PAEAV?$basic_string@DU?$char_traits@D@std@@V?$allocator@D@2@@0@AEAH@Z 000000014000b3d0 f i HtmlReport.obj
 0001:0000a440       ??$make_format_args@V?$basic_format_context@V?$back_insert_iterator@V?$_Fmt_buffer@D@std@@@std@@D@std@@$$CBH@std@@YA?A_PAEBH@Z 000000014000b440 f i HtmlReport.obj
 0001:0000a440       ??$make_format_args@V?$basic_format_context@V?$back_insert_iterator@V?$_Fmt_buffer@D@std@@@std@@D@std@@H@std@@YA?A_PAEAH@Z 000000014000b440 f i Crinkler.obj
 0001:0000a460       ??$make_format_args@V?$basic_format_context@V?$back_insert_iterator@V?$_Fmt_buffer@D@std@@@std@@D@std@@PEBD@std@@YA?A_PAEAPEBD@Z 000000014000b460 f i Crinkler.obj
 0001:0000a520       ??$use_facet@V?$numpunct@D@std@@@std@@YAAEBV?$numpunct@D@0@AEBVlocale@0@@Z 000000014000b520 f i Crinkler.obj
 0001:0000a640       ??$vformat_to@V?$back_insert_iterator@V?$vector@DV?$allocator@D@std@@@std@@@std@@@std@@YA?AV?$back_insert_iterator@V?$vector@DV?$allocator@D@std@@@std@@@0@V10@V?$basic_string_view@DU?$char_traits@D@std@@@0@V?$basic_format_args@V?$basic_format_context@V?$back_insert_iterator@V?$_Fmt_buffer@D@std@@@std@@D@std@@@0@@Z 000000014000b640 f i Crinkler.obj
 0001:0000a680       ??$visit_format_arg@U?$_Arg_formatter@V?$back_insert_iterator@V?$_Fmt_buffer@D@std@@@std@@D@std@@V?$basic_format_context@V?$back_insert_iterator@V?$_Fmt_buffer@D@std@@@std@@D@2@@std@@YA?A_T$$QEAU?$_Arg_formatter@V?$back_insert_iterator@V?$_Fmt_buffer@D@std@@@std@@D@0@V?$basic_format_arg@V?$basic_format_context@V?$back_insert_iterator@V?$_Fmt_buffer@D@std@@@std@@D@std@@@0@@Z 000000014000b680 f i Crinkler.obj
 0001:0000a6b0       ??$visit_format_arg@U?$_Default_arg_formatter@V?$back_insert_iterator@V?$_Fmt_buffer@D@std@@@std@@D@std@@V?$basic_format_context@V?$back_insert_iterator@V?$_Fmt_buffer@D@std@@@std@@D@2@@std@@YA?A_T$$QEAU?$_Default_arg_formatter@V?$back_insert_iterator@V?$_Fmt_buffer@D@std@@@std@@D@0@V?$basic_format_arg@V?$basic_format_context@V?$back_insert_iterator@V?$_Fmt_buffer@D@std@@@std@@D@std@@@0@@Z 000000014000b6b0 f i Crinkler.obj
 0001:0000a8d0       ??$visit_format_arg@V_Precision_checker@std@@V?$basic_format_context@V?$back_insert_iterator@V?$_Fmt_buffer@D@std@@@std@@D@2@@std@@YA?A_T$$QEAV_Precision_checker@0@V?$basic_format_arg@V?$basic_format_context@V?$back_insert_iterator@V?$_Fmt_buffer@D@std@@@std@@D@std@@@0@@Z 000000014000b8d0 f i Crinkler.obj
 0001:0000aa00       ??$visit_format_arg@V_Width_checker@std@@V?$basic_format_context@V?$back_insert_iterator@V?$_Fmt_buffer@D@std@@@std@@D@2@@std@@YA?A_T$$QEAV_Width_checker@0@V?$basic_format_arg@V?$basic_format_context@V?$back_insert_iterator@V?$_Fmt_buffer@D@std@@@std@@D@std@@@0@@Z 000000014000ba00 f i Crinkler.obj
 0001:0000ab30       ??0?$basic_string@DU?$char_traits@D@std@@V?$allocator@D@2@@std@@QEAA@AEBV01@@Z 000000014000bb30 f i Crinkler.obj
 0001:0000ac20       ??0Crinkler@@QEAA@XZ       000000014000bc20 f   Crinkler.obj
 0001:0000aeb0       ??0_UnrealizedChore@details@Concurrency@@QEAA@XZ 000000014000beb0 f i Crinkler.obj
 0001:0000aed0       ??0bad_alloc@std@@QEAA@AEBV01@@Z 000000014000bed0 f i Crinkler.obj
 0001:0000af10       ??0bad_alloc@std@@QEAA@XZ  000000014000bf10 f i Crinkler.obj
 0001:0000af40       ??0bad_array_new_length@std@@QEAA@AEBV01@@Z 000000014000bf40 f i Crinkler.obj
 0001:0000af80       ??0bad_array_new_length@std@@QEAA@XZ 000000014000bf80 f i Crinkler.obj
 0001:0000afb0       ??0bad_cast@std@@QEAA@AEBV01@@Z 000000014000bfb0 f i Crinkler.obj
 0001:0000aff0       ??0bad_cast@std@@QEAA@XZ   000000014000bff0 f i Crinkler.obj
 0001:0000b020       ??0exception@std@@QEAA@AEBV01@@Z 000000014000c020 f i Crinkler.obj
 0001:0000b060       ??0format_error@std@@QEAA@AEBV01@@Z 000000014000c060 f i Crinkler.obj
 0001:0000b0a0       ??0format_error@std@@QEAA@PEBD@Z 000000014000c0a0 f i Crinkler.obj
 0001:0000b0f0       ??0invalid_argument@std@@QEAA@AEBV01@@Z 000000014000c0f0 f i Crinkler.obj
 0001:0000b130       ??0invalid_argument@std@@QEAA@PEBD@Z 000000014000c130 f i Crinkler.obj
 0001:0000b180       ??0logic_error@std@@QEAA@AEBV01@@Z 000000014000c180 f i Crinkler.obj
 0001:0000b1c0       ??0runtime_error@std@@QEAA@AEBV01@@Z 000000014000c1c0 f i Crinkler.obj
 0001:0000b200       ??1?$_Hash_vec@V?$allocator@V?$_List_unchecked_iterator@V?$_List_val@U?$_List_simple_types@U?$pair@$$CBV?$basic_string@DU?$char_traits@D@std@@V?$allocator@D@2@@std@@PEAVHunk@@@std@@@std@@@std@@@std@@@std@@@std@@QEAA@XZ 000000014000c200 f i Reuse.obj
 0001:0000b200       ??1?$vector@PEAVCmdParam@@V?$allocator@PEAVCmdParam@@@std@@@std@@QEAA@XZ 000000014000c200 f i CmdLineInterface.obj
 0001:0000b200       ??1?$vector@PEAVHunk@@V?$allocator@PEAVHunk@@@std@@@std@@QEAA@XZ 000000014000c200 f i Crinkler.obj
 0001:0000b200       ??1?$vector@PEAVPart@@V?$allocator@PEAVPart@@@std@@@std@@QEAA@XZ 000000014000c200 f i PartList.obj
 0001:0000b200       ??1?$vector@PEAVProgressBar@@V?$allocator@PEAVProgressBar@@@std@@@std@@QEAA@XZ 000000014000c200 f i Crinkler.obj
 0001:0000b200       ?_Tidy@?$vector@UTinyHashEntry@@V?$allocator@UTinyHashEntry@@@std@@@std@@AEAAXXZ 000000014000c200 f i Crinkler.obj
 0001:0000b270       ??1?$vector@V?$basic_string@DU?$char_traits@D@std@@V?$allocator@D@2@@std@@V?$allocator@V?$basic_string@DU?$char_traits@D@std@@V?$allocator@D@2@@std@@@2@@std@@QEAA@XZ 000000014000c270 f i Crinkler.obj
 0001:0000b270       ?_Tidy@?$vector@V?$basic_string@DU?$char_traits@D@std@@V?$allocator@D@2@@std@@V?$allocator@V?$basic_string@DU?$char_traits@D@std@@V?$allocator@D@2@@std@@@2@@std@@AEAAXXZ 000000014000c270 f i ImportHandler.obj
 0001:0000b310       ??1Crinkler@@QEAA@XZ       000000014000c310 f   Crinkler.obj
 0001:0000b430       ??1_Interruption_exception@details@Concurrency@@UEAA@XZ 000000014000c430 f i libconcrt:Chores.obj
 0001:0000b430       ??1__non_rtti_object@std@@UEAA@XZ 000000014000c430 f i libvcruntime:rtti.obj
 0001:0000b430       ??1bad_alloc@std@@UEAA@XZ  000000014000c430 f i Crinkler.obj
 0001:0000b430       ??1bad_array_new_length@std@@UEAA@XZ 000000014000c430 f i Crinkler.obj
 0001:0000b430       ??1bad_cast@std@@UEAA@XZ   000000014000c430 f i Crinkler.obj
 0001:0000b430       ??1bad_exception@std@@UEAA@XZ 000000014000c430 f i libvcruntime:frame.obj
 0001:0000b430       ??1bad_function_call@std@@UEAA@XZ 000000014000c430 f i libcpmt:xthrow.obj
 0001:0000b430       ??1context_self_unblock@Concurrency@@UEAA@XZ 000000014000c430 f i libconcrt:Exceptions.obj
 0001:0000b430       ??1context_unblock_unbalanced@Concurrency@@UEAA@XZ 000000014000c430 f i libconcrt:Exceptions.obj
 0001:0000b430       ??1exception@std@@UEAA@XZ  000000014000c430 f i Crinkler.obj
 0001:0000b430       ??1format_error@std@@UEAA@XZ 000000014000c430 f i Crinkler.obj
 0001:0000b430       ??1improper_lock@Concurrency@@UEAA@XZ 000000014000c430 f i libconcrt:rtlocks.obj
 0001:0000b430       ??1improper_scheduler_attach@Concurrency@@UEAA@XZ 000000014000c430 f i libconcrt:SchedulerBase.obj
 0001:0000b430       ??1improper_scheduler_reference@Concurrency@@UEAA@XZ 000000014000c430 f i libconcrt:SchedulerBase.obj
 0001:0000b430       ??1invalid_argument@std@@UEAA@XZ 000000014000c430 f i Crinkler.obj
 0001:0000b430       ??1invalid_multiple_scheduling@Concurrency@@UEAA@XZ 000000014000c430 f i libconcrt:TaskCollection.obj
 0001:0000b430       ??1invalid_operation@Concurrency@@UEAA@XZ 000000014000c430 f i libconcrt:ResourceManager.obj
 0001:0000b430       ??1invalid_oversubscribe_operation@Concurrency@@UEAA@XZ 000000014000c430 f i libconcrt:Exceptions.obj
 0001:0000b430       ??1invalid_scheduler_policy_key@Concurrency@@UEAA@XZ 000000014000c430 f i libconcrt:Exceptions.obj
 0001:0000b430       ??1invalid_scheduler_policy_thread_specification@Concurrency@@UEAA@XZ 000000014000c430 f i libconcrt:Exceptions.obj
 0001:0000b430       ??1invalid_scheduler_policy_value@Concurrency@@UEAA@XZ 000000014000c430 f i libconcrt:Exceptions.obj
 0001:0000b430       ??1length_error@std@@UEAA@XZ 000000014000c430 f i libcpmt:xthrow.obj
 0001:0000b430       ??1missing_wait@Concurrency@@UEAA@XZ 000000014000c430 f i libconcrt:Chores.obj
 0001:0000b430       ??1nested_scheduler_missing_detach@Concurrency@@UEAA@XZ 000000014000c430 f i libconcrt:Exceptions.obj
 0001:0000b430       ??1out_of_range@std@@UEAA@XZ 000000014000c430 f i libcpmt:xthrow.obj
 0001:0000b430       ??1runtime_error@std@@UEAA@XZ 000000014000c430 f i Crinkler.obj
 0001:0000b430       ??1scheduler_resource_allocation_error@Concurrency@@UEAA@XZ 000000014000c430 f i libconcrt:utils.obj
 0001:0000b430       ??1scheduler_worker_creation_error@Concurrency@@UEAA@XZ 000000014000c430 f i libconcrt:Exceptions.obj
 0001:0000b430       ??1system_error@std@@UEAA@XZ 000000014000c430 f i HtmlReport.obj
 0001:0000b450       ??4?$vector@IV?$allocator@I@std@@@std@@QEAAAEAV01@$$QEAV01@@Z 000000014000c450 f i Crinkler.obj
 0001:0000b500       ??E?$_Grapheme_break_property_iterator@D@std@@QEAAAEAV01@XZ 000000014000c500 f i Crinkler.obj
 0001:0000b840       ??R<lambda_1>@?1???$_Fmt_write@DV?$back_insert_iterator@V?$_Fmt_buffer@D@std@@@std@@@std@@YA?AV?$back_insert_iterator@V?$_Fmt_buffer@D@std@@@1@V21@QEBXAEBU?$_Basic_format_specs@D@1@V_Lazy_locale@1@@Z@QEBA@0@Z 000000014000c840 f i Crinkler.obj
 0001:0000b940       ??R<lambda_1>@?1???$_Fmt_write@DV?$back_insert_iterator@V?$_Fmt_buffer@D@std@@@std@@M@std@@YA?AV?$back_insert_iterator@V?$_Fmt_buffer@D@std@@@1@V21@MAEBU?$_Basic_format_specs@D@1@V_Lazy_locale@1@@Z@QEBA@0@Z 000000014000c940 f i Crinkler.obj
 0001:0000b940       ??R<lambda_1>@?1???$_Fmt_write@DV?$back_insert_iterator@V?$_Fmt_buffer@D@std@@@std@@N@std@@YA?AV?$back_insert_iterator@V?$_Fmt_buffer@D@std@@@1@V21@NAEBU?$_Basic_format_specs@D@1@V_Lazy_locale@1@@Z@QEBA@0@Z 000000014000c940 f i Crinkler.obj
 0001:0000b940       ??R<lambda_1>@?1???$_Fmt_write@DV?$back_insert_iterator@V?$_Fmt_buffer@D@std@@@std@@O@std@@YA?AV?$back_insert_iterator@V?$_Fmt_buffer@D@std@@@1@V21@OAEBU?$_Basic_format_specs@D@1@V_Lazy_locale@1@@Z@QEBA@0@Z 000000014000c940 f i Crinkler.obj
 0001:0000bc10       ??R<lambda_1>@?1???$_Write_integral@DV?$back_insert_iterator@V?$_Fmt_buffer@D@std@@@std@@E@std@@YA?AV?$back_insert_iterator@V?$_Fmt_buffer@D@std@@@1@V21@EU?$_Basic_format_specs@D@1@V_Lazy_locale@1@@Z@QEBA@0@Z 000000014000cc10 f i Crinkler.obj
 0001:0000bc10       ??R<lambda_1>@?1???$_Write_integral@DV?$back_insert_iterator@V?$_Fmt_buffer@D@std@@@std@@I@std@@YA?AV?$back_insert_iterator@V?$_Fmt_buffer@D@std@@@1@V21@IU?$_Basic_format_specs@D@1@V_Lazy_locale@1@@Z@QEBA@0@Z 000000014000cc10 f i Crinkler.obj
 0001:0000bc10       ??R<lambda_1>@?1???$_Write_integral@DV?$back_insert_iterator@V?$_Fmt_buffer@D@std@@@std@@_K@std@@YA?AV?$back_insert_iterator@V?$_Fmt_buffer@D@std@@@1@V21@_KU?$_Basic_format_specs@D@1@V_Lazy_locale@1@@Z@QEBA@0@Z 000000014000cc10 f i Crinkler.obj
 0001:0000bdb0       ??R<lambda_1>@?1???$_Write_integral@DV?$back_insert_iterator@V?$_Fmt_buffer@D@std@@@std@@H@std@@YA?AV?$back_insert_iterator@V?$_Fmt_buffer@D@std@@@1@V21@HU?$_Basic_format_specs@D@1@V_Lazy_locale@1@@Z@QEBA@0@Z 000000014000cdb0 f i Crinkler.obj
 0001:0000bf50       ??R<lambda_1>@?1???$_Write_integral@DV?$back_insert_iterator@V?$_Fmt_buffer@D@std@@@std@@_J@std@@YA?AV?$back_insert_iterator@V?$_Fmt_buffer@D@std@@@1@V21@_JU?$_Basic_format_specs@D@1@V_Lazy_locale@1@@Z@QEBA@0@Z 000000014000cf50 f i Crinkler.obj
 0001:0000ca40       ??R?$_Arg_formatter@V?$back_insert_iterator@V?$_Fmt_buffer@D@std@@@std@@D@std@@QEAA?AV?$back_insert_iterator@V?$_Fmt_buffer@D@std@@@1@Vhandle@?$basic_format_arg@V?$basic_format_context@V?$back_insert_iterator@V?$_Fmt_buffer@D@std@@@std@@D@std@@@1@@Z 000000014000da40 f i Crinkler.obj
 0001:0000cf90       ??_E?$numpunct@D@std@@MEAAPEAXI@Z 000000014000df90 f i Crinkler.obj
 0001:0000cf90       ??_G?$numpunct@D@std@@MEAAPEAXI@Z 000000014000df90 f i Crinkler.obj
 0001:0000d060       ??_ECompositeProgressBar@@UEAAPEAXI@Z 000000014000e060 f i Crinkler.obj
 0001:0000d060       ??_GCompositeProgressBar@@UEAAPEAXI@Z 000000014000e060 f i Crinkler.obj
 0001:0000d0b0       ??_GCompressionReportRecord@@QEAAPEAXI@Z 000000014000e0b0 f i Crinkler.obj
 0001:0000d190       ??_EConsoleProgressBar@@UEAAPEAXI@Z 000000014000e190 f i Crinkler.obj
 0001:0000d190       ??_GConsoleProgressBar@@UEAAPEAXI@Z 000000014000e190 f i Crinkler.obj
 0001:0000d1c0       ??_EProgressBar@@UEAAPEAXI@Z 000000014000e1c0 f i Crinkler.obj
 0001:0000d1c0       ??_GProgressBar@@UEAAPEAXI@Z 000000014000e1c0 f i Crinkler.obj
 0001:0000d1f0       ??_GReuse@@QEAAPEAXI@Z     000000014000e1f0 f i Crinkler.obj
 0001:0000d2e0       ??_EWindowProgressBar@@UEAAPEAXI@Z 000000014000e2e0 f i Crinkler.obj
 0001:0000d2e0       ??_GWindowProgressBar@@UEAAPEAXI@Z 000000014000e2e0 f i Crinkler.obj
 0001:0000d330       ??_E_Chore@details@Concurrency@@MEAAPEAXI@Z 000000014000e330 f i Crinkler.obj
 0001:0000d330       ??_G_Chore@details@Concurrency@@MEAAPEAXI@Z 000000014000e330 f i Crinkler.obj
 0001:0000d360       ??_E_Facet_base@std@@UEAAPEAXI@Z 000000014000e360 f i Crinkler.obj
 0001:0000d360       ??_G_Facet_base@std@@UEAAPEAXI@Z 000000014000e360 f i Crinkler.obj
 0001:0000d390       ??_E_UnrealizedChore@details@Concurrency@@UEAAPEAXI@Z 000000014000e390 f i Crinkler.obj
 0001:0000d390       ??_G_UnrealizedChore@details@Concurrency@@UEAAPEAXI@Z 000000014000e390 f i Crinkler.obj
 0001:0000d3d0       ??_E_Interruption_exception@details@Concurrency@@UEAAPEAXI@Z 000000014000e3d0 f i libconcrt:Chores.obj
 0001:0000d3d0       ??_E__non_rtti_object@std@@UEAAPEAXI@Z 000000014000e3d0 f i libvcruntime:rtti.obj
 0001:0000d3d0       ??_Ebad_alloc@std@@UEAAPEAXI@Z 000000014000e3d0 f i Crinkler.obj
 0001:0000d3d0       ??_Ebad_array_new_length@std@@UEAAPEAXI@Z 000000014000e3d0 f i Crinkler.obj
 0001:0000d3d0       ??_Ebad_cast@std@@UEAAPEAXI@Z 000000014000e3d0 f i Crinkler.obj
 0001:0000d3d0       ??_Ebad_exception@std@@UEAAPEAXI@Z 000000014000e3d0 f i libvcruntime:frame.obj
 0001:0000d3d0       ??_Ebad_function_call@std@@UEAAPEAXI@Z 000000014000e3d0 f i libcpmt:xthrow.obj
 0001:0000d3d0       ??_Ebad_typeid@std@@UEAAPEAXI@Z 000000014000e3d0 f i libvcruntime:rtti.obj
 0001:0000d3d0       ??_Econtext_self_unblock@Concurrency@@UEAAPEAXI@Z 000000014000e3d0 f i libconcrt:Exceptions.obj
 0001:0000d3d0       ??_Econtext_unblock_unbalanced@Concurrency@@UEAAPEAXI@Z 000000014000e3d0 f i libconcrt:Exceptions.obj
 0001:0000d3d0       ??_Eexception@std@@UEAAPEAXI@Z 000000014000e3d0 f i Crinkler.obj
 0001:0000d3d0       ??_Eformat_error@std@@UEAAPEAXI@Z 000000014000e3d0 f i Crinkler.obj
 0001:0000d3d0       ??_Eimproper_lock@Concurrency@@UEAAPEAXI@Z 000000014000e3d0 f i libconcrt:rtlocks.obj
 0001:0000d3d0       ??_Eimproper_scheduler_attach@Concurrency@@UEAAPEAXI@Z 000000014000e3d0 f i libconcrt:SchedulerBase.obj
 0001:0000d3d0       ??_Eimproper_scheduler_reference@Concurrency@@UEAAPEAXI@Z 000000014000e3d0 f i libconcrt:SchedulerBase.obj
 0001:0000d3d0       ??_Einvalid_argument@std@@UEAAPEAXI@Z 000000014000e3d0 f i Crinkler.obj
 0001:0000d3d0       ??_Einvalid_multiple_scheduling@Concurrency@@UEAAPEAXI@Z 000000014000e3d0 f i libconcrt:TaskCollection.obj
 0001:0000d3d0       ??_Einvalid_operation@Concurrency@@UEAAPEAXI@Z 000000014000e3d0 f i libconcrt:ResourceManager.obj
 0001:0000d3d0       ??_Einvalid_oversubscribe_operation@Concurrency@@UEAAPEAXI@Z 000000014000e3d0 f i libconcrt:Exceptions.obj
 0001:0000d3d0       ??_Einvalid_scheduler_policy_key@Concurrency@@UEAAPEAXI@Z 000000014000e3d0 f i libconcrt:Exceptions.obj
 0001:0000d3d0       ??_Einvalid_scheduler_policy_thread_specification@Concurrency@@UEAAPEAXI@Z 000000014000e3d0 f i libconcrt:Exceptions.obj
 0001:0000d3d0       ??_Einvalid_scheduler_policy_value@Concurrency@@UEAAPEAXI@Z 000000014000e3d0 f i libconcrt:Exceptions.obj
 0001:0000d3d0       ??_Elength_error@std@@UEAAPEAXI@Z 000000014000e3d0 f i libcpmt:xthrow.obj
 0001:0000d3d0       ??_Elogic_error@std@@UEAAPEAXI@Z 000000014000e3d0 f i Crinkler.obj
 0001:0000d3d0       ??_Emissing_wait@Concurrency@@UEAAPEAXI@Z 000000014000e3d0 f i libconcrt:Chores.obj
 0001:0000d3d0       ??_Enested_scheduler_missing_detach@Concurrency@@UEAAPEAXI@Z 000000014000e3d0 f i libconcrt:Exceptions.obj
 0001:0000d3d0       ??_Eout_of_range@std@@UEAAPEAXI@Z 000000014000e3d0 f i libcpmt:xthrow.obj
 0001:0000d3d0       ??_Eruntime_error@std@@UEAAPEAXI@Z 000000014000e3d0 f i Crinkler.obj
 0001:0000d3d0       ??_G_Interruption_exception@details@Concurrency@@UEAAPEAXI@Z 000000014000e3d0 f i libconcrt:Chores.obj
 0001:0000d3d0       ??_G__non_rtti_object@std@@UEAAPEAXI@Z 000000014000e3d0 f i libvcruntime:rtti.obj
 0001:0000d3d0       ??_Gbad_alloc@std@@UEAAPEAXI@Z 000000014000e3d0 f i Crinkler.obj
 0001:0000d3d0       ??_Gbad_array_new_length@std@@UEAAPEAXI@Z 000000014000e3d0 f i Crinkler.obj
 0001:0000d3d0       ??_Gbad_cast@std@@UEAAPEAXI@Z 000000014000e3d0 f i Crinkler.obj
 0001:0000d3d0       ??_Gbad_exception@std@@UEAAPEAXI@Z 000000014000e3d0 f i libvcruntime:frame.obj
 0001:0000d3d0       ??_Gbad_function_call@std@@UEAAPEAXI@Z 000000014000e3d0 f i libcpmt:xthrow.obj
 0001:0000d3d0       ??_Gbad_typeid@std@@UEAAPEAXI@Z 000000014000e3d0 f i libvcruntime:rtti.obj
 0001:0000d3d0       ??_Gcontext_self_unblock@Concurrency@@UEAAPEAXI@Z 000000014000e3d0 f i libconcrt:Exceptions.obj
 0001:0000d3d0       ??_Gcontext_unblock_unbalanced@Concurrency@@UEAAPEAXI@Z 000000014000e3d0 f i libconcrt:Exceptions.obj
 0001:0000d3d0       ??_Gexception@std@@UEAAPEAXI@Z 000000014000e3d0 f i Crinkler.obj
 0001:0000d3d0       ??_Gformat_error@std@@UEAAPEAXI@Z 000000014000e3d0 f i Crinkler.obj
 0001:0000d3d0       ??_Gimproper_lock@Concurrency@@UEAAPEAXI@Z 000000014000e3d0 f i libconcrt:rtlocks.obj
 0001:0000d3d0       ??_Gimproper_scheduler_attach@Concurrency@@UEAAPEAXI@Z 000000014000e3d0 f i libconcrt:SchedulerBase.obj
 0001:0000d3d0       ??_Gimproper_scheduler_reference@Concurrency@@UEAAPEAXI@Z 000000014000e3d0 f i libconcrt:SchedulerBase.obj
 0001:0000d3d0       ??_Ginvalid_argument@std@@UEAAPEAXI@Z 000000014000e3d0 f i Crinkler.obj
 0001:0000d3d0       ??_Ginvalid_multiple_scheduling@Concurrency@@UEAAPEAXI@Z 000000014000e3d0 f i libconcrt:TaskCollection.obj
 0001:0000d3d0       ??_Ginvalid_operation@Concurrency@@UEAAPEAXI@Z 000000014000e3d0 f i libconcrt:ResourceManager.obj
 0001:0000d3d0       ??_Ginvalid_oversubscribe_operation@Concurrency@@UEAAPEAXI@Z 000000014000e3d0 f i libconcrt:Exceptions.obj
 0001:0000d3d0       ??_Ginvalid_scheduler_policy_key@Concurrency@@UEAAPEAXI@Z 000000014000e3d0 f i libconcrt:Exceptions.obj
 0001:0000d3d0       ??_Ginvalid_scheduler_policy_thread_specification@Concurrency@@UEAAPEAXI@Z 000000014000e3d0 f i libconcrt:Exceptions.obj
 0001:0000d3d0       ??_Ginvalid_scheduler_policy_value@Concurrency@@UEAAPEAXI@Z 000000014000e3d0 f i libconcrt:Exceptions.obj
 0001:0000d3d0       ??_Glength_error@std@@UEAAPEAXI@Z 000000014000e3d0 f i libcpmt:xthrow.obj
 0001:0000d3d0       ??_Glogic_error@std@@UEAAPEAXI@Z 000000014000e3d0 f i Crinkler.obj
 0001:0000d3d0       ??_Gmissing_wait@Concurrency@@UEAAPEAXI@Z 000000014000e3d0 f i libconcrt:Chores.obj
 0001:0000d3d0       ??_Gnested_scheduler_missing_detach@Concurrency@@UEAAPEAXI@Z 000000014000e3d0 f i libconcrt:Exceptions.obj
 0001:0000d3d0       ??_Gout_of_range@std@@UEAAPEAXI@Z 000000014000e3d0 f i libcpmt:xthrow.obj
 0001:0000d3d0       ??_Gruntime_error@std@@UEAAPEAXI@Z 000000014000e3d0 f i Crinkler.obj
 0001:0000d420       ?AddExport@Crinkler@@QEAAXVExport@@@Z 000000014000e420 f i Crinkler.obj
 0001:0000d690       ?AddRuntimeLibrary@Crinkler@@QEAAXXZ 000000014000e690 f   Crinkler.obj
 0001:0000d720       ?CompressParts4k@Crinkler@@AEAAHAEAVPartList@@PEAVHunk@@PEAEHHPEAH@Z 000000014000e720 f   Crinkler.obj
 0001:0000d960       ?CreateDynamicInitializerHunk@Crinkler@@AEAAPEAVHunk@@XZ 000000014000e960 f   Crinkler.obj
 0001:0000dc90       ?CreateModelHunk4k@Crinkler@@AEAAPEAVHunk@@AEAVPartList@@@Z 000000014000ec90 f   Crinkler.obj
 0001:0000dde0       ??1critical_section@Concurrency@@QEAA@XZ 000000014000ede0 f i libconcrt:rtlocks.obj
 0001:0000dde0       ?CreateNodeTopology@ResourceManager@details@Concurrency@@UEAAXIPEAIPEAPEAI0@Z 000000014000ede0 f i libconcrt:ResourceManager.obj
 0001:0000dde0       ?Deinit@ProgressBar@@UEAAXXZ 000000014000ede0 f i Crinkler.obj
 0001:0000dde0       ?Destroy@WaitAnyBlock@details@Concurrency@@UEAAXXZ 000000014000ede0 f i libconcrt:event.obj
 0001:0000dde0       ?EndTask@ConsoleProgressBar@@UEAAXXZ 000000014000ede0 f i ConsoleProgressBar.obj
 0001:0000dde0       ?EndTask@WindowProgressBar@@UEAAXXZ 000000014000ede0 f i WindowProgressBar.obj
 0001:0000dde0       ?Init@ProgressBar@@UEAAXXZ 000000014000ede0 f i Crinkler.obj
 0001:0000dde0       ?NotifyAffinitizedWork@FairScheduleGroupSegment@details@Concurrency@@UEAAXXZ 000000014000ede0 f i libconcrt:SchedulerBase.obj
 0001:0000dde0       ?NotifyResourcesExternallyBusy@ThreadScheduler@details@Concurrency@@UEAAXPEAPEAUIVirtualProcessorRoot@3@I@Z 000000014000ede0 f i libconcrt:ThreadScheduler.obj
 0001:0000dde0       ?NotifyResourcesExternallyIdle@ThreadScheduler@details@Concurrency@@UEAAXPEAPEAUIVirtualProcessorRoot@3@I@Z 000000014000ede0 f i libconcrt:ThreadScheduler.obj
 0001:0000dde0       ?RMAwaken@InternalContextBase@details@Concurrency@@EEAAXXZ 000000014000ede0 f i libconcrt:InternalContextBase.obj
 0001:0000dde0       ?VirtualProcessorActiveNotification@SchedulerBase@details@Concurrency@@MEAAX_NJ@Z 000000014000ede0 f i libconcrt:SchedulerBase.obj
 0001:0000dde0       ?__empty_global_delete@@YAXPEAX_K@Z 000000014000ede0 f i Crinkler.obj
 0001:0000dde0       ?__global_delete@@YAXPEAX_K@Z 000000014000ede0 f i Crinkler.obj
 0001:0000dde0       __sanitizer_annotate_contiguous_container 000000014000ede0 f i libcpmt:asan_noop.obj
 0001:0000dde0       __sanitizer_annotate_contiguous_container_default 000000014000ede0 f i libcpmt:asan_noop.obj
 0001:0000dde0       _guard_check_icall_nop     000000014000ede0 f i LIBCMT:guard_support.obj
 0001:0000dde0       _initialize_denormal_control 000000014000ede0 f i LIBCMT:denormal_control.obj
 0001:0000dde0       _initialize_invalid_parameter_handler 000000014000ede0 f i LIBCMT:invalid_parameter_handler.obj
 0001:0000ddf0       ?DeinitProgressBar@Crinkler@@AEAAXXZ 000000014000edf0 f   Crinkler.obj
 0001:0000de00       ?EstimateModels@Crinkler@@AEAAHAEAVPartList@@PEAVHunk@@_N2@Z 000000014000ee00 f   Crinkler.obj
 0001:0000e1b0       ?EvaluatePartsSize4k@Crinkler@@AEAAHAEAVPartList@@PEAVHunk@@@Z 000000014000f1b0 f   Crinkler.obj
 0001:0000e580       ?FinalLink@Crinkler@@AEAAPEAVHunk@@AEAVPartList@@PEAV2@111PEAEHH@Z 000000014000f580 f   Crinkler.obj
 0001:0000e860       ?FindEntryPoint@Crinkler@@AEAAPEAVSymbol@@XZ 000000014000f860 f   Crinkler.obj
 0001:0000e940       ?GetEntrySymbolName@Crinkler@@AEBA?AV?$basic_string@DU?$char_traits@D@std@@V?$allocator@D@2@@std@@XZ 000000014000f940 f   Crinkler.obj
 0001:0000ea20       ?InitProgressBar@Crinkler@@AEAAXXZ 000000014000fa20 f   Crinkler.obj
 0001:0000ea80       ?Link@Crinkler@@QEAAXPEBD@Z 000000014000fa80 f   Crinkler.obj
 0001:0000fbe0       ?Load@Crinkler@@QEAAXPEBD@Z 0000000140010be0 f   Crinkler.obj
 0001:0000fc20       ?Load@Crinkler@@QEAAXPEBDH0@Z 0000000140010c20 f   Crinkler.obj
 0001:0000fc50       ?LoadImportCode@Crinkler@@AEAAX_N000@Z 0000000140010c50 f   Crinkler.obj
 0001:0000fd80       ?OptimizeHashsize@Crinkler@@AEAAHAEAVPartList@@PEAVHunk@@HH@Z 0000000140010d80 f   Crinkler.obj
 0001:00010540       ?OverrideAlignments@Crinkler@@AEAAXAEAVPart@@@Z 0000000140011540 f   Crinkler.obj
 0001:000105d0       ?PrintOptions@Crinkler@@QEAAXV?$back_insert_iterator@V?$vector@DV?$allocator@D@std@@@std@@@std@@@Z 00000001400115d0 f   Crinkler.obj
 0001:00010c80       ?Recompress@Crinkler@@QEAAXPEBD0@Z 0000000140011c80 f   Crinkler.obj
 0001:00012770       ?RemoveUnreferencedHunks@Crinkler@@AEAAXPEAVHunk@@@Z 0000000140013770 f   Crinkler.obj
 0001:00012ee0       ?ReplaceDlls@Crinkler@@AEAAXAEAVPart@@@Z 0000000140013ee0 f   Crinkler.obj
 0001:00013170       ?SetHeaderConstants1k@Crinkler@@AEAAXPEAVHunk@@0HHHIH@Z 0000000140014170 f   Crinkler.obj
 0001:000132c0       ?SetHeaderConstants4k@Crinkler@@AEAAXPEAVHunk@@0AEAVPartList@@HHH@Z 00000001400142c0 f   Crinkler.obj
 0001:00013470       ?SetHeaderConstantsCommon@Crinkler@@AEAAXPEAVHunk@@H@Z 0000000140014470 f   Crinkler.obj
 0001:00013590       ?SetHeaderSaturation@Crinkler@@AEAAXPEAVHunk@@@Z 0000000140014590 f   Crinkler.obj
 0001:00013770       ?_Change_array@?$vector@HV?$allocator@H@std@@@std@@AEAAXQEAH_K1@Z 0000000140014770 f i Crinkler.obj
 0001:00013770       ?_Change_array@?$vector@IV?$allocator@I@std@@@std@@AEAAXQEAI_K1@Z 0000000140014770 f i Compressor:CompressionStream.obj
 0001:000139f0       ?_Deallocate_for_capacity@?$basic_string@DU?$char_traits@D@std@@V?$allocator@D@2@@std@@CAXAEAV?$allocator@D@2@QEAD_K@Z 00000001400149f0 f i Crinkler.obj
 0001:00013a50       ?_Decode_utf@std@@YA?AU?$_Decode_result@D@1@PEBD0AEA_U@Z 0000000140014a50 f i Crinkler.obj
 0001:00013c10       ?_Decref@facet@locale@std@@UEAAPEAV_Facet_base@3@XZ 0000000140014c10 f i Crinkler.obj
 0001:00013c20       ?_Delete_this@?$_Func_impl_no_alloc@P6A_JXZ_J$$V@std@@EEAAX_N@Z 0000000140014c20 f   Compressor:CompressionStateEvaluator.obj
 0001:00014180       ?_Get@?$_Func_impl_no_alloc@P6A_JXZ_J$$V@std@@EEBAPEBXXZ 0000000140015180 f   Compressor:CompressionStateEvaluator.obj
 0001:00014190       ?_Getcat@?$numpunct@D@std@@SA_KPEAPEBVfacet@locale@2@PEBV42@@Z 0000000140015190 f i Crinkler.obj
 0001:000143b0       ?_Grow@?$_Fmt_iterator_buffer@V?$back_insert_iterator@V?$vector@DV?$allocator@D@std@@@std@@@std@@DU_Fmt_buffer_traits@2@@std@@EEAAX_K@Z 00000001400153b0 f i Crinkler.obj
 0001:00014410       ?_Incref@facet@locale@std@@UEAAXXZ 0000000140015410 f i Crinkler.obj
 0001:00014420       ?_Insert_node@?$_Tree_val@U?$_Tree_simple_types@U?$pair@$$CBHH@std@@@std@@@std@@QEAAPEAU?$_Tree_node@U?$pair@$$CBHH@std@@PEAX@2@U?$_Tree_id@PEAU?$_Tree_node@U?$pair@$$CBHH@std@@PEAX@std@@@2@QEAU32@@Z 0000000140015420 f i Export.obj
 0001:00014420       ?_Insert_node@?$_Tree_val@U?$_Tree_simple_types@U?$pair@$$CBHPEAVSymbol@@@std@@@std@@@std@@QEAAPEAU?$_Tree_node@U?$pair@$$CBHPEAVSymbol@@@std@@PEAX@2@U?$_Tree_id@PEAU?$_Tree_node@U?$pair@$$CBHPEAVSymbol@@@std@@PEAX@std@@@2@QEAU32@@Z 0000000140015420 f i Hunk.obj
 0001:00014420       ?_Insert_node@?$_Tree_val@U?$_Tree_simple_types@U?$pair@$$CBV?$basic_string@DU?$char_traits@D@std@@V?$allocator@D@2@@std@@H@std@@@std@@@std@@QEAAPEAU?$_Tree_node@U?$pair@$$CBV?$basic_string@DU?$char_traits@D@std@@V?$allocator@D@2@@std@@H@std@@PEAX@2@U?$_Tree_id@PEAU?$_Tree_node@U?$pair@$$CBV?$basic_string@DU?$char_traits@D@std@@V?$allocator@D@2@@std@@H@std@@PEAX@std@@@2@QEAU32@@Z 0000000140015420 f i CmdParamFlags.obj
 0001:00014420       ?_Insert_node@?$_Tree_val@U?$_Tree_simple_types@U?$pair@$$CBV?$basic_string@DU?$char_traits@D@std@@V?$allocator@D@2@@std@@PEAVMemoryFile@@@std@@@std@@@std@@QEAAPEAU?$_Tree_node@U?$pair@$$CBV?$basic_string@DU?$char_traits@D@std@@V?$allocator@D@2@@std@@PEAVMemoryFile@@@std@@PEAX@2@U?$_Tree_id@PEAU?$_Tree_node@U?$pair@$$CBV?$basic_string@DU?$char_traits@D@std@@V?$allocator@D@2@@std@@PEAVMemoryFile@@@std@@PEAX@std@@@2@QEAU32@@Z 0000000140015420 f i main.obj
 0001:00014420       ?_Insert_node@?$_Tree_val@U?$_Tree_simple_types@U?$pair@$$CBV?$basic_string@DU?$char_traits@D@std@@V?$allocator@D@2@@std@@PEAVModelList4k@@@std@@@std@@@std@@QEAAPEAU?$_Tree_node@U?$pair@$$CBV?$basic_string@DU?$char_traits@D@std@@V?$allocator@D@2@@std@@PEAVModelList4k@@@std@@PEAX@2@U?$_Tree_id@PEAU?$_Tree_node@U?$pair@$$CBV?$basic_string@DU?$char_traits@D@std@@V?$allocator@D@2@@std@@PEAVModelList4k@@@std@@PEAX@std@@@2@QEAU32@@Z 0000000140015420 f i Reuse.obj
 0001:00014420       ?_Insert_node@?$_Tree_val@U?$_Tree_simple_types@U?$pair@$$CBV?$basic_string@DU?$char_traits@D@std@@V?$allocator@D@2@@std@@PEAVSymbol@@@std@@@std@@@std@@QEAAPEAU?$_Tree_node@U?$pair@$$CBV?$basic_string@DU?$char_traits@D@std@@V?$allocator@D@2@@std@@PEAVSymbol@@@std@@PEAX@2@U?$_Tree_id@PEAU?$_Tree_node@U?$pair@$$CBV?$basic_string@DU?$char_traits@D@std@@V?$allocator@D@2@@std@@PEAVSymbol@@@std@@PEAX@std@@@2@QEAU32@@Z 0000000140015420 f i Hunk.obj
 0001:00014420       ?_Insert_node@?$_Tree_val@U?$_Tree_simple_types@U?$pair@$$CBV?$basic_string@DU?$char_traits@D@std@@V?$allocator@D@2@@std@@V12@@std@@@std@@@std@@QEAAPEAU?$_Tree_node@U?$pair@$$CBV?$basic_string@DU?$char_traits@D@std@@V?$allocator@D@2@@std@@V12@@std@@PEAX@2@U?$_Tree_id@PEAU?$_Tree_node@U?$pair@$$CBV?$basic_string@DU?$char_traits@D@std@@V?$allocator@D@2@@std@@V12@@std@@PEAX@std@@@2@QEAU32@@Z 0000000140015420 f i HtmlReport.obj
 0001:00014420       ?_Insert_node@?$_Tree_val@U?$_Tree_simple_types@V?$basic_string@DU?$char_traits@D@std@@V?$allocator@D@2@@std@@@std@@@std@@QEAAPEAU?$_Tree_node@V?$basic_string@DU?$char_traits@D@std@@V?$allocator@D@2@@std@@PEAX@2@U?$_Tree_id@PEAU?$_Tree_node@V?$basic_string@DU?$char_traits@D@std@@V?$allocator@D@2@@std@@PEAX@std@@@2@QEAU32@@Z 0000000140015420 f i Crinkler.obj
 0001:00014420       ?_Insert_node@?$_Tree_val@U?$_Tree_simple_types@VExport@@@std@@@std@@QEAAPEAU?$_Tree_node@VExport@@PEAX@2@U?$_Tree_id@PEAU?$_Tree_node@VExport@@PEAX@std@@@2@QEAU32@@Z 0000000140015420 f i Crinkler.obj
 0001:00014680       ?_On_replacement_field@?$_Format_handler@D@std@@QEAAX_KPEBD@Z 0000000140015680 f i Crinkler.obj
 0001:00014730       ?_On_text@?$_Format_handler@D@std@@QEAAXPEBD0@Z 0000000140015730 f i Crinkler.obj
 0001:000147c0       ?_Receive_range@?$_Worker_proxy@K@Concurrency@@QEAA_NPEAV?$_Range@K@2@@Z 00000001400157c0 f i Crinkler.obj
 0001:00014980       ?_SpinOnce@?$_SpinWait@$00@details@Concurrency@@QEAA_NXZ 0000000140015980 f i Crinkler.obj
 0001:00014b80       ?_Throw_bad_array_new_length@std@@YAXXZ 0000000140015b80 f i Crinkler.obj
 0001:00014b80       ?__scrt_throw_std_bad_array_new_length@@YAXXZ 0000000140015b80 f i LIBCMT:throw_bad_alloc.obj
 0001:00014ba0       ?_Throw_bad_cast@std@@YAXXZ 0000000140015ba0 f i Crinkler.obj
 0001:00014bc0       ?_Throw_format_error@std@@YAXPEBD@Z 0000000140015bc0 f i Crinkler.obj
 0001:00014bf0       ?_Throw_tree_length_error@std@@YAXXZ 0000000140015bf0 f i Crinkler.obj
 0001:00014c10       ??1?$vector@DV?$allocator@D@std@@@std@@QEAA@XZ 0000000140015c10 f i ImportHandler.obj
 0001:00014c10       ?_Tidy@?$vector@EV?$allocator@E@std@@@std@@AEAAXXZ 0000000140015c10 f i Crinkler.obj
 0001:00014c80       ?_Tidy@?$vector@HV?$allocator@H@std@@@std@@AEAAXXZ 0000000140015c80 f i Crinkler.obj
 0001:00014c80       ?_Tidy@?$vector@IV?$allocator@I@std@@@std@@AEAAXXZ 0000000140015c80 f i Crinkler.obj
 0001:00014cf0       ?_Tidy@?$vector@UHashBits@@V?$allocator@UHashBits@@@std@@@std@@AEAAXXZ 0000000140015cf0 f i Crinkler.obj
 0001:00014dc0       ??1?$basic_string@DU?$char_traits@D@std@@V?$allocator@D@2@@std@@QEAA@XZ 0000000140015dc0 f i Export.obj
 0001:00014dc0       ?_Tidy_deallocate@?$basic_string@DU?$char_traits@D@std@@V?$allocator@D@2@@std@@AEAAXXZ 0000000140015dc0 f i Crinkler.obj
 0001:00014e40       ?_Xlen_string@std@@YAXXZ   0000000140015e40 f i Crinkler.obj
 0001:00014e60       ?_Xlength@?$vector@DV?$allocator@D@std@@@std@@CAXXZ 0000000140015e60 f i Crinkler.obj
 0001:00014e60       ?_Xlength@?$vector@EV?$allocator@E@std@@@std@@CAXXZ 0000000140015e60 f i Crinkler.obj
 0001:00014e60       ?_Xlength@?$vector@HV?$allocator@H@std@@@std@@CAXXZ 0000000140015e60 f i Crinkler.obj
 0001:00014e60       ?_Xlength@?$vector@IV?$allocator@I@std@@@std@@CAXXZ 0000000140015e60 f i ImportHandler.obj
 0001:00014e60       ?_Xlength@?$vector@PEAUCompressionReportRecord@@V?$allocator@PEAUCompressionReportRecord@@@std@@@std@@CAXXZ 0000000140015e60 f i Hunk.obj
 0001:00014e60       ?_Xlength@?$vector@PEAVCmdParam@@V?$allocator@PEAVCmdParam@@@std@@@std@@CAXXZ 0000000140015e60 f i CmdLineInterface.obj
 0001:00014e60       ?_Xlength@?$vector@PEAVHunk@@V?$allocator@PEAVHunk@@@std@@@std@@CAXXZ 0000000140015e60 f i Crinkler.obj
 0001:00014e60       ?_Xlength@?$vector@PEAVHunkLoader@@V?$allocator@PEAVHunkLoader@@@std@@@std@@CAXXZ 0000000140015e60 f i MultiLoader.obj
 0001:00014e60       ?_Xlength@?$vector@PEAVModelList4k@@V?$allocator@PEAVModelList4k@@@std@@@std@@CAXXZ 0000000140015e60 f i Crinkler.obj
 0001:00014e60       ?_Xlength@?$vector@PEAVPart@@V?$allocator@PEAVPart@@@std@@@std@@CAXXZ 0000000140015e60 f i PartList.obj
 0001:00014e60       ?_Xlength@?$vector@PEAVProgressBar@@V?$allocator@PEAVProgressBar@@@std@@@std@@CAXXZ 0000000140015e60 f i CompositeProgressBar.obj
 0001:00014e60       ?_Xlength@?$vector@PEAVSymbol@@V?$allocator@PEAVSymbol@@@std@@@std@@CAXXZ 0000000140015e60 f i Crinkler.obj
 0001:00014e60       ?_Xlength@?$vector@PEBDV?$allocator@PEBD@std@@@std@@CAXXZ 0000000140015e60 f i CoffLibraryLoader.obj
 0001:00014e60       ?_Xlength@?$vector@U?$pair@PEADH@std@@V?$allocator@U?$pair@PEADH@std@@@2@@std@@CAXXZ 0000000140015e60 f i Export.obj
 0001:00014e60       ?_Xlength@?$vector@U?$pair@V?$basic_string@DU?$char_traits@D@std@@V?$allocator@D@2@@std@@V12@@std@@V?$allocator@U?$pair@V?$basic_string@DU?$char_traits@D@std@@V?$allocator@D@2@@std@@V12@@std@@@2@@std@@CAXXZ 0000000140015e60 f i CmdParamMultiAssign.obj
 0001:00014e60       ?_Xlength@?$vector@UHashBits@@V?$allocator@UHashBits@@@std@@@std@@CAXXZ 0000000140015e60 f i Crinkler.obj
 0001:00014e60       ?_Xlength@?$vector@URelocation@@V?$allocator@URelocation@@@std@@@std@@CAXXZ 0000000140015e60 f i Hunk.obj
 0001:00014e60       ?_Xlength@?$vector@V?$basic_string@DU?$char_traits@D@std@@V?$allocator@D@2@@std@@V?$allocator@V?$basic_string@DU?$char_traits@D@std@@V?$allocator@D@2@@std@@@2@@std@@CAXXZ 0000000140015e60 f i ImportHandler.obj
 0001:00014e60       ?_Xlength@?$vector@V?$vector@PEAVHunk@@V?$allocator@PEAVHunk@@@std@@@std@@V?$allocator@V?$vector@PEAVHunk@@V?$allocator@PEAVHunk@@@std@@@std@@@2@@std@@CAXXZ 0000000140015e60 f i Reuse.obj
 0001:00014e60       ?_Xlength@?$vector@VReusePart@@V?$allocator@VReusePart@@@std@@@std@@CAXXZ 0000000140015e60 f i Reuse.obj
 0001:00014e80       ?__append_d_digits@std@@YAXIIQEAD@Z 0000000140015e80 f i Crinkler.obj
 0001:00014f90       ?__d2d@std@@YA?AU__floating_decimal_64@1@_KI@Z 0000000140015f90 f i Crinkler.obj
 0001:00015530       ?__d2exp_buffered_n@std@@YA?AUto_chars_result@1@PEADQEADNI@Z 0000000140016530 f i Crinkler.obj
 0001:00015e20       ?__decimalLength9@std@@YAII@Z 0000000140016e20 f i Crinkler.obj
 0001:00015e90       ?__f2d@std@@YA?AU__floating_decimal_32@1@II@Z 0000000140016e90 f i Crinkler.obj
 0001:000163e0       ?__mulShift_mod1e9@std@@YAI_KQEB_KH@Z 00000001400173e0 f i Crinkler.obj
 0001:000164b0       ?__multipleOfPowerOf5@std@@YA_NII@Z 00000001400174b0 f i Crinkler.obj
 0001:000164f0       ?__multipleOfPowerOf5@std@@YA_N_KI@Z 00000001400174f0 f i Crinkler.obj
 0001:00016550       ?append@?$basic_string@DU?$char_traits@D@std@@V?$allocator@D@2@@std@@QEAAAEAV12@QEBD_K@Z 0000000140017550 f i Crinkler.obj
 0001:000165e0       ?assign@?$basic_string@DU?$char_traits@D@std@@V?$allocator@D@2@@std@@QEAAAEAV12@QEBD_K@Z 00000001400175e0 f i Crinkler.obj
 0001:00016740       ?do_decimal_point@?$numpunct@D@std@@MEBADXZ 0000000140017740 f i Crinkler.obj
 0001:00016750       ?do_falsename@?$numpunct@D@std@@MEBA?AV?$basic_string@DU?$char_traits@D@std@@V?$allocator@D@2@@2@XZ 0000000140017750 f i Crinkler.obj
 0001:000167a0       ?do_grouping@?$numpunct@D@std@@MEBA?AV?$basic_string@DU?$char_traits@D@std@@V?$allocator@D@2@@2@XZ 00000001400177a0 f i Crinkler.obj
 0001:000167f0       ?do_thousands_sep@?$numpunct@D@std@@MEBADXZ 00000001400177f0 f i Crinkler.obj
 0001:00016800       ?do_truename@?$numpunct@D@std@@MEBA?AV?$basic_string@DU?$char_traits@D@std@@V?$allocator@D@2@@2@XZ 0000000140017800 f i Crinkler.obj
 0001:00016850       ?push_back@?$vector@HV?$allocator@H@std@@@std@@QEAAX$$QEAH@Z 0000000140017850 f i Crinkler.obj
 0001:00016850       ?push_back@?$vector@HV?$allocator@H@std@@@std@@QEAAXAEBH@Z 0000000140017850 f i Crinkler.obj
 0001:00016990       ?what@exception@std@@UEBAPEBDXZ 0000000140017990 f i Crinkler.obj
 0001:000169b0       __local_stdio_printf_options 00000001400179b0 f i Crinkler.obj
 0001:000169c0       printf                     00000001400179c0 f i Crinkler.obj
 0001:00016a10       sprintf                    0000000140017a10 f i Crinkler.obj
 0001:00016f10       ??$_Buffered_rotate_unchecked@PEAU?$pair@PEADH@std@@@std@@YAPEAU?$pair@PEADH@0@QEAU10@00_J101@Z 0000000140017f10 f i Export.obj
 0001:000171e0       ??$_Copy_memmove@PEAU?$pair@PEADH@std@@PEAU12@@std@@YAPEAU?$pair@PEADH@0@PEAU10@00@Z 00000001400181e0 f i Export.obj
 0001:00017200       ??$_Erase_tree@V?$allocator@U?$_Tree_node@U?$pair@$$CBHH@std@@PEAX@std@@@std@@@?$_Tree_val@U?$_Tree_simple_types@U?$pair@$$CBHH@std@@@std@@@std@@QEAAXAEAV?$allocator@U?$_Tree_node@U?$pair@$$CBHH@std@@PEAX@std@@@1@PEAU?$_Tree_node@U?$pair@$$CBHH@std@@PEAX@1@@Z 0000000140018200 f i Export.obj
 0001:00017260       ??$_Get_temporary_buffer@U?$pair@PEADH@std@@@std@@YA?AU?$pair@PEAU?$pair@PEADH@std@@_J@0@_J@Z 0000000140018260 f i Export.obj
 0001:000177e0       ??$_Move_unchecked@PEAU?$pair@PEADH@std@@PEAU12@@std@@YAPEAU?$pair@PEADH@0@PEAU10@00@Z 00000001400187e0 f i Export.obj
 0001:00017810       ??$_Return_temporary_buffer@U?$pair@PEADH@std@@@std@@YAXQEAU?$pair@PEADH@0@@Z 0000000140018810 f i Export.obj
 0001:00017810       ??3@YAXPEAX_K@Z            0000000140018810 f i LIBCMT:delete_scalar_size.obj
 0001:00017810       ??_V@YAXPEAX@Z             0000000140018810 f i LIBCMT:delete_array.obj
 0001:00017820       ??$_Rotate_one_left@PEAU?$pair@PEADH@std@@@std@@YAXPEAU?$pair@PEADH@0@00@Z 0000000140018820 f i Export.obj
 0001:00017880       ??$_Rotate_one_right@PEAU?$pair@PEADH@std@@@std@@YAXPEAU?$pair@PEADH@0@00@Z 0000000140018880 f i Export.obj
 0001:00017ad0       ??$_Uninitialized_move_unchecked@PEAU?$pair@PEADH@std@@PEAU12@@std@@YAPEAU?$pair@PEADH@0@PEAU10@QEAU10@0@Z 0000000140018ad0 f i Export.obj
 0001:00017be0       ??0?$basic_string@DU?$char_traits@D@std@@V?$allocator@D@2@@std@@QEAA@QEBD@Z 0000000140018be0 f i Export.obj
 0001:00017c30       ??0Export@@QEAA@V?$basic_string@DU?$char_traits@D@std@@V?$allocator@D@2@@std@@0@Z 0000000140018c30 f   Export.obj
 0001:00017c90       ??0Export@@QEAA@V?$basic_string@DU?$char_traits@D@std@@V?$allocator@D@2@@std@@H@Z 0000000140018c90 f   Export.obj
 0001:00017cf0       ?CreateExportTable@@YAPEAVHunk@@AEBV?$set@VExport@@U?$less@VExport@@@std@@V?$allocator@VExport@@@3@@std@@@Z 0000000140018cf0 f   Export.obj
 0001:00018ed0       ?ParseExport@@YA?AVExport@@AEBV?$basic_string@DU?$char_traits@D@std@@V?$allocator@D@2@@std@@0@Z 0000000140019ed0 f   Export.obj
 0001:00018fd0       ?PrintExports@@YAXAEBV?$set@VExport@@U?$less@VExport@@@std@@V?$allocator@VExport@@@3@@std@@@Z 0000000140019fd0 f   Export.obj
 0001:00019110       ?StripExports@@YA?AV?$set@VExport@@U?$less@VExport@@@std@@V?$allocator@VExport@@@3@@std@@PEAVHunk@@H@Z 000000014001a110 f   Export.obj
 0001:00019860       ?FixHeader04@@YAXPEAD@Z    000000014001a860 f   Fix.obj
 0001:00019a50       ?FixHeader10@@YAXPEAD@Z    000000014001aa50 f   Fix.obj
 0001:00019a90       ??$_Construct@$00PEB_W@?$basic_string@_WU?$char_traits@_W@std@@V?$allocator@_W@2@@std@@AEAAXQEB_W_K@Z 000000014001aa90 f i HtmlReport.obj
 0001:00019ba0       ??$_Convert_Source_to_wide@PEBDU_Normal_conversion@filesystem@std@@@filesystem@std@@YA?AV?$basic_string@_WU?$char_traits@_W@std@@V?$allocator@_W@2@@1@AEBQEBDU_Normal_conversion@01@@Z 000000014001aba0 f i HtmlReport.obj
 0001:00019bf0       ??$_Convert_Source_to_wide@V?$basic_string_view@_WU?$char_traits@_W@std@@@std@@U_Normal_conversion@filesystem@2@@filesystem@std@@YA?AV?$basic_string@_WU?$char_traits@_W@std@@V?$allocator@_W@2@@1@AEBV?$basic_string_view@_WU?$char_traits@_W@std@@@1@U_Normal_conversion@01@@Z 000000014001abf0 f i HtmlReport.obj
 0001:00019c40       ??$_Convert_stringoid_to_wide@U_Normal_conversion@filesystem@std@@@filesystem@std@@YA?AV?$basic_string@_WU?$char_traits@_W@std@@V?$allocator@_W@2@@1@V?$basic_string_view@DU?$char_traits@D@std@@@1@U_Normal_conversion@01@@Z 000000014001ac40 f i HtmlReport.obj
 0001:00019d30       ??$_Convert_stringoid_to_wide@U_Normal_conversion@filesystem@std@@@filesystem@std@@YA?AV?$basic_string@_WU?$char_traits@_W@std@@V?$allocator@_W@2@@1@V?$basic_string_view@_WU?$char_traits@_W@std@@@1@U_Normal_conversion@01@@Z 000000014001ad30 f i HtmlReport.obj
 0001:00019d60       ??$_Convert_wide_to@U?$char_traits@D@std@@V?$allocator@D@2@D@filesystem@std@@YA?AV?$basic_string@DU?$char_traits@D@std@@V?$allocator@D@2@@1@V?$basic_string_view@_WU?$char_traits@_W@std@@@1@AEBV?$allocator@D@1@@Z 000000014001ad60 f i HtmlReport.obj
 0001:00019db0       ??$_Convert_wide_to_narrow@U?$char_traits@D@std@@V?$allocator@D@2@@std@@YA?AV?$basic_string@DU?$char_traits@D@std@@V?$allocator@D@2@@0@W4__std_code_page@@V?$basic_string_view@_WU?$char_traits@_W@std@@@0@AEBV?$allocator@D@0@@Z 000000014001adb0 f i HtmlReport.obj
 0001:00019ea0       ??$_Copy_nodes@$0A@@?$_Tree@V?$_Tmap_traits@HPEAVSymbol@@U?$less@H@std@@V?$allocator@U?$pair@$$CBHPEAVSymbol@@@std@@@3@$0A@@std@@@std@@IEAAPEAU?$_Tree_node@U?$pair@$$CBHPEAVSymbol@@@std@@PEAX@1@PEAU21@0@Z 000000014001aea0 f i HtmlReport.obj
 0001:00019f40       ??$_Erase_head@V?$allocator@U?$_Tree_node@U?$pair@$$CBHPEAVSymbol@@@std@@PEAX@std@@@std@@@?$_Tree_val@U?$_Tree_simple_types@U?$pair@$$CBHPEAVSymbol@@@std@@@std@@@std@@QEAAXAEAV?$allocator@U?$_Tree_node@U?$pair@$$CBHPEAVSymbol@@@std@@PEAX@std@@@1@@Z 000000014001af40 f i HtmlReport.obj
 0001:00019fc0       ??$_Erase_tree@V?$allocator@U?$_Tree_node@U?$pair@$$CBHPEAVSymbol@@@std@@PEAX@std@@@std@@@?$_Tree_val@U?$_Tree_simple_types@U?$pair@$$CBHPEAVSymbol@@@std@@@std@@@std@@QEAAXAEAV?$allocator@U?$_Tree_node@U?$pair@$$CBHPEAVSymbol@@@std@@PEAX@std@@@1@PEAU?$_Tree_node@U?$pair@$$CBHPEAVSymbol@@@std@@PEAX@1@@Z 000000014001afc0 f i HtmlReport.obj
 0001:0001a020       ??$_Find_vectorized@$$CB_W_W@std@@YAPEB_WQEB_W0_W@Z 000000014001b020 f i HtmlReport.obj
 0001:0001a030       ??$_Format_to_it@DV?$back_insert_iterator@V?$basic_string@DU?$char_traits@D@std@@V?$allocator@D@2@@std@@@std@@V?$basic_format_context@V?$back_insert_iterator@V?$_Fmt_buffer@D@std@@@std@@D@2@@std@@YA?AV?$back_insert_iterator@V?$basic_string@DU?$char_traits@D@std@@V?$allocator@D@2@@std@@@0@V10@V?$basic_string_view@DU?$char_traits@D@std@@@0@V?$basic_format_args@V?$basic_format_context@V?$back_insert_iterator@V?$_Fmt_buffer@D@std@@@std@@D@std@@@0@V_Lazy_locale@0@@Z 000000014001b030 f i HtmlReport.obj
 0001:0001a160       ??$_Immortalize_memcpy_image@V_Generic_error_category@std@@@std@@YAAEBV_Generic_error_category@0@XZ 000000014001b160 f i HtmlReport.obj
 0001:0001a160       ?generic_category@std@@YAAEBVerror_category@1@XZ 000000014001b160 f i libcpmt:thread0.obj
 0001:0001a170       ??$_Immortalize_memcpy_image@V_System_error_category@std@@@std@@YAAEBV_System_error_category@0@XZ 000000014001b170 f i HtmlReport.obj
 0001:0001a180       ??$_Reallocate_grow_by@V<lambda_1>@?1??append@?$basic_string@DU?$char_traits@D@std@@V?$allocator@D@2@@std@@QEAAAEAV34@_KD@Z@_KD@?$basic_string@DU?$char_traits@D@std@@V?$allocator@D@2@@std@@AEAAAEAV01@_KV<lambda_1>@?1??append@01@QEAAAEAV01@0D@Z@_KD@Z 000000014001b180 f i HtmlReport.obj
 0001:0001a310       ??$_Reallocate_grow_by@V<lambda_1>@?1??append@?$basic_string@_WU?$char_traits@_W@std@@V?$allocator@_W@2@@std@@QEAAAEAV34@_K_W@Z@_K_W@?$basic_string@_WU?$char_traits@_W@std@@V?$allocator@_W@2@@std@@AEAAAEAV01@_KV<lambda_1>@?1??append@01@QEAAAEAV01@0_W@Z@_K_W@Z 000000014001b310 f i HtmlReport.obj
 0001:0001a470       ??$_Reallocate_grow_by@V<lambda_1>@?1??insert@?$basic_string@DU?$char_traits@D@std@@V?$allocator@D@2@@std@@QEAAAEAV34@_KQEBD0@Z@_KPEBD_K@?$basic_string@DU?$char_traits@D@std@@V?$allocator@D@2@@std@@AEAAAEAV01@_KV<lambda_1>@?1??insert@01@QEAAAEAV01@0QEBD0@Z@_KPEBD3@Z 000000014001b470 f i HtmlReport.obj
 0001:0001a630       ??$_Reallocate_grow_by@V<lambda_1>@?1??reserve@?$basic_string@DU?$char_traits@D@std@@V?$allocator@D@2@@std@@QEAAX_K@Z@$$V@?$basic_string@DU?$char_traits@D@std@@V?$allocator@D@2@@std@@AEAAAEAV01@_KV<lambda_1>@?1??reserve@01@QEAAX0@Z@@Z 000000014001b630 f i HtmlReport.obj
 0001:0001a780       ??$_Stringoid_from_Source@PEBD@filesystem@std@@YA?A_PAEBQEBD@Z 000000014001b780 f i HtmlReport.obj
 0001:0001a7b0       ??$_Stringoid_from_Source@_WU?$char_traits@_W@std@@@filesystem@std@@YA?A_PAEBV?$basic_string_view@_WU?$char_traits@_W@std@@@1@@Z 000000014001b7b0 f i HtmlReport.obj
 0001:0001a7d0       ??$format@AEADH@std@@YA?AV?$basic_string@DU?$char_traits@D@std@@V?$allocator@D@2@@0@U?$basic_format_string@DAEADH@0@AEAD$$QEAH@Z 000000014001b7d0 f i HtmlReport.obj
 0001:0001a830       ??$format@AEAV?$basic_string@DU?$char_traits@D@std@@V?$allocator@D@2@@std@@AEAH@std@@YA?AV?$basic_string@DU?$char_traits@D@std@@V?$allocator@D@2@@0@U?$basic_format_string@DAEAV?$basic_string@DU?$char_traits@D@std@@V?$allocator@D@2@@std@@AEAH@0@AEAV10@AEAH@Z 000000014001b830 f i HtmlReport.obj
 0001:0001a830       ??$format@AEAV?$basic_string@DU?$char_traits@D@std@@V?$allocator@D@2@@std@@H@std@@YA?AV?$basic_string@DU?$char_traits@D@std@@V?$allocator@D@2@@0@U?$basic_format_string@DAEAV?$basic_string@DU?$char_traits@D@std@@V?$allocator@D@2@@std@@H@0@AEAV10@$$QEAH@Z 000000014001b830 f i HtmlReport.obj
 0001:0001a890       ??$format_to@V?$back_insert_iterator@V?$vector@DV?$allocator@D@std@@@std@@@std@@AEAHAEAI@std@@YA?AV?$back_insert_iterator@V?$vector@DV?$allocator@D@std@@@std@@@0@V10@U?$basic_format_string@DAEAHAEAI@0@AEAHAEAI@Z 000000014001b890 f i HtmlReport.obj
 0001:0001a900       ??$format_to@V?$back_insert_iterator@V?$vector@DV?$allocator@D@std@@@std@@@std@@AEAHAEAIAEAHAEAI@std@@YA?AV?$back_insert_iterator@V?$vector@DV?$allocator@D@std@@@std@@@0@V10@U?$basic_format_string@DAEAHAEAIAEAHAEAI@0@AEAHAEAI23@Z 000000014001b900 f i HtmlReport.obj
 0001:0001a990       ??$format_to@V?$back_insert_iterator@V?$vector@DV?$allocator@D@std@@@std@@@std@@AEAPEBDAEAPEBD@std@@YA?AV?$back_insert_iterator@V?$vector@DV?$allocator@D@std@@@std@@@0@V10@U?$basic_format_string@DAEAPEBDAEAPEBD@0@AEAPEBD2@Z 000000014001b990 f i HtmlReport.obj
 0001:0001aa00       ??$format_to@V?$back_insert_iterator@V?$vector@DV?$allocator@D@std@@@std@@@std@@AEAPEBDAEAY0O@$$CBDPEAD@std@@YA?AV?$back_insert_iterator@V?$vector@DV?$allocator@D@std@@@std@@@0@V10@U?$basic_format_string@DAEAPEBDAEAY0O@$$CBDPEAD@0@AEAPEBDAEAY0O@$$CBD$$QEAPEAD@Z 000000014001ba00 f i HtmlReport.obj
 0001:0001aa80       ??$format_to@V?$back_insert_iterator@V?$vector@DV?$allocator@D@std@@@std@@@std@@HAEAHAEAE@std@@YA?AV?$back_insert_iterator@V?$vector@DV?$allocator@D@std@@@std@@@0@V10@U?$basic_format_string@DHAEAHAEAE@0@$$QEAHAEAHAEAE@Z 000000014001ba80 f i HtmlReport.obj
 0001:0001ab00       ??$format_to@V?$back_insert_iterator@V?$vector@DV?$allocator@D@std@@@std@@@std@@HAEAHH@std@@YA?AV?$back_insert_iterator@V?$vector@DV?$allocator@D@std@@@std@@@0@V10@U?$basic_format_string@DHAEAHH@0@$$QEAHAEAH2@Z 000000014001bb00 f i HtmlReport.obj
 0001:0001ab80       ??$format_to@V?$back_insert_iterator@V?$vector@DV?$allocator@D@std@@@std@@@std@@HAEBHAEAV?$basic_string@DU?$char_traits@D@std@@V?$allocator@D@2@@2@@std@@YA?AV?$back_insert_iterator@V?$vector@DV?$allocator@D@std@@@std@@@0@V10@U?$basic_format_string@DHAEBHAEAV?$basic_string@DU?$char_traits@D@std@@V?$allocator@D@2@@std@@@0@$$QEAHAEBHAEAV?$basic_string@DU?$char_traits@D@std@@V?$allocator@D@2@@0@@Z 000000014001bb80 f i HtmlReport.obj
 0001:0001ac00       ??$format_to@V?$back_insert_iterator@V?$vector@DV?$allocator@D@std@@@std@@@std@@HPEAD@std@@YA?AV?$back_insert_iterator@V?$vector@DV?$allocator@D@std@@@std@@@0@V10@U?$basic_format_string@DHPEAD@0@$$QEAH$$QEAPEAD@Z 000000014001bc00 f i HtmlReport.obj
 0001:0001ac70       ??$format_to@V?$back_insert_iterator@V?$vector@DV?$allocator@D@std@@@std@@@std@@I@std@@YA?AV?$back_insert_iterator@V?$vector@DV?$allocator@D@std@@@std@@@0@V10@U?$basic_format_string@DI@0@$$QEAI@Z 000000014001bc70 f i HtmlReport.obj
 0001:0001ace0       ??$format_to@V?$back_insert_iterator@V?$vector@DV?$allocator@D@std@@@std@@@std@@MM@std@@YA?AV?$back_insert_iterator@V?$vector@DV?$allocator@D@std@@@std@@@0@V10@U?$basic_format_string@DMM@0@$$QEAM2@Z 000000014001bce0 f i HtmlReport.obj
 0001:0001ad50       ??$format_to@V?$back_insert_iterator@V?$vector@DV?$allocator@D@std@@@std@@@std@@PEBDAEBH@std@@YA?AV?$back_insert_iterator@V?$vector@DV?$allocator@D@std@@@std@@@0@V10@U?$basic_format_string@DPEBDAEBH@0@$$QEAPEBDAEBH@Z 000000014001bd50 f i HtmlReport.obj
 0001:0001adc0       ??$format_to@V?$back_insert_iterator@V?$vector@DV?$allocator@D@std@@@std@@@std@@PEBDHAEAV?$basic_string@DU?$char_traits@D@std@@V?$allocator@D@2@@2@@std@@YA?AV?$back_insert_iterator@V?$vector@DV?$allocator@D@std@@@std@@@0@V10@U?$basic_format_string@DPEBDHAEAV?$basic_string@DU?$char_traits@D@std@@V?$allocator@D@2@@std@@@0@$$QEAPEBD$$QEAHAEAV?$basic_string@DU?$char_traits@D@std@@V?$allocator@D@2@@0@@Z 000000014001bdc0 f i HtmlReport.obj
 0001:0001ae40       ??$make_format_args@V?$basic_format_context@V?$back_insert_iterator@V?$_Fmt_buffer@D@std@@@std@@D@std@@DH@std@@YA?A_PAEADAEAH@Z 000000014001be40 f i HtmlReport.obj
 0001:0001ae90       ??$make_format_args@V?$basic_format_context@V?$back_insert_iterator@V?$_Fmt_buffer@D@std@@@std@@D@std@@H$$CBHV?$basic_string@DU?$char_traits@D@std@@V?$allocator@D@2@@2@@std@@YA?A_PAEAHAEBHAEAV?$basic_string@DU?$char_traits@D@std@@V?$allocator@D@2@@0@@Z 000000014001be90 f i HtmlReport.obj
 0001:0001af10       ??$make_format_args@V?$basic_format_context@V?$back_insert_iterator@V?$_Fmt_buffer@D@std@@@std@@D@std@@HHE@std@@YA?A_PAEAH0AEAE@Z 000000014001bf10 f i HtmlReport.obj
 0001:0001af80       ??$make_format_args@V?$basic_format_context@V?$back_insert_iterator@V?$_Fmt_buffer@D@std@@@std@@D@std@@HHH@std@@YA?A_PAEAH00@Z 000000014001bf80 f i HtmlReport.obj
 0001:0001aff0       ??$make_format_args@V?$basic_format_context@V?$back_insert_iterator@V?$_Fmt_buffer@D@std@@@std@@D@std@@HI@std@@YA?A_PAEAHAEAI@Z 000000014001bff0 f i HtmlReport.obj
 0001:0001b040       ??$make_format_args@V?$basic_format_context@V?$back_insert_iterator@V?$_Fmt_buffer@D@std@@@std@@D@std@@HIHI@std@@YA?A_PAEAHAEAI01@Z 000000014001c040 f i HtmlReport.obj
 0001:0001b0e0       ??$make_format_args@V?$basic_format_context@V?$back_insert_iterator@V?$_Fmt_buffer@D@std@@@std@@D@std@@HPEAD@std@@YA?A_PAEAHAEAPEAD@Z 000000014001c0e0 f i HtmlReport.obj
 0001:0001b130       ??$make_format_args@V?$basic_format_context@V?$back_insert_iterator@V?$_Fmt_buffer@D@std@@@std@@D@std@@I@std@@YA?A_PAEAI@Z 000000014001c130 f i HtmlReport.obj
 0001:0001b150       ??$make_format_args@V?$basic_format_context@V?$back_insert_iterator@V?$_Fmt_buffer@D@std@@@std@@D@std@@MM@std@@YA?A_PAEAM0@Z 000000014001c150 f i HtmlReport.obj
 0001:0001b1b0       ??$make_format_args@V?$basic_format_context@V?$back_insert_iterator@V?$_Fmt_buffer@D@std@@@std@@D@std@@PEBD$$BY0O@$$CBDPEAD@std@@YA?A_PAEAPEBDAEAY0O@$$CBDAEAPEAD@Z 000000014001c1b0 f i HtmlReport.obj
 0001:0001b210       ??$make_format_args@V?$basic_format_context@V?$back_insert_iterator@V?$_Fmt_buffer@D@std@@@std@@D@std@@PEBD$$CBH@std@@YA?A_PAEAPEBDAEBH@Z 000000014001c210 f i HtmlReport.obj
 0001:0001b270       ??$make_format_args@V?$basic_format_context@V?$back_insert_iterator@V?$_Fmt_buffer@D@std@@@std@@D@std@@PEBDHV?$basic_string@DU?$char_traits@D@std@@V?$allocator@D@2@@2@@std@@YA?A_PAEAPEBDAEAHAEAV?$basic_string@DU?$char_traits@D@std@@V?$allocator@D@2@@0@@Z 000000014001c270 f i HtmlReport.obj
 0001:0001b300       ??$make_format_args@V?$basic_format_context@V?$back_insert_iterator@V?$_Fmt_buffer@D@std@@@std@@D@std@@PEBDPEBD@std@@YA?A_PAEAPEBD0@Z 000000014001c300 f i HtmlReport.obj
 0001:0001b350       ??$vformat@$0A@@std@@YA?AV?$basic_string@DU?$char_traits@D@std@@V?$allocator@D@2@@0@V?$basic_string_view@DU?$char_traits@D@std@@@0@V?$basic_format_args@V?$basic_format_context@V?$back_insert_iterator@V?$_Fmt_buffer@D@std@@@std@@D@std@@@0@@Z 000000014001c350 f i HtmlReport.obj
 0001:0001b440       ??$vformat_to@V?$back_insert_iterator@V?$basic_string@DU?$char_traits@D@std@@V?$allocator@D@2@@std@@@std@@@std@@YA?AV?$back_insert_iterator@V?$basic_string@DU?$char_traits@D@std@@V?$allocator@D@2@@std@@@0@V10@V?$basic_string_view@DU?$char_traits@D@std@@@0@V?$basic_format_args@V?$basic_format_context@V?$back_insert_iterator@V?$_Fmt_buffer@D@std@@@std@@D@std@@@0@@Z 000000014001c440 f i HtmlReport.obj
 0001:0001b480       ??0?$basic_string@DU?$char_traits@D@std@@V?$allocator@D@2@@std@@QEAA@U_String_constructor_concat_tag@1@AEAV01@1@Z 000000014001c480 f i HtmlReport.obj
 0001:0001b650       ??0_System_error@std@@QEAA@AEBV01@@Z 000000014001c650 f i HtmlReport.obj
 0001:0001b6a0       ??0system_error@std@@QEAA@AEBV01@@Z 000000014001c6a0 f i HtmlReport.obj
 0001:0001b700       ??0system_error@std@@QEAA@Verror_code@1@@Z 000000014001c700 f i HtmlReport.obj
 0001:0001b7e0       ??4?$basic_string@DU?$char_traits@D@std@@V?$allocator@D@2@@std@@QEAAAEAV01@$$QEAV01@@Z 000000014001c7e0 f i HtmlReport.obj
 0001:0001b880       ??A?$map@V?$basic_string@DU?$char_traits@D@std@@V?$allocator@D@2@@std@@V12@U?$less@V?$basic_string@DU?$char_traits@D@std@@V?$allocator@D@2@@std@@@2@V?$allocator@U?$pair@$$CBV?$basic_string@DU?$char_traits@D@std@@V?$allocator@D@2@@std@@V12@@std@@@2@@std@@QEAAAEAV?$basic_string@DU?$char_traits@D@std@@V?$allocator@D@2@@1@AEBV21@@Z 000000014001c880 f i HtmlReport.obj
 0001:0001b9b0       ??_E_Generic_error_category@std@@UEAAPEAXI@Z 000000014001c9b0 f i HtmlReport.obj
 0001:0001b9b0       ??_E_System_error_category@std@@UEAAPEAXI@Z 000000014001c9b0 f i HtmlReport.obj
 0001:0001b9b0       ??_G_Generic_error_category@std@@UEAAPEAXI@Z 000000014001c9b0 f i HtmlReport.obj
 0001:0001b9b0       ??_G_System_error_category@std@@UEAAPEAXI@Z 000000014001c9b0 f i HtmlReport.obj
 0001:0001b9e0       ??_E_System_error@std@@UEAAPEAXI@Z 000000014001c9e0 f i HtmlReport.obj
 0001:0001b9e0       ??_Esystem_error@std@@UEAAPEAXI@Z 000000014001c9e0 f i HtmlReport.obj
 0001:0001b9e0       ??_G_System_error@std@@UEAAPEAXI@Z 000000014001c9e0 f i HtmlReport.obj
 0001:0001b9e0       ??_Gsystem_error@std@@UEAAPEAXI@Z 000000014001c9e0 f i HtmlReport.obj
 0001:0001cc40       ?HtmlReport@@YAXPEAUCompressionReportRecord@@PEBDAEAVHunk@@2PEBH1HPEAVCrinkler@@@Z 000000014001dc40 f   HtmlReport.obj
 0001:0001f580       ?_Change_array@?$vector@DV?$allocator@D@std@@@std@@AEAAXQEAD_K1@Z 0000000140020580 f i HtmlReport.obj
 0001:0001f580       ?_Change_array@?$vector@EV?$allocator@E@std@@@std@@AEAAXQEAE_K1@Z 0000000140020580 f i Hunk.obj
 0001:0001f620       ?_Deallocate_for_capacity@?$basic_string@_WU?$char_traits@_W@std@@V?$allocator@_W@2@@std@@CAXAEAV?$allocator@_W@2@QEA_W_K@Z 0000000140020620 f i HtmlReport.obj
 0001:0001f680       ?_Find_root_name_end@filesystem@std@@YAPEB_WQEB_W0@Z 0000000140020680 f i HtmlReport.obj
 0001:0001f790       ?_Grow@?$_Fmt_iterator_buffer@V?$back_insert_iterator@V?$basic_string@DU?$char_traits@D@std@@V?$allocator@D@2@@std@@@std@@DU_Fmt_buffer_traits@2@@std@@EEAAX_K@Z 0000000140020790 f i HtmlReport.obj
 0001:0001f800       ?_Make_ec@std@@YA?AVerror_code@1@W4__std_win_error@@@Z 0000000140020800 f i HtmlReport.obj
 0001:0001f820       ?_Throw_system_error@std@@YAXW4errc@1@@Z 0000000140020820 f i HtmlReport.obj
 0001:0001f860       ?_Throw_system_error_from_std_win_error@std@@YAXW4__std_win_error@@@Z 0000000140020860 f i HtmlReport.obj
 0001:0001f8a0       ?_Tidy_deallocate@?$basic_string@_WU?$char_traits@_W@std@@V?$allocator@_W@2@@std@@AEAAXXZ 00000001400208a0 f i HtmlReport.obj
 0001:0001f920       ?_Xran@?$_String_val@U?$_Simple_types@D@std@@@std@@SAXXZ 0000000140020920 f i HtmlReport.obj
 0001:0001f940       ?deallocate@?$allocator@H@std@@QEAAXQEAH_K@Z 0000000140020940 f i HtmlReport.obj
 0001:0001f940       ?deallocate@?$allocator@I@std@@QEAAXQEAI_K@Z 0000000140020940 f i ImportHandler.obj
 0001:0001f9a0       ?default_error_condition@_System_error_category@std@@UEBA?AVerror_condition@2@H@Z 00000001400209a0 f i HtmlReport.obj
 0001:0001fa00       ?default_error_condition@error_category@std@@UEBA?AVerror_condition@2@H@Z 0000000140020a00 f i HtmlReport.obj
 0001:0001fa10       ?equivalent@error_category@std@@UEBA_NAEBVerror_code@2@H@Z 0000000140020a10 f i HtmlReport.obj
 0001:0001fa30       ?equivalent@error_category@std@@UEBA_NHAEBVerror_condition@2@@Z 0000000140020a30 f i HtmlReport.obj
 0001:0001fad0       ?insert@?$basic_string@DU?$char_traits@D@std@@V?$allocator@D@2@@std@@QEAAAEAV12@_KQEBD0@Z 0000000140020ad0 f i HtmlReport.obj
 0001:0001fbc0       ?make_error_code@std@@YA?AVerror_code@1@W4errc@1@@Z 0000000140020bc0 f i HtmlReport.obj
 0001:0001fbe0       ?message@_Generic_error_category@std@@UEBA?AV?$basic_string@DU?$char_traits@D@std@@V?$allocator@D@2@@2@H@Z 0000000140020be0 f i HtmlReport.obj
 0001:0001fc30       ?message@_System_error_category@std@@UEBA?AV?$basic_string@DU?$char_traits@D@std@@V?$allocator@D@2@@2@H@Z 0000000140020c30 f i HtmlReport.obj
 0001:0001fcf0       ?name@_Generic_error_category@std@@UEBAPEBDXZ 0000000140020cf0 f i HtmlReport.obj
 0001:0001fd00       ?name@_System_error_category@std@@UEBAPEBDXZ 0000000140020d00 f i HtmlReport.obj
 0001:0001fd10       ?resize@?$basic_string@DU?$char_traits@D@std@@V?$allocator@D@2@@std@@QEAAX_KD@Z 0000000140020d10 f i HtmlReport.obj
 0001:0001fdb0       ?resize@?$basic_string@_WU?$char_traits@_W@std@@V?$allocator@_W@2@@std@@QEAAX_K_W@Z 0000000140020db0 f i HtmlReport.obj
 0001:0001fe40       __local_stdio_scanf_options 0000000140020e40 f i HtmlReport.obj
 0001:0001fe50       sscanf_s                   0000000140020e50 f i HtmlReport.obj
 0001:0001feb0       ??$_Emplace_reallocate@AEBURelocation@@@?$vector@URelocation@@V?$allocator@URelocation@@@std@@@std@@AEAAPEAURelocation@@QEAU2@AEBU2@@Z 0000000140020eb0 f i Hunk.obj
 0001:00020100       ??$_Find_last_vectorized@$$CBDD@std@@YAPEBDQEBD0D@Z 0000000140021100 f i Hunk.obj
 0001:00020110       ??$_Med3_unchecked@PEAPEAVHunk@@P6A_NPEAV1@0@Z@std@@YAXPEAPEAVHunk@@00P6A_NPEAV1@1@Z@Z 0000000140021110 f i HeuristicHunkSorter.obj
 0001:00020110       ??$_Med3_unchecked@PEAPEAVHunk@@P6A_NPEBV1@0@Z@std@@YAXPEAPEAVHunk@@00P6A_NPEBV1@1@Z@Z 0000000140021110 f i ImportHandler.obj
 0001:00020110       ??$_Med3_unchecked@PEAPEAVSymbol@@P6A_NPEAV1@0@Z@std@@YAXPEAPEAVSymbol@@00P6A_NPEAV1@1@Z@Z 0000000140021110 f i Hunk.obj
 0001:00020190       ??$_Partition_by_median_guess_unchecked@PEAPEAVHunk@@P6A_NPEAV1@0@Z@std@@YA?AU?$pair@PEAPEAVHunk@@PEAPEAV1@@0@PEAPEAVHunk@@0P6A_NPEAV2@1@Z@Z 0000000140021190 f i HeuristicHunkSorter.obj
 0001:00020190       ??$_Partition_by_median_guess_unchecked@PEAPEAVHunk@@P6A_NPEBV1@0@Z@std@@YA?AU?$pair@PEAPEAVHunk@@PEAPEAV1@@0@PEAPEAVHunk@@0P6A_NPEBV2@1@Z@Z 0000000140021190 f i ImportHandler.obj
 0001:00020190       ??$_Partition_by_median_guess_unchecked@PEAPEAVSymbol@@P6A_NPEAV1@0@Z@std@@YA?AU?$pair@PEAPEAVSymbol@@PEAPEAV1@@0@PEAPEAVSymbol@@0P6A_NPEAV2@1@Z@Z 0000000140021190 f i Hunk.obj
 0001:000203d0       ??$_Pop_heap_hole_by_index@PEAPEAVHunk@@PEAV1@P6A_NPEAV1@0@Z@std@@YAXPEAPEAVHunk@@_J1$$QEAPEAV1@P6A_NPEAV1@3@Z@Z 00000001400213d0 f i HeuristicHunkSorter.obj
 0001:000203d0       ??$_Pop_heap_hole_by_index@PEAPEAVHunk@@PEAV1@P6A_NPEBV1@0@Z@std@@YAXPEAPEAVHunk@@_J1$$QEAPEAV1@P6A_NPEBV1@3@Z@Z 00000001400213d0 f i ImportHandler.obj
 0001:000203d0       ??$_Pop_heap_hole_by_index@PEAPEAVSymbol@@PEAV1@P6A_NPEAV1@0@Z@std@@YAXPEAPEAVSymbol@@_J1$$QEAPEAV1@P6A_NPEAV1@3@Z@Z 00000001400213d0 f i Hunk.obj
 0001:000204d0       ??$_Sort_unchecked@PEAPEAVHunk@@P6A_NPEAV1@0@Z@std@@YAXPEAPEAVHunk@@0_JP6A_NPEAV1@2@Z@Z 00000001400214d0 f i HeuristicHunkSorter.obj
 0001:000204d0       ??$_Sort_unchecked@PEAPEAVHunk@@P6A_NPEBV1@0@Z@std@@YAXPEAPEAVHunk@@0_JP6A_NPEBV1@2@Z@Z 00000001400214d0 f i ImportHandler.obj
 0001:000204d0       ??$_Sort_unchecked@PEAPEAVSymbol@@P6A_NPEAV1@0@Z@std@@YAXPEAPEAVSymbol@@0_JP6A_NPEAV1@2@Z@Z 00000001400214d0 f i Hunk.obj
 0001:000207a0       ??$_Uninitialized_move@PEAURelocation@@V?$allocator@URelocation@@@std@@@std@@YAPEAURelocation@@QEAU1@0PEAU1@AEAV?$allocator@URelocation@@@0@@Z 00000001400217a0 f i Hunk.obj
 0001:00020860       ??0CompressionReportRecord@@QEAA@PEBDHHH@Z 0000000140021860 f i Hunk.obj
 0001:00020900       ??0Hunk@@QEAA@AEBV0@@Z     0000000140021900 f   Hunk.obj
 0001:00020c20       ??0Hunk@@QEAA@PEBD00@Z     0000000140021c20 f   Hunk.obj
 0001:00020da0       ??0Hunk@@QEAA@PEBD0IHHH@Z  0000000140021da0 f   Hunk.obj
 0001:00020ef0       ??1Hunk@@QEAA@XZ           0000000140021ef0 f   Hunk.obj
 0001:00021020       ??A?$map@V?$basic_string@DU?$char_traits@D@std@@V?$allocator@D@2@@std@@PEAVMemoryFile@@U?$less@V?$basic_string@DU?$char_traits@D@std@@V?$allocator@D@2@@std@@@2@V?$allocator@U?$pair@$$CBV?$basic_string@DU?$char_traits@D@std@@V?$allocator@D@2@@std@@PEAVMemoryFile@@@std@@@2@@std@@QEAAAEAPEAVMemoryFile@@AEBV?$basic_string@DU?$char_traits@D@std@@V?$allocator@D@2@@1@@Z 0000000140022020 f i main.obj
 0001:00021020       ??A?$map@V?$basic_string@DU?$char_traits@D@std@@V?$allocator@D@2@@std@@PEAVSymbol@@U?$less@V?$basic_string@DU?$char_traits@D@std@@V?$allocator@D@2@@std@@@2@V?$allocator@U?$pair@$$CBV?$basic_string@DU?$char_traits@D@std@@V?$allocator@D@2@@std@@PEAVSymbol@@@std@@@2@@std@@QEAAAEAPEAVSymbol@@AEBV?$basic_string@DU?$char_traits@D@std@@V?$allocator@D@2@@1@@Z 0000000140022020 f i Hunk.obj
 0001:00021130       ?AddRelocation@Hunk@@QEAAXURelocation@@@Z 0000000140022130 f   Hunk.obj
 0001:000211b0       ?AddSymbol@Hunk@@QEAAXPEAVSymbol@@@Z 00000001400221b0 f   Hunk.obj
 0001:000216e0       ?AppendZeroes@Hunk@@QEAAXH@Z 00000001400226e0 f   Hunk.obj
 0001:00021830       ?CalculateSize@CompressionReportRecord@@QEAAXHH@Z 0000000140022830 f i Hunk.obj
 0001:00021900       ?FindSymbol@Hunk@@QEBAPEAVSymbol@@PEBD@Z 0000000140022900 f   Hunk.obj
 0001:00021a90       ?FindUndecoratedSymbol@Hunk@@QEBAPEAVSymbol@@PEBD@Z 0000000140022a90 f   Hunk.obj
 0001:00021c10       ?GenerateCompressionSummary@Hunk@@QEAAPEAUCompressionReportRecord@@AEAVPartList@@PEAH@Z 0000000140022c10 f   Hunk.obj
 0001:000224b0       ?GetID@Hunk@@QEAAAEBV?$basic_string@DU?$char_traits@D@std@@V?$allocator@D@2@@std@@XZ 00000001400234b0 f   Hunk.obj
 0001:00022dc0       ?GetNameToSymbolMap@Hunk@@QEAAAEAV?$map@V?$basic_string@DU?$char_traits@D@std@@V?$allocator@D@2@@std@@PEAVSymbol@@U?$less@V?$basic_string@DU?$char_traits@D@std@@V?$allocator@D@2@@std@@@2@V?$allocator@U?$pair@$$CBV?$basic_string@DU?$char_traits@D@std@@V?$allocator@D@2@@std@@PEAVSymbol@@@std@@@2@@std@@XZ 0000000140023dc0 f   Hunk.obj
 0001:00022dd0       ?GetOffsetToRelocationMap@Hunk@@QEAA?AV?$map@HPEAVSymbol@@U?$less@H@std@@V?$allocator@U?$pair@$$CBHPEAVSymbol@@@std@@@3@@std@@XZ 0000000140023dd0 f   Hunk.obj
 0001:00023000       ?GetOffsetToSymbolMap@Hunk@@QEAA?AV?$map@HPEAVSymbol@@U?$less@H@std@@V?$allocator@U?$pair@$$CBHPEAVSymbol@@@std@@@3@@std@@XZ 0000000140024000 f   Hunk.obj
 0001:00023350       ?Insert@Hunk@@QEAAXHPEBEH@Z 0000000140024350 f   Hunk.obj
 0001:00023490       ?IsLikelyText@Hunk@@QEAA_NXZ 0000000140024490 f   Hunk.obj
 0001:000234d0       ?IsLikelyTextInternal@Hunk@@QEBA_NXZ 00000001400244d0 f   Hunk.obj
 0001:000235c0       ?MarkHunkAsLibrary@Hunk@@QEAAXXZ 00000001400245c0 f   Hunk.obj
 0001:00023640       ?OverrideAlignment@Hunk@@QEAAXH@Z 0000000140024640 f   Hunk.obj
 0001:00023900       ?Relocate@Hunk@@QEAAXH@Z   0000000140024900 f   Hunk.obj
 0001:00023e50       ?RoundFloats@Hunk@@QEAAXH@Z 0000000140024e50 f   Hunk.obj
 0001:00024470       ?SetAlignmentBits@Hunk@@QEAAXH@Z 0000000140025470 f   Hunk.obj
 0001:00024480       ?SetRawSize@Hunk@@QEAAXH@Z 0000000140025480 f   Hunk.obj
 0001:00024520       ?Trim@Hunk@@QEAAXXZ        0000000140025520 f   Hunk.obj
 0001:000246e0       ?_Tidy@?$vector@URelocation@@V?$allocator@URelocation@@@std@@@std@@AEAAXXZ 00000001400256e0 f i Hunk.obj
 0001:000247b0       ?resize@?$vector@EV?$allocator@E@std@@@std@@QEAAX_K@Z 00000001400257b0 f i Hunk.obj
 0001:000248e0       ??$_Assign_counted_range@PEAV?$basic_string@DU?$char_traits@D@std@@V?$allocator@D@2@@std@@@?$vector@V?$basic_string@DU?$char_traits@D@std@@V?$allocator@D@2@@std@@V?$allocator@V?$basic_string@DU?$char_traits@D@std@@V?$allocator@D@2@@std@@@2@@std@@AEAAXPEAV?$basic_string@DU?$char_traits@D@std@@V?$allocator@D@2@@1@_K@Z 00000001400258e0 f i ImportHandler.obj
 0001:00024ac0       ??$_Copy_memmove_n@PEAIPEAI@std@@YAPEAIPEAI_K0@Z 0000000140025ac0 f i ImportHandler.obj
 0001:00024ae0       ??$_Emplace_reallocate@I@?$vector@IV?$allocator@I@std@@@std@@AEAAPEAIQEAI$$QEAI@Z 0000000140025ae0 f i ImportHandler.obj
 0001:00024c70       ??$_Emplace_reallocate@V?$basic_string@DU?$char_traits@D@std@@V?$allocator@D@2@@std@@@?$vector@V?$basic_string@DU?$char_traits@D@std@@V?$allocator@D@2@@std@@V?$allocator@V?$basic_string@DU?$char_traits@D@std@@V?$allocator@D@2@@std@@@2@@std@@AEAAPEAV?$basic_string@DU?$char_traits@D@std@@V?$allocator@D@2@@1@QEAV21@$$QEAV21@@Z 0000000140025c70 f i ImportHandler.obj
 0001:00024e60       ??$_Fill_zero_memset@PEAI@std@@YAXPEAI_K@Z 0000000140025e60 f i ImportHandler.obj
 0001:00024e70       ??$_Insertion_sort_unchecked@PEAV?$basic_string@DU?$char_traits@D@std@@V?$allocator@D@2@@std@@U?$less@X@2@@std@@YAPEAV?$basic_string@DU?$char_traits@D@std@@V?$allocator@D@2@@0@QEAV10@0U?$less@X@0@@Z 0000000140025e70 f i ImportHandler.obj
 0001:00025220       ??$_Is_all_bits_zero@I@std@@YA_NAEBI@Z 0000000140026220 f i ImportHandler.obj
 0001:00025230       ??$_Make_heap_unchecked@PEAV?$basic_string@DU?$char_traits@D@std@@V?$allocator@D@2@@std@@U?$less@X@2@@std@@YAXPEAV?$basic_string@DU?$char_traits@D@std@@V?$allocator@D@2@@0@0U?$less@X@0@@Z 0000000140026230 f i ImportHandler.obj
 0001:00025620       ??$_Med3_unchecked@PEAV?$basic_string@DU?$char_traits@D@std@@V?$allocator@D@2@@std@@U?$less@X@2@@std@@YAXPEAV?$basic_string@DU?$char_traits@D@std@@V?$allocator@D@2@@0@00U?$less@X@0@@Z 0000000140026620 f i ImportHandler.obj
 0001:000256e0       ??$_Move_backward_unchecked@PEAV?$basic_string@DU?$char_traits@D@std@@V?$allocator@D@2@@std@@PEAV12@@std@@YAPEAV?$basic_string@DU?$char_traits@D@std@@V?$allocator@D@2@@0@PEAV10@00@Z 00000001400266e0 f i ImportHandler.obj
 0001:000257c0       ??$_Move_unchecked@PEAV?$basic_string@DU?$char_traits@D@std@@V?$allocator@D@2@@std@@PEAV12@@std@@YAPEAV?$basic_string@DU?$char_traits@D@std@@V?$allocator@D@2@@0@PEAV10@00@Z 00000001400267c0 f i ImportHandler.obj
 0001:00025c30       ??$_Partition_by_median_guess_unchecked@PEAV?$basic_string@DU?$char_traits@D@std@@V?$allocator@D@2@@std@@U?$less@X@2@@std@@YA?AU?$pair@PEAV?$basic_string@DU?$char_traits@D@std@@V?$allocator@D@2@@std@@PEAV12@@0@PEAV?$basic_string@DU?$char_traits@D@std@@V?$allocator@D@2@@0@0U?$less@X@0@@Z 0000000140026c30 f i ImportHandler.obj
 0001:00025f20       ??$_Pop_heap_hole_by_index@PEAV?$basic_string@DU?$char_traits@D@std@@V?$allocator@D@2@@std@@V12@U?$less@X@2@@std@@YAXPEAV?$basic_string@DU?$char_traits@D@std@@V?$allocator@D@2@@0@_J1$$QEAV10@U?$less@X@0@@Z 0000000140026f20 f i ImportHandler.obj
 0001:00026150       ??$_Reallocate_grow_by@V<lambda_1>@?1??push_back@?$basic_string@DU?$char_traits@D@std@@V?$allocator@D@2@@std@@QEAAXD@Z@D@?$basic_string@DU?$char_traits@D@std@@V?$allocator@D@2@@std@@AEAAAEAV01@_KV<lambda_1>@?1??push_back@01@QEAAXD@Z@D@Z 0000000140027150 f i ImportHandler.obj
 0001:000262c0       ??$_Resize@U_Value_init_tag@std@@@?$vector@DV?$allocator@D@std@@@std@@AEAAX_KAEBU_Value_init_tag@1@@Z 00000001400272c0 f i ImportHandler.obj
 0001:00026440       ??$_Sort_unchecked@PEAV?$basic_string@DU?$char_traits@D@std@@V?$allocator@D@2@@std@@U?$less@X@2@@std@@YAXPEAV?$basic_string@DU?$char_traits@D@std@@V?$allocator@D@2@@0@0_JU?$less@X@0@@Z 0000000140027440 f i ImportHandler.obj
 0001:00026630       ??$_Traits_compare@U?$char_traits@D@std@@@std@@YAHQEBD_K01@Z 0000000140027630 f i ImportHandler.obj
 0001:00026690       ??$_Uninitialized_move@PEAV?$basic_string@DU?$char_traits@D@std@@V?$allocator@D@2@@std@@V?$allocator@V?$basic_string@DU?$char_traits@D@std@@V?$allocator@D@2@@std@@@2@@std@@YAPEAV?$basic_string@DU?$char_traits@D@std@@V?$allocator@D@2@@0@QEAV10@0PEAV10@AEAV?$allocator@V?$basic_string@DU?$char_traits@D@std@@V?$allocator@D@2@@std@@@0@@Z 0000000140027690 f i ImportHandler.obj
 0001:000267a0       ??$unique@V?$_Vector_iterator@V?$_Vector_val@U?$_Simple_types@V?$basic_string@DU?$char_traits@D@std@@V?$allocator@D@2@@std@@@std@@@std@@@std@@U?$equal_to@X@2@@std@@YA?AV?$_Vector_iterator@V?$_Vector_val@U?$_Simple_types@V?$basic_string@DU?$char_traits@D@std@@V?$allocator@D@2@@std@@@std@@@std@@@0@V10@0U?$equal_to@X@0@@Z 00000001400277a0 f i ImportHandler.obj
 0001:000279a0       ?AddImportHunks1K@ImportHandler@@SAXAEAVPart@@_NAEAH2@Z 00000001400289a0 f   ImportHandler.obj
 0001:00028610       ?AddImportHunks4K@ImportHandler@@SAXAEAVPart@@AEAPEAVHunk@@AEAV?$map@V?$basic_string@DU?$char_traits@D@std@@V?$allocator@D@2@@std@@V12@U?$less@V?$basic_string@DU?$char_traits@D@std@@V?$allocator@D@2@@std@@@2@V?$allocator@U?$pair@$$CBV?$basic_string@DU?$char_traits@D@std@@V?$allocator@D@2@@std@@V12@@std@@@2@@std@@AEBV?$vector@V?$basic_string@DU?$char_traits@D@std@@V?$allocator@D@2@@std@@V?$allocator@V?$basic_string@DU?$char_traits@D@std@@V?$allocator@D@2@@std@@@2@@5@_NAEA_N@Z 0000000140029610 f   ImportHandler.obj
 0001:0002a320       ?ForEachExportInDLL@@YAXPEBDV?$function@$$A6AXPEBD@Z@std@@@Z 000000014002b320 f   ImportHandler.obj
 0001:0002ad90       ?_Buy_raw@?$vector@IV?$allocator@I@std@@@std@@AEAAX_K@Z 000000014002bd90 f i ImportHandler.obj
 0001:0002ae00       ?_Buy_raw@?$vector@V?$basic_string@DU?$char_traits@D@std@@V?$allocator@D@2@@std@@V?$allocator@V?$basic_string@DU?$char_traits@D@std@@V?$allocator@D@2@@std@@@2@@std@@AEAAX_K@Z 000000014002be00 f i ImportHandler.obj
 0001:0002b060       ?_Xlen@?$vector@_NV?$allocator@_N@std@@@std@@SAXXZ 000000014002c060 f i ImportHandler.obj
 0001:0002b0a0       ?deallocate@?$allocator@V?$basic_string@DU?$char_traits@D@std@@V?$allocator@D@2@@std@@@std@@QEAAXQEAV?$basic_string@DU?$char_traits@D@std@@V?$allocator@D@2@@2@_K@Z 000000014002c0a0 f i ImportHandler.obj
 0001:0002b100       ?Clicks@LTCGLoader@@UEBA_NPEBDH@Z 000000014002c100 f   LTCGLoader.obj
 0001:0002b120       ?Load@LTCGLoader@@UEAA_NAEAVPart@@PEBDH1_N@Z 000000014002c120 f   LTCGLoader.obj
 0001:0002b140       ??$?HDU?$char_traits@D@std@@V?$allocator@D@1@@std@@YA?AV?$basic_string@DU?$char_traits@D@std@@V?$allocator@D@2@@0@QEBD$$QEAV10@@Z 000000014002c140 f i main.obj
 0001:0002b270       ??$_Copy_nodes@$0A@@?$_Tree@V?$_Tset_traits@VExport@@U?$less@VExport@@@std@@V?$allocator@VExport@@@3@$0A@@std@@@std@@IEAAPEAU?$_Tree_node@VExport@@PEAX@1@PEAU21@0@Z 000000014002c270 f i main.obj
 0001:0002b350       ??$_Find_first_of_pos_vectorized@DD@std@@YA_KQEBD_K01@Z 000000014002c350 f i main.obj
 0001:0002b360       ??$_Reallocate_grow_by@V<lambda_1>@?1??replace@?$basic_string@DU?$char_traits@D@std@@V?$allocator@D@2@@std@@QEAAAEAV34@_K_KQEBD0@Z@_K_KPEBD_K@?$basic_string@DU?$char_traits@D@std@@V?$allocator@D@2@@std@@AEAAAEAV01@_KV<lambda_1>@?1??replace@01@QEAAAEAV01@0_KQEBD0@Z@11PEBD1@Z 000000014002c360 f i main.obj
 0001:0002b530       ??$insert@U?$pair@V?$basic_string@DU?$char_traits@D@std@@V?$allocator@D@2@@std@@V12@@std@@$0A@@?$map@V?$basic_string@DU?$char_traits@D@std@@V?$allocator@D@2@@std@@V12@U?$less@V?$basic_string@DU?$char_traits@D@std@@V?$allocator@D@2@@std@@@2@V?$allocator@U?$pair@$$CBV?$basic_string@DU?$char_traits@D@std@@V?$allocator@D@2@@std@@V12@@std@@@2@@std@@QEAA?AU?$pair@V?$_Tree_iterator@V?$_Tree_val@U?$_Tree_simple_types@U?$pair@$$CBV?$basic_string@DU?$char_traits@D@std@@V?$allocator@D@2@@std@@V12@@std@@@std@@@std@@@std@@_N@1@$$QEAU?$pair@V?$basic_string@DU?$char_traits@D@std@@V?$allocator@D@2@@std@@V12@@1@@Z 000000014002c530 f i main.obj
 0001:0002b6b0       ??1CmdParamFlags@@UEAA@XZ  000000014002c6b0 f i main.obj
 0001:0002b710       ??1CmdParamInt@@UEAA@XZ    000000014002c710 f i main.obj
 0001:0002b710       ??1CmdParamSwitch@@UEAA@XZ 000000014002c710 f i main.obj
 0001:0002b750       ??1CmdParamMultiAssign@@UEAA@XZ 000000014002c750 f i main.obj
 0001:0002b830       ??1CmdParamString@@UEAA@XZ 000000014002c830 f i main.obj
 0001:0002b870       ??_ECallTransform@@UEAAPEAXI@Z 000000014002c870 f i main.obj
 0001:0002b870       ??_GCallTransform@@UEAAPEAXI@Z 000000014002c870 f i main.obj
 0001:0002b8a0       ??_ECmdParam@@UEAAPEAXI@Z  000000014002c8a0 f i main.obj
 0001:0002b8a0       ??_GCmdParam@@UEAAPEAXI@Z  000000014002c8a0 f i main.obj
 0001:0002b900       ??_EIdentityTransform@@UEAAPEAXI@Z 000000014002c900 f i main.obj
 0001:0002b900       ??_ETransform@@UEAAPEAXI@Z 000000014002c900 f i main.obj
 0001:0002b900       ??_GIdentityTransform@@UEAAPEAXI@Z 000000014002c900 f i main.obj
 0001:0002b900       ??_GTransform@@UEAAPEAXI@Z 000000014002c900 f i main.obj
 0001:0002b930       ?AddFallbackDll@Crinkler@@QEAAXPEBD0@Z 000000014002c930 f i main.obj
 0001:0002bbd0       ?AddReplaceDll@Crinkler@@QEAAXPEBD0@Z 000000014002cbd0 f i main.obj
 0001:0002cca0       ?EnterCriticalRegion@ContextBase@details@Concurrency@@QEAAHXZ 000000014002dca0 f i libconcrt:ContextBase.obj
 0001:0002cca0       ?EnterHyperCriticalRegion@ContextBase@details@Concurrency@@QEAAHXZ 000000014002dca0 f i libconcrt:ContextBase.obj
 0001:0002cca0       ?ExitCriticalRegion@ContextBase@details@Concurrency@@QEAAHXZ 000000014002dca0 f i libconcrt:ContextBase.obj
 0001:0002cca0       ?ExitHyperCriticalRegion@ContextBase@details@Concurrency@@QEAAHXZ 000000014002dca0 f i libconcrt:ContextBase.obj
 0001:0002cca0       ?GetContextKind@ExternalContextBase@details@Concurrency@@EEBA?AW4ContextKind@ContextBase@23@XZ 000000014002dca0 f i libconcrt:ExternalContextBase.obj
 0001:0002cca0       ?GetDefaultDestination@VirtualProcessor@details@Concurrency@@UEAAPEAUIExecutionContext@3@XZ 000000014002dca0 f i libconcrt:VirtualProcessor.obj
 0001:0002cca0       ?GetDetransformer@IdentityTransform@@UEAAPEAVHunk@@XZ 000000014002dca0 f i main.obj
 0001:0002cca0       ?PreRunnableSearch@VirtualProcessor@details@Concurrency@@UEAAPEAVInternalContextBase@23@XZ 000000014002dca0 f i libconcrt:VirtualProcessor.obj
 0001:0002cca0       ?_DefaultInit@?$combinable@_J@Concurrency@@CA_JXZ 000000014002dca0 f i Compressor:CompressionStateEvaluator.obj
 0001:0002cca0       ?_Get_deleter@_Ref_count_base@std@@UEBAPEAXAEBVtype_info@@@Z 000000014002dca0 f i libcpmt:excptptr.obj
 0001:0002cca0       __scrt_exe_initialize_mta  000000014002dca0 f i LIBCMT:utility_desktop.obj
 0001:0002cca0       __scrt_initialize_winrt    000000014002dca0 f i LIBCMT:utility_desktop.obj
 0001:0002cca0       __scrt_stub_for_initialize_mta 000000014002dca0 f i LIBCMT:utility_desktop.obj
 0001:0002cca0       _get_startup_commit_mode   000000014002dca0 f i LIBCMT:commit_mode.obj
 0001:0002cca0       _get_startup_new_mode      000000014002dca0 f i LIBCMT:new_mode.obj
 0001:0002cca0       _get_startup_thread_locale_mode 000000014002dca0 f i LIBCMT:thread_locale.obj
 0001:0002cca0       _matherr                   000000014002dca0 f i LIBCMT:matherr.obj
 0001:0002cd60       ?GetValue@CmdParamString@@QEBAPEBDXZ 000000014002dd60 f i main.obj
 0001:0002cd80       ?LoadDLL@@YAPEBDPEBD@Z     000000014002dd80 f   main.obj
 0001:0002d730       ?assign@?$basic_string@DU?$char_traits@D@std@@V?$allocator@D@2@@std@@QEAAAEAV12@QEBD@Z 000000014002e730 f i main.obj
 0001:0002d8a0       ?replace@?$basic_string@DU?$char_traits@D@std@@V?$allocator@D@2@@std@@QEAAAEAV12@_K_KQEBD0@Z 000000014002e8a0 f i main.obj
 0001:0002da50       main                       000000014002ea50 f   main.obj
 0001:00030610       ??$_Emplace_reallocate@AEBQEAVPart@@@?$vector@PEAVPart@@V?$allocator@PEAVPart@@@std@@@std@@AEAAPEAPEAVPart@@QEAPEAV2@AEBQEAV2@@Z 0000000140031610 f i PartList.obj
 0001:00030750       ??$_Find_lower_bound@V?$basic_string@DU?$char_traits@D@std@@V?$allocator@D@2@@std@@@?$_Tree@V?$_Tmap_traits@V?$basic_string@DU?$char_traits@D@std@@V?$allocator@D@2@@std@@HU?$less@V?$basic_string@DU?$char_traits@D@std@@V?$allocator@D@2@@std@@@2@V?$allocator@U?$pair@$$CBV?$basic_string@DU?$char_traits@D@std@@V?$allocator@D@2@@std@@H@std@@@2@$0A@@std@@@std@@IEBA?AU?$_Tree_find_result@PEAU?$_Tree_node@U?$pair@$$CBV?$basic_string@DU?$char_traits@D@std@@V?$allocator@D@2@@std@@H@std@@PEAX@std@@@1@AEBV?$basic_string@DU?$char_traits@D@std@@V?$allocator@D@2@@1@@Z 0000000140031750 f i CmdParamFlags.obj
 0001:00030750       ??$_Find_lower_bound@V?$basic_string@DU?$char_traits@D@std@@V?$allocator@D@2@@std@@@?$_Tree@V?$_Tmap_traits@V?$basic_string@DU?$char_traits@D@std@@V?$allocator@D@2@@std@@PEAVModelList4k@@U?$less@V?$basic_string@DU?$char_traits@D@std@@V?$allocator@D@2@@std@@@2@V?$allocator@U?$pair@$$CBV?$basic_string@DU?$char_traits@D@std@@V?$allocator@D@2@@std@@PEAVModelList4k@@@std@@@2@$0A@@std@@@std@@IEBA?AU?$_Tree_find_result@PEAU?$_Tree_node@U?$pair@$$CBV?$basic_string@DU?$char_traits@D@std@@V?$allocator@D@2@@std@@PEAVModelList4k@@@std@@PEAX@std@@@1@AEBV?$basic_string@DU?$char_traits@D@std@@V?$allocator@D@2@@1@@Z 0000000140031750 f i Reuse.obj
 0001:00030750       ??$_Find_lower_bound@V?$basic_string@DU?$char_traits@D@std@@V?$allocator@D@2@@std@@@?$_Tree@V?$_Tmap_traits@V?$basic_string@DU?$char_traits@D@std@@V?$allocator@D@2@@std@@PEAVSymbol@@U?$less@V?$basic_string@DU?$char_traits@D@std@@V?$allocator@D@2@@std@@@2@V?$allocator@U?$pair@$$CBV?$basic_string@DU?$char_traits@D@std@@V?$allocator@D@2@@std@@PEAVSymbol@@@std@@@2@$0A@@std@@@std@@IEBA?AU?$_Tree_find_result@PEAU?$_Tree_node@U?$pair@$$CBV?$basic_string@DU?$char_traits@D@std@@V?$allocator@D@2@@std@@PEAVSymbol@@@std@@PEAX@std@@@1@AEBV?$basic_string@DU?$char_traits@D@std@@V?$allocator@D@2@@1@@Z 0000000140031750 f i PartList.obj
 0001:00030820       ??$_Find_vectorized@PEAVHunk@@PEAV1@@std@@YAPEAPEAVHunk@@QEAPEAV1@0QEAV1@@Z 0000000140031820 f i PartList.obj
 0001:00030880       ??$_Uninitialized_copy_unchecked@PEAPEAPEAVHunk@@PEAPEAPEAV1@@std@@YAPEAPEAPEAVHunk@@PEAPEAPEAV1@QEAPEAPEAV1@0@Z 0000000140031880 f i PartList.obj
 0001:00030890       ??$_Uninitialized_value_construct_n_unchecked1@PEAPEAPEAVHunk@@_K@std@@YAPEAPEAPEAVHunk@@PEAPEAPEAV1@_K@Z 0000000140031890 f i PartList.obj
 0001:000309b0       ??$uninitialized_copy@PEAPEAPEAVHunk@@PEAPEAPEAV1@@std@@YAPEAPEAPEAVHunk@@QEAPEAPEAV1@0PEAPEAPEAV1@@Z 00000001400319b0 f i PartList.obj
 0001:000309c0       ??0Part@@QEAA@PEBD_N@Z     00000001400319c0 f i PartList.obj
 0001:00030a70       ??0PartList@@QEAA@XZ       0000000140031a70 f   PartList.obj
 0001:00030aa0       ??0SymbolMap@@QEAA@AEAVPart@@@Z 0000000140031aa0 f   PartList.obj
 0001:00030b30       ??1?$deque@PEAVHunk@@V?$allocator@PEAVHunk@@@std@@@std@@QEAA@XZ 0000000140031b30 f i PartList.obj
 0001:00030c10       ??1Part@@QEAA@XZ           0000000140031c10 f   PartList.obj
 0001:00030c30       ??1PartList@@QEAA@XZ       0000000140031c30 f   PartList.obj
 0001:00030ca0       ??APart@@QEAAAEAPEAVHunk@@I@Z 0000000140031ca0 f   PartList.obj
 0001:00030cb0       ??APartList@@QEAAAEAVPart@@I@Z 0000000140031cb0 f   PartList.obj
 0001:000313b0       ??R?$less@V?$basic_string@DU?$char_traits@D@std@@V?$allocator@D@2@@std@@@std@@QEBA_NAEBV?$basic_string@DU?$char_traits@D@std@@V?$allocator@D@2@@1@0@Z 00000001400323b0 f i PartList.obj
 0001:00031450       ?AddHunkBack@Part@@QEAAXPEAVHunk@@@Z 0000000140032450 f   PartList.obj
 0001:00031490       ?AddHunkFront@Part@@QEAAXPEAVHunk@@@Z 0000000140032490 f   PartList.obj
 0001:00031510       ?CalcTotalPartAndModelOverhead@PartList@@QEAAHXZ 0000000140032510 f   PartList.obj
 0001:00031570       ?Clear@PartList@@QEAAXXZ   0000000140032570 f   PartList.obj
 0001:00031730       ?DeleteUnreferencedHunks@Part@@QEAAXAEBVSymbolMap@@AEBV?$vector@PEAVHunk@@V?$allocator@PEAVHunk@@@std@@@std@@@Z 0000000140032730 f   PartList.obj
 0001:00031d00       ?FindBestPartIndex@PartList@@QEBAHPEAVHunk@@@Z 0000000140032d00 f   PartList.obj
 0001:00031d80       ?FindSymbol@Part@@QEAAPEAVSymbol@@PEBD@Z 0000000140032d80 f   PartList.obj
 0001:00031df0       ?FindSymbol@PartList@@QEAAPEAVSymbol@@PEBD@Z 0000000140032df0 f   PartList.obj
 0001:00031e60       ?FindUndecoratedSymbol@Part@@QEAAPEAVSymbol@@PEBDPEAH@Z 0000000140032e60 f   PartList.obj
 0001:00031f00       ?ForEachHunk@Part@@QEAAXV?$function@$$A6AXAEAVPart@@PEAVHunk@@1@Z@std@@@Z 0000000140032f00 f   PartList.obj
 0001:00031fb0       ?ForEachHunk@Part@@QEAAXV?$function@$$A6AXPEAVHunk@@@Z@std@@@Z 0000000140032fb0 f   PartList.obj
 0001:00032040       ?ForEachHunk@PartList@@QEAAXV?$function@$$A6AXAEAVPart@@PEAVHunk@@1@Z@std@@@Z 0000000140033040 f   PartList.obj
 0001:000320f0       ?ForEachHunkWithBreak@Part@@QEAA_NV?$function@$$A6A_NAEAVPart@@PEAVHunk@@1@Z@std@@@Z 00000001400330f0 f   PartList.obj
 0001:000321d0       ?ForEachHunkWithBreak@Part@@QEAA_NV?$function@$$A6A_NPEAVHunk@@@Z@std@@@Z 00000001400331d0 f   PartList.obj
 0001:00032290       ?ForEachHunkWithBreak@PartList@@QEAA_NV?$function@$$A6A_NAEAVPart@@PEAVHunk@@1@Z@std@@@Z 0000000140033290 f   PartList.obj
 0001:00032350       ?ForEachHunkWithBreak@PartList@@QEAA_NV?$function@$$A6A_NPEAVHunk@@@Z@std@@@Z 0000000140033350 f   PartList.obj
 0001:00032410       ?ForEachPart@PartList@@QEAAXV?$function@$$A6AXAEAVPart@@H@Z@std@@@Z 0000000140033410 f   PartList.obj
 0001:000324a0       ?GetOrAddPart@PartList@@QEAAAEAVPart@@PEBD_N@Z 00000001400334a0 f   PartList.obj
 0001:000325d0       ?GetPartIndex@PartList@@QEBAHPEBD@Z 00000001400335d0 f   PartList.obj
 0001:00032670       ?InsertHunk@Part@@QEAAXHPEAVHunk@@@Z 0000000140033670 f   PartList.obj
 0001:00032700       ?Link@PartList@@QEAAPEAVHunk@@PEBDH@Z 0000000140033700 f   PartList.obj
 0001:00032940       ?NeedsContinuationJump@PartList@@QEBA_NPEAVHunk@@0@Z 0000000140033940 f   PartList.obj
 0001:00032960       ?RemoveHunk@Part@@QEAAXPEAVHunk@@@Z 0000000140033960 f   PartList.obj
 0001:000329a0       ?RemoveMatchingHunks@Part@@QEAAXV?$function@$$A6A_NPEAVHunk@@@Z@std@@@Z 00000001400339a0 f   PartList.obj
 0001:00032b10       ?_Change_array@?$vector@PEAVPart@@V?$allocator@PEAVPart@@@std@@@std@@AEAAXQEAPEAVPart@@_K1@Z 0000000140033b10 f i PartList.obj
 0001:00032e00       ?_Growmap@?$deque@PEAVHunk@@V?$allocator@PEAVHunk@@@std@@@std@@AEAAX_K@Z 0000000140033e00 f i PartList.obj
 0001:00033040       ?_Xlen@?$deque@PEAVHunk@@V?$allocator@PEAVHunk@@@std@@@std@@CAXXZ 0000000140034040 f i PartList.obj
 0001:00033060       ?push_back@?$vector@PEAVPart@@V?$allocator@PEAVPart@@@std@@@std@@QEAAX$$QEAPEAVPart@@@Z 0000000140034060 f i PartList.obj
 0001:000331a0       ??$?8DU?$char_traits@D@std@@V?$allocator@D@1@@std@@YA_NAEBV?$basic_string@DU?$char_traits@D@std@@V?$allocator@D@2@@0@0@Z 00000001400341a0 f i Reuse.obj
 0001:000331f0       ??$_Emplace_reallocate@AEAV?$basic_string@DU?$char_traits@D@std@@V?$allocator@D@2@@std@@AEA_N@?$vector@VReusePart@@V?$allocator@VReusePart@@@std@@@std@@AEAAPEAVReusePart@@QEAV2@AEAV?$basic_string@DU?$char_traits@D@std@@V?$allocator@D@2@@1@AEA_N@Z 00000001400341f0 f i Reuse.obj
 0001:000333e0       ??$_Emplace_reallocate@AEAVPart@@@?$vector@VReusePart@@V?$allocator@VReusePart@@@std@@@std@@AEAAPEAVReusePart@@QEAV2@AEAVPart@@@Z 00000001400343e0 f i Reuse.obj
 0001:000335a0       ??$_Emplace_reallocate@AEBV?$basic_string@DU?$char_traits@D@std@@V?$allocator@D@2@@std@@@?$vector@V?$basic_string@DU?$char_traits@D@std@@V?$allocator@D@2@@std@@V?$allocator@V?$basic_string@DU?$char_traits@D@std@@V?$allocator@D@2@@std@@@2@@std@@AEAAPEAV?$basic_string@DU?$char_traits@D@std@@V?$allocator@D@2@@1@QEAV21@AEBV21@@Z 00000001400345a0 f i Reuse.obj
 0001:00033760       ??$_Emplace_reallocate@V?$vector@PEAVHunk@@V?$allocator@PEAVHunk@@@std@@@std@@@?$vector@V?$vector@PEAVHunk@@V?$allocator@PEAVHunk@@@std@@@std@@V?$allocator@V?$vector@PEAVHunk@@V?$allocator@PEAVHunk@@@std@@@std@@@2@@std@@AEAAPEAV?$vector@PEAVHunk@@V?$allocator@PEAVHunk@@@std@@@1@QEAV21@$$QEAV21@@Z 0000000140034760 f i Reuse.obj
 0001:000339b0       ??$_Eqrange@V?$basic_string@DU?$char_traits@D@std@@V?$allocator@D@2@@std@@@?$_Tree@V?$_Tmap_traits@V?$basic_string@DU?$char_traits@D@std@@V?$allocator@D@2@@std@@PEAVModelList4k@@U?$less@V?$basic_string@DU?$char_traits@D@std@@V?$allocator@D@2@@std@@@2@V?$allocator@U?$pair@$$CBV?$basic_string@DU?$char_traits@D@std@@V?$allocator@D@2@@std@@PEAVModelList4k@@@std@@@2@$0A@@std@@@std@@IEBA?AU?$pair@PEAU?$_Tree_node@U?$pair@$$CBV?$basic_string@DU?$char_traits@D@std@@V?$allocator@D@2@@std@@PEAVModelList4k@@@std@@PEAX@std@@PEAU12@@1@AEBV?$basic_string@DU?$char_traits@D@std@@V?$allocator@D@2@@1@@Z 00000001400349b0 f i Reuse.obj
 0001:00033b40       ??$_Find_last@V?$basic_string@DU?$char_traits@D@std@@V?$allocator@D@2@@std@@@?$_Hash@V?$_Umap_traits@V?$basic_string@DU?$char_traits@D@std@@V?$allocator@D@2@@std@@PEAVHunk@@V?$_Uhash_compare@V?$basic_string@DU?$char_traits@D@std@@V?$allocator@D@2@@std@@U?$hash@V?$basic_string@DU?$char_traits@D@std@@V?$allocator@D@2@@std@@@2@U?$equal_to@V?$basic_string@DU?$char_traits@D@std@@V?$allocator@D@2@@std@@@2@@2@V?$allocator@U?$pair@$$CBV?$basic_string@DU?$char_traits@D@std@@V?$allocator@D@2@@std@@PEAVHunk@@@std@@@2@$0A@@std@@@std@@IEBA?AU?$_Hash_find_last_result@PEAU?$_List_node@U?$pair@$$CBV?$basic_string@DU?$char_traits@D@std@@V?$allocator@D@2@@std@@PEAVHunk@@@std@@PEAX@std@@@1@AEBV?$basic_string@DU?$char_traits@D@std@@V?$allocator@D@2@@1@_K@Z 0000000140034b40 f i Reuse.obj
 0001:00033c10       ??$_Hash_array_representation@D@std@@YA_KQEBD_K@Z 0000000140034c10 f i Reuse.obj
 0001:00033c50       ??$_Try_emplace@AEBV?$basic_string@DU?$char_traits@D@std@@V?$allocator@D@2@@std@@$$V@?$_Hash@V?$_Umap_traits@V?$basic_string@DU?$char_traits@D@std@@V?$allocator@D@2@@std@@PEAVHunk@@V?$_Uhash_compare@V?$basic_string@DU?$char_traits@D@std@@V?$allocator@D@2@@std@@U?$hash@V?$basic_string@DU?$char_traits@D@std@@V?$allocator@D@2@@std@@@2@U?$equal_to@V?$basic_string@DU?$char_traits@D@std@@V?$allocator@D@2@@std@@@2@@2@V?$allocator@U?$pair@$$CBV?$basic_string@DU?$char_traits@D@std@@V?$allocator@D@2@@std@@PEAVHunk@@@std@@@2@$0A@@std@@@std@@IEAA?AU?$pair@PEAU?$_List_node@U?$pair@$$CBV?$basic_string@DU?$char_traits@D@std@@V?$allocator@D@2@@std@@PEAVHunk@@@std@@PEAX@std@@_N@1@AEBV?$basic_string@DU?$char_traits@D@std@@V?$allocator@D@2@@1@@Z 0000000140034c50 f i Reuse.obj
 0001:00033f10       ??$_Uninitialized_move@PEAV?$vector@PEAVHunk@@V?$allocator@PEAVHunk@@@std@@@std@@V?$allocator@V?$vector@PEAVHunk@@V?$allocator@PEAVHunk@@@std@@@std@@@2@@std@@YAPEAV?$vector@PEAVHunk@@V?$allocator@PEAVHunk@@@std@@@0@QEAV10@0PEAV10@AEAV?$allocator@V?$vector@PEAVHunk@@V?$allocator@PEAVHunk@@@std@@@std@@@0@@Z 0000000140034f10 f i Reuse.obj
 0001:00033f70       ??$_Uninitialized_move@PEAVReusePart@@V?$allocator@VReusePart@@@std@@@std@@YAPEAVReusePart@@QEAV1@0PEAV1@AEAV?$allocator@VReusePart@@@0@@Z 0000000140034f70 f i Reuse.obj
 0001:00034030       ??$erase@V?$_List_iterator@V?$_List_val@U?$_List_simple_types@U?$pair@$$CBV?$basic_string@DU?$char_traits@D@std@@V?$allocator@D@2@@std@@PEAVHunk@@@std@@@std@@@std@@@std@@$0A@@?$_Hash@V?$_Umap_traits@V?$basic_string@DU?$char_traits@D@std@@V?$allocator@D@2@@std@@PEAVHunk@@V?$_Uhash_compare@V?$basic_string@DU?$char_traits@D@std@@V?$allocator@D@2@@std@@U?$hash@V?$basic_string@DU?$char_traits@D@std@@V?$allocator@D@2@@std@@@2@U?$equal_to@V?$basic_string@DU?$char_traits@D@std@@V?$allocator@D@2@@std@@@2@@2@V?$allocator@U?$pair@$$CBV?$basic_string@DU?$char_traits@D@std@@V?$allocator@D@2@@std@@PEAVHunk@@@std@@@2@$0A@@std@@@std@@QEAA?AV?$_List_iterator@V?$_List_val@U?$_List_simple_types@U?$pair@$$CBV?$basic_string@DU?$char_traits@D@std@@V?$allocator@D@2@@std@@PEAVHunk@@@std@@@std@@@std@@@1@V21@@Z 0000000140035030 f i Reuse.obj
 0001:00034100       ??$fill@PEAV?$_List_unchecked_iterator@V?$_List_val@U?$_List_simple_types@U?$pair@$$CBV?$basic_string@DU?$char_traits@D@std@@V?$allocator@D@2@@std@@PEAVHunk@@@std@@@std@@@std@@@std@@V12@@std@@YAXQEAV?$_List_unchecked_iterator@V?$_List_val@U?$_List_simple_types@U?$pair@$$CBV?$basic_string@DU?$char_traits@D@std@@V?$allocator@D@2@@std@@PEAVHunk@@@std@@@std@@@std@@@0@0AEBV10@@Z 0000000140035100 f i Reuse.obj
 0001:00034190       ??$uninitialized_fill@PEAV?$_List_unchecked_iterator@V?$_List_val@U?$_List_simple_types@U?$pair@$$CBV?$basic_string@DU?$char_traits@D@std@@V?$allocator@D@2@@std@@PEAVHunk@@@std@@@std@@@std@@@std@@V12@@std@@YAXQEAV?$_List_unchecked_iterator@V?$_List_val@U?$_List_simple_types@U?$pair@$$CBV?$basic_string@DU?$char_traits@D@std@@V?$allocator@D@2@@std@@PEAVHunk@@@std@@@std@@@std@@@0@0AEBV10@@Z 0000000140035190 f i Reuse.obj
 0001:000341b0       ??0Reuse@@QEAA@AEAVPartList@@H@Z 00000001400351b0 f   Reuse.obj
 0001:00034220       ??0Reuse@@QEAA@XZ          0000000140035220 f   Reuse.obj
 0001:00034240       ??0ReusePart@@QEAA@AEAVPart@@@Z 0000000140035240 f   Reuse.obj
 0001:00034330       ??0ReusePart@@QEAA@V?$basic_string@DU?$char_traits@D@std@@V?$allocator@D@2@@std@@_N@Z 0000000140035330 f   Reuse.obj
 0001:00034400       ??1?$list@U?$pair@$$CBV?$basic_string@DU?$char_traits@D@std@@V?$allocator@D@2@@std@@PEAVHunk@@@std@@V?$allocator@U?$pair@$$CBV?$basic_string@DU?$char_traits@D@std@@V?$allocator@D@2@@std@@PEAVHunk@@@std@@@2@@std@@QEAA@XZ 0000000140035400 f i Reuse.obj
 0001:00034470       ??1_Reallocation_guard@?$vector@VReusePart@@V?$allocator@VReusePart@@@std@@@std@@QEAA@XZ 0000000140035470 f i Reuse.obj
 0001:00034520       ?AskForReuseMode@@YA?AW4ReuseType@@W41@@Z 0000000140035520 f   Reuse.obj
 0001:00034840       ?LoadReuseFile@@YAPEAVReuse@@PEBD@Z 0000000140035840 f   Reuse.obj
 0001:000356a0       ?PartsFromHunkList@Reuse@@QEAA_NAEAVPartList@@AEAVPart@@@Z 00000001400366a0 f   Reuse.obj
 0001:00035d70       ?Save@Reuse@@QEBAXPEBD@Z   0000000140036d70 f   Reuse.obj
 0001:00036010       ?_Assign_grow@?$_Hash_vec@V?$allocator@V?$_List_unchecked_iterator@V?$_List_val@U?$_List_simple_types@U?$pair@$$CBV?$basic_string@DU?$char_traits@D@std@@V?$allocator@D@2@@std@@PEAVHunk@@@std@@@std@@@std@@@std@@@std@@@std@@QEAAX_KV?$_List_unchecked_iterator@V?$_List_val@U?$_List_simple_types@U?$pair@$$CBV?$basic_string@DU?$char_traits@D@std@@V?$allocator@D@2@@std@@PEAVHunk@@@std@@@std@@@std@@@2@@Z 0000000140037010 f i Reuse.obj
 0001:000360e0       ?_Change_array@?$vector@VReusePart@@V?$allocator@VReusePart@@@std@@@std@@AEAAXQEAVReusePart@@_K1@Z 00000001400370e0 f i Reuse.obj
 0001:00036460       ?_Erase@?$_Tree@V?$_Tmap_traits@V?$basic_string@DU?$char_traits@D@std@@V?$allocator@D@2@@std@@PEAVModelList4k@@U?$less@V?$basic_string@DU?$char_traits@D@std@@V?$allocator@D@2@@std@@@2@V?$allocator@U?$pair@$$CBV?$basic_string@DU?$char_traits@D@std@@V?$allocator@D@2@@std@@PEAVModelList4k@@@std@@@2@$0A@@std@@@std@@AEAA_KU?$pair@PEAU?$_Tree_node@U?$pair@$$CBV?$basic_string@DU?$char_traits@D@std@@V?$allocator@D@2@@std@@PEAVModelList4k@@@std@@PEAX@std@@PEAU12@@2@@Z 0000000140037460 f i Reuse.obj
 0001:00036610       ?_Extract@?$_Tree_val@U?$_Tree_simple_types@U?$pair@$$CBV?$basic_string@DU?$char_traits@D@std@@V?$allocator@D@2@@std@@PEAVModelList4k@@@std@@@std@@@std@@QEAAPEAU?$_Tree_node@U?$pair@$$CBV?$basic_string@DU?$char_traits@D@std@@V?$allocator@D@2@@std@@PEAVModelList4k@@@std@@PEAX@2@V?$_Tree_unchecked_const_iterator@V?$_Tree_val@U?$_Tree_simple_types@U?$pair@$$CBV?$basic_string@DU?$char_traits@D@std@@V?$allocator@D@2@@std@@PEAVModelList4k@@@std@@@std@@@std@@U_Iterator_base0@2@@2@@Z 0000000140037610 f i Reuse.obj
 0001:00036a00       ?_Forced_rehash@?$_Hash@V?$_Umap_traits@V?$basic_string@DU?$char_traits@D@std@@V?$allocator@D@2@@std@@PEAVHunk@@V?$_Uhash_compare@V?$basic_string@DU?$char_traits@D@std@@V?$allocator@D@2@@std@@U?$hash@V?$basic_string@DU?$char_traits@D@std@@V?$allocator@D@2@@std@@@2@U?$equal_to@V?$basic_string@DU?$char_traits@D@std@@V?$allocator@D@2@@std@@@2@@2@V?$allocator@U?$pair@$$CBV?$basic_string@DU?$char_traits@D@std@@V?$allocator@D@2@@std@@PEAVHunk@@@std@@@2@$0A@@std@@@std@@IEAAX_K@Z 0000000140037a00 f i Reuse.obj
 0001:00036c80       ?_Lrotate@?$_Tree_val@U?$_Tree_simple_types@U?$pair@$$CBV?$basic_string@DU?$char_traits@D@std@@V?$allocator@D@2@@std@@PEAVModelList4k@@@std@@@std@@@std@@QEAAXPEAU?$_Tree_node@U?$pair@$$CBV?$basic_string@DU?$char_traits@D@std@@V?$allocator@D@2@@std@@PEAVModelList4k@@@std@@PEAX@2@@Z 0000000140037c80 f i Reuse.obj
 0001:00036ce0       ?_Rrotate@?$_Tree_val@U?$_Tree_simple_types@U?$pair@$$CBV?$basic_string@DU?$char_traits@D@std@@V?$allocator@D@2@@std@@PEAVModelList4k@@@std@@@std@@@std@@QEAAXPEAU?$_Tree_node@U?$pair@$$CBV?$basic_string@DU?$char_traits@D@std@@V?$allocator@D@2@@std@@PEAVModelList4k@@@std@@PEAX@2@@Z 0000000140037ce0 f i Reuse.obj
 0001:00036d80       ?deallocate@?$allocator@V?$_List_unchecked_iterator@V?$_List_val@U?$_List_simple_types@U?$pair@$$CBV?$basic_string@DU?$char_traits@D@std@@V?$allocator@D@2@@std@@PEAVHunk@@@std@@@std@@@std@@@std@@@std@@QEAAXQEAV?$_List_unchecked_iterator@V?$_List_val@U?$_List_simple_types@U?$pair@$$CBV?$basic_string@DU?$char_traits@D@std@@V?$allocator@D@2@@std@@PEAVHunk@@@std@@@std@@@std@@@2@_K@Z 0000000140037d80 f i Reuse.obj
 0001:00036df0       fprintf                    0000000140037df0 f i Reuse.obj
 0001:00036e40       sscanf                     0000000140037e40 f i Reuse.obj
 0001:00036ea0       ??0Symbol@@QEAA@PEBDHIPEAVHunk@@0@Z 0000000140037ea0 f   Symbol.obj
 0001:00036f70       ?GetUndecoratedName@Symbol@@QEBA?AV?$basic_string@DU?$char_traits@D@std@@V?$allocator@D@2@@std@@XZ 0000000140037f70 f   Symbol.obj
 0001:00037120       ?Error@Log@@SAXPEBD0ZZ     0000000140038120 f   Log.obj
 0001:00037190       ?NonfatalError@Log@@SAXPEBD0ZZ 0000000140038190 f   Log.obj
 0001:00037210       ?Warning@Log@@SAXPEBD0ZZ   0000000140038210 f   Log.obj
 0001:00037290       vsprintf_s                 0000000140038290 f i Log.obj
 0001:00037300       ??0MemoryFile@@QEAA@PEBD_N@Z 0000000140038300 f   MemoryFile.obj
 0001:000373e0       ??1MemoryFile@@QEAA@XZ     00000001400383e0 f   MemoryFile.obj
 0001:000373f0       ?Write@MemoryFile@@QEBA_NPEBD@Z 00000001400383f0 f   MemoryFile.obj
 0001:00037440       ?EnableMiniDumps@@YAXXZ    0000000140038440 f   MiniDump.obj
 0001:00037470       ?ExitWithDump@@YAJPEAU_EXCEPTION_POINTERS@@@Z 0000000140038470 f   MiniDump.obj
 0001:00037620       ?Align@@YAHHH@Z            0000000140038620 f   Misc.obj
 0001:00037640       ?ReadBigEndian@@YAHPEBE@Z  0000000140038640 f   Misc.obj
 0001:00037660       ?RoundInt64@@YA_K_KH@Z     0000000140038660 f   Misc.obj
 0001:000376b0       ?StripCrinklerSymbolPrefix@@YA?AV?$basic_string@DU?$char_traits@D@std@@V?$allocator@D@2@@std@@PEBD@Z 00000001400386b0 f   NameMangling.obj
 0001:00037770       ?StripSymbolPrefix@@YA?AV?$basic_string@DU?$char_traits@D@std@@V?$allocator@D@2@@std@@PEBD@Z 0000000140038770 f   NameMangling.obj
 0001:00037810       ?UndecorateSymbolName@@YA?AV?$basic_string@DU?$char_traits@D@std@@V?$allocator@D@2@@std@@PEBD@Z 0000000140038810 f   NameMangling.obj
 0001:00037950       ??$_Emplace_reallocate@PEBDH@?$vector@V?$basic_string@DU?$char_traits@D@std@@V?$allocator@D@2@@std@@V?$allocator@V?$basic_string@DU?$char_traits@D@std@@V?$allocator@D@2@@std@@@2@@std@@AEAAPEAV?$basic_string@DU?$char_traits@D@std@@V?$allocator@D@2@@1@QEAV21@$$QEAPEBD$$QEAH@Z 0000000140038950 f i StringMisc.obj
 0001:00037b30       ?Base64Encode@@YA?AV?$basic_string@DU?$char_traits@D@std@@V?$allocator@D@2@@std@@PEBDH@Z 0000000140038b30 f   StringMisc.obj
 0001:00037dd0       ?EndsWith@@YA_NPEBD0@Z     0000000140038dd0 f   StringMisc.obj
 0001:00037e40       ?IntoLines@@YA?AV?$vector@V?$basic_string@DU?$char_traits@D@std@@V?$allocator@D@2@@std@@V?$allocator@V?$basic_string@DU?$char_traits@D@std@@V?$allocator@D@2@@std@@@2@@std@@PEBDH@Z 0000000140038e40 f   StringMisc.obj
 0001:00037f10       ?StartsWith@@YA_NPEBD0@Z   0000000140038f10 f   StringMisc.obj
 0001:00037f40       ?StripPath@@YA?AV?$basic_string@DU?$char_traits@D@std@@V?$allocator@D@2@@std@@AEBV12@@Z 0000000140038f40 f   StringMisc.obj
 0001:00038000       ?ToLower@@YA?AV?$basic_string@DU?$char_traits@D@std@@V?$allocator@D@2@@std@@AEBV12@@Z 0000000140039000 f   StringMisc.obj
 0001:00038080       ?ToUpper@@YA?AV?$basic_string@DU?$char_traits@D@std@@V?$allocator@D@2@@std@@AEBV12@@Z 0000000140039080 f   StringMisc.obj
 0001:00038100       sprintf_s                  0000000140039100 f i StringMisc.obj
 0001:00038160       ??0CmdLineInterface@@QEAA@PEBDH@Z 0000000140039160 f   CmdLineInterface.obj
 0001:000381c0       ??1CmdLineInterface@@QEAA@XZ 00000001400391c0 f   CmdLineInterface.obj
 0001:000381f0       ?AddParams@CmdLineInterface@@QEAAXPEAVCmdParam@@ZZ 00000001400391f0 f   CmdLineInterface.obj
 0001:00038250       ?AddTokens@CmdLineInterface@@AEAAXPEBD@Z 0000000140039250 f   CmdLineInterface.obj
 0001:00038440       ?Parse@CmdLineInterface@@QEAA_NXZ 0000000140039440 f   CmdLineInterface.obj
 0001:00038f00       ?PrintHeader@CmdLineInterface@@QEAAXXZ 0000000140039f00 f   CmdLineInterface.obj
 0001:00038f20       ?PrintSyntax@CmdLineInterface@@QEAAXXZ 0000000140039f20 f   CmdLineInterface.obj
 0001:00038ff0       ?RemoveToken@CmdLineInterface@@QEAA_NPEBD@Z 0000000140039ff0 f   CmdLineInterface.obj
 0001:000391c0       ?SetCmdParameters@CmdLineInterface@@QEAA_NHQEAPEAD@Z 000000014003a1c0 f   CmdLineInterface.obj
 0001:00039330       ??0CmdParam@@QEAA@PEBD00H@Z 000000014003a330 f   CmdParam.obj
 0001:000393f0       ?ToString@CmdParam@@UEBA?AV?$basic_string@DU?$char_traits@D@std@@V?$allocator@D@2@@std@@XZ 000000014003a3f0 f   CmdParam.obj
 0001:00039500       ??0CmdParamFlags@@QEAA@PEBD0HH0HZZ 000000014003a500 f   CmdParamFlags.obj
 0001:00039980       ??_ECmdParamFlags@@UEAAPEAXI@Z 000000014003a980 f i CmdParamFlags.obj
 0001:00039980       ??_GCmdParamFlags@@UEAAPEAXI@Z 000000014003a980 f i CmdParamFlags.obj
 0001:00039a10       ?Parse@CmdParamFlags@@UEAAHPEBDPEADH@Z 000000014003aa10 f   CmdParamFlags.obj
 0001:00039d40       ??0CmdParamInt@@QEAA@PEBD00HHHH@Z 000000014003ad40 f   CmdParamInt.obj
 0001:00039d90       ??_ECmdParamInt@@UEAAPEAXI@Z 000000014003ad90 f i CmdParamInt.obj
 0001:00039d90       ??_GCmdParamInt@@UEAAPEAXI@Z 000000014003ad90 f i CmdParamInt.obj
 0001:00039df0       ?Parse@CmdParamInt@@UEAAHPEBDPEADH@Z 000000014003adf0 f   CmdParamInt.obj
 0001:00039ea0       ??$_Emplace_reallocate@U?$pair@V?$basic_string@DU?$char_traits@D@std@@V?$allocator@D@2@@std@@V12@@std@@@?$vector@U?$pair@V?$basic_string@DU?$char_traits@D@std@@V?$allocator@D@2@@std@@V12@@std@@V?$allocator@U?$pair@V?$basic_string@DU?$char_traits@D@std@@V?$allocator@D@2@@std@@V12@@std@@@2@@std@@AEAAPEAU?$pair@V?$basic_string@DU?$char_traits@D@std@@V?$allocator@D@2@@std@@V12@@1@QEAU21@$$QEAU21@@Z 000000014003aea0 f i CmdParamMultiAssign.obj
 0001:0003a0d0       ??$_Uninitialized_move@PEAU?$pair@V?$basic_string@DU?$char_traits@D@std@@V?$allocator@D@2@@std@@V12@@std@@V?$allocator@U?$pair@V?$basic_string@DU?$char_traits@D@std@@V?$allocator@D@2@@std@@V12@@std@@@2@@std@@YAPEAU?$pair@V?$basic_string@DU?$char_traits@D@std@@V?$allocator@D@2@@std@@V12@@0@QEAU10@0PEAU10@AEAV?$allocator@U?$pair@V?$basic_string@DU?$char_traits@D@std@@V?$allocator@D@2@@std@@V12@@std@@@0@@Z 000000014003b0d0 f i CmdParamMultiAssign.obj
 0001:0003a170       ??0CmdParamMultiAssign@@QEAA@PEBD00H@Z 000000014003b170 f   CmdParamMultiAssign.obj
 0001:0003a1c0       ??1?$vector@U?$pair@V?$basic_string@DU?$char_traits@D@std@@V?$allocator@D@2@@std@@V12@@std@@V?$allocator@U?$pair@V?$basic_string@DU?$char_traits@D@std@@V?$allocator@D@2@@std@@V12@@std@@@2@@std@@QEAA@XZ 000000014003b1c0 f i CmdParamMultiAssign.obj
 0001:0003a270       ??_ECmdParamMultiAssign@@UEAAPEAXI@Z 000000014003b270 f i CmdParamMultiAssign.obj
 0001:0003a270       ??_GCmdParamMultiAssign@@UEAAPEAXI@Z 000000014003b270 f i CmdParamMultiAssign.obj
 0001:0003a2d0       ?Parse@CmdParamMultiAssign@@UEAAHPEBDPEADH@Z 000000014003b2d0 f   CmdParamMultiAssign.obj
 0001:0003a860       ?push_back@?$vector@U?$pair@V?$basic_string@DU?$char_traits@D@std@@V?$allocator@D@2@@std@@V12@@std@@V?$allocator@U?$pair@V?$basic_string@DU?$char_traits@D@std@@V?$allocator@D@2@@std@@V12@@std@@@2@@std@@QEAAX$$QEAU?$pair@V?$basic_string@DU?$char_traits@D@std@@V?$allocator@D@2@@std@@V12@@2@@Z 000000014003b860 f i CmdParamMultiAssign.obj
 0001:0003a8e0       ??0CmdParamString@@QEAA@PEBD00H0@Z 000000014003b8e0 f   CmdParamString.obj
 0001:0003aa20       ??_ECmdParamString@@UEAAPEAXI@Z 000000014003ba20 f i CmdParamString.obj
 0001:0003aa20       ??_GCmdParamString@@UEAAPEAXI@Z 000000014003ba20 f i CmdParamString.obj
 0001:0003aa80       ?Parse@CmdParamString@@UEAAHPEBDPEADH@Z 000000014003ba80 f   CmdParamString.obj
 0001:0003abb0       ??0CmdParamSwitch@@QEAA@PEBD0H@Z 000000014003bbb0 f   CmdParamSwitch.obj
 0001:0003abf0       ??_ECmdParamSwitch@@UEAAPEAXI@Z 000000014003bbf0 f i CmdParamSwitch.obj
 0001:0003abf0       ??_GCmdParamSwitch@@UEAAPEAXI@Z 000000014003bbf0 f i CmdParamSwitch.obj
 0001:0003ac50       ?Parse@CmdParamSwitch@@UEAAHPEBDPEADH@Z 000000014003bc50 f   CmdParamSwitch.obj
 0001:0003ac60       ??_ECoffObjectLoader@@UEAAPEAXI@Z 000000014003bc60 f i CoffLibraryLoader.obj
 0001:0003ac60       ??_GCoffObjectLoader@@UEAAPEAXI@Z 000000014003bc60 f i CoffLibraryLoader.obj
 0001:0003aca0       ??_ECoffLibraryLoader@@UEAAPEAXI@Z 000000014003bca0 f i MultiLoader.obj
 0001:0003aca0       ??_EHunkLoader@@UEAAPEAXI@Z 000000014003bca0 f i CoffLibraryLoader.obj
 0001:0003aca0       ??_ELTCGLoader@@UEAAPEAXI@Z 000000014003bca0 f i MultiLoader.obj
 0001:0003aca0       ??_GCoffLibraryLoader@@UEAAPEAXI@Z 000000014003bca0 f i MultiLoader.obj
 0001:0003aca0       ??_GHunkLoader@@UEAAPEAXI@Z 000000014003bca0 f i CoffLibraryLoader.obj
 0001:0003aca0       ??_GLTCGLoader@@UEAAPEAXI@Z 000000014003bca0 f i MultiLoader.obj
 0001:0003acd0       ?Clicks@CoffLibraryLoader@@UEBA_NPEBDH@Z 000000014003bcd0 f   CoffLibraryLoader.obj
 0001:0003ad20       ?Load@CoffLibraryLoader@@UEAA_NAEAVPart@@PEBDH1_N@Z 000000014003bd20 f   CoffLibraryLoader.obj
 0001:0003b3e0       ?MakeCallStub@@YAPEAVHunk@@PEBD@Z 000000014003c3e0 f   CoffLibraryLoader.obj
 0001:0003b880       ??$_Resize@U_Value_init_tag@std@@@?$vector@PEAVHunk@@V?$allocator@PEAVHunk@@@std@@@std@@AEAAX_KAEBU_Value_init_tag@1@@Z 000000014003c880 f i CoffObjectLoader.obj
 0001:0003ba40       ??1CoffObjectLoader@@UEAA@XZ 000000014003ca40 f   CoffObjectLoader.obj
 0001:0003ba50       ?Clicks@CoffObjectLoader@@UEBA_NPEBDH@Z 000000014003ca50 f   CoffObjectLoader.obj
 0001:0003bba0       ?Load@CoffObjectLoader@@UEAA_NAEAVPart@@PEBDH1_N@Z 000000014003cba0 f   CoffObjectLoader.obj
 0001:0003c910       ?LoadFromFile@HunkLoader@@QEAA_NAEAVPart@@PEBD@Z 000000014003d910 f   HunkLoader.obj
 0001:0003c980       ??0MultiLoader@@QEAA@XZ    000000014003d980 f   MultiLoader.obj
 0001:0003ca90       ??1MultiLoader@@UEAA@XZ    000000014003da90 f   MultiLoader.obj
 0001:0003cb60       ??_EMultiLoader@@UEAAPEAXI@Z 000000014003db60 f i MultiLoader.obj
 0001:0003cb60       ??_GMultiLoader@@UEAAPEAXI@Z 000000014003db60 f i MultiLoader.obj
 0001:0003cba0       ?Clicks@MultiLoader@@UEBA_NPEBDH@Z 000000014003dba0 f   MultiLoader.obj
 0001:0003cc10       ?Load@MultiLoader@@UEAA_NAEAVPart@@PEBDH1_N@Z 000000014003dc10 f   MultiLoader.obj
 0001:0003cef0       ?SortHunkList@EmpiricalHunkSorter@@SAHAEAVPartList@@AEAVTransform@@_NHPEAVProgressBar@@2@Z 000000014003def0 f   EmpiricalHunkSorter.obj
 0001:0003d1e0       ?TryHunkCombination@EmpiricalHunkSorter@@CAHAEAVPartList@@AEAVTransform@@_N2@Z 000000014003e1e0 f   EmpiricalHunkSorter.obj
 0001:0003d9d0       ?SortHunkList@HeuristicHunkSorter@@SAXAEAVPartList@@@Z 000000014003e9d0 f   HeuristicHunkSorter.obj
 0001:0003db10       ?DoTransform@CallTransform@@UEAA_NPEAVHunk@@H_N@Z 000000014003eb10 f   CallTransform.obj
 0001:0003dc10       ?GetDetransformer@CallTransform@@UEAAPEAVHunk@@XZ 000000014003ec10 f   CallTransform.obj
 0001:0003dca0       ?LinkAndTransform@Transform@@QEAA_NAEAVPartList@@PEAVSymbol@@HPEAPEAVHunk@@2_N@Z 000000014003eca0 f   Transform.obj
 0001:0003de00       ?AddProgressBar@CompositeProgressBar@@QEAAXPEAVProgressBar@@@Z 000000014003ee00 f   CompositeProgressBar.obj
 0001:0003de40       ?BeginTask@CompositeProgressBar@@UEAAXPEBD@Z 000000014003ee40 f   CompositeProgressBar.obj
 0001:0003de90       ?Deinit@CompositeProgressBar@@UEAAXXZ 000000014003ee90 f   CompositeProgressBar.obj
 0001:0003ded0       ?EndTask@CompositeProgressBar@@UEAAXXZ 000000014003eed0 f   CompositeProgressBar.obj
 0001:0003df10       ?Init@CompositeProgressBar@@UEAAXXZ 000000014003ef10 f   CompositeProgressBar.obj
 0001:0003df50       ?Update@CompositeProgressBar@@UEAAXHH@Z 000000014003ef50 f   CompositeProgressBar.obj
 0001:0003dfb0       ?BeginTask@ConsoleProgressBar@@UEAAXPEBD@Z 000000014003efb0 f   ConsoleProgressBar.obj
 0001:0003e050       ?Update@ConsoleProgressBar@@UEAAXHH@Z 000000014003f050 f   ConsoleProgressBar.obj
 0001:0003e110       ?BeginTask@WindowProgressBar@@UEAAXPEBD@Z 000000014003f110 f   WindowProgressBar.obj
 0001:0003e2a0       ?DlgProc@@YA_JPEAUHWND__@@I_K_J@Z 000000014003f2a0 f   WindowProgressBar.obj
 0001:0003e340       ?Init@WindowProgressBar@@UEAAXXZ 000000014003f340 f   WindowProgressBar.obj
 0001:0003e3e0       ?ThreadProc@@YAKPEAX@Z     000000014003f3e0 f   WindowProgressBar.obj
 0001:0003e420       ?Update@WindowProgressBar@@UEAAXHH@Z 000000014003f420 f   WindowProgressBar.obj
 0001:0003e56d       MiniDumpWriteDump          000000014003f56d f   Dbghelp:dbghelp.dll
 0001:0003e580       distorm_decode64           000000014003f580 f   distorm:distorm.obj
 0001:0003e5f0       distorm_version            000000014003f5f0 f   distorm:distorm.obj
 0001:0003e600       internal_decode            000000014003f600 f   distorm:decoder.obj
 0001:0003edc0       ADDR_SIZE_AFFECT           000000014003fdc0 f   distorm:decoder.obj
 0001:0003edf0       OP_SIZE_AFFECT             000000014003fdf0 f   distorm:decoder.obj
 0001:0003f7d0       strcpy_WS                  00000001400407d0 f   distorm:wstring.obj
 0001:0003f800       strcpylen_WS               0000000140040800 f   distorm:wstring.obj
 0001:0003f820       strcatlen_WS               0000000140040820 f   distorm:wstring.obj
 0001:0003f850       is_prefix                  0000000140040850 f   distorm:prefix.obj
 0001:0003f970       decode_prefixes            0000000140040970 f   distorm:prefix.obj
 0001:00040070       get_unused_prefixes_list   0000000140041070 f   distorm:prefix.obj
 0001:00040200       str_seg_text               0000000140041200 f   distorm:prefix.obj
 0001:000402d0       get_prefix_flag            00000001400412d0 f   distorm:prefix.obj
 0001:000404b0       str_hex_b                  00000001400414b0 f   distorm:textdefs.obj
 0001:000404e0       str_code_hb                00000001400414e0 f   distorm:textdefs.obj
 0001:00040520       str_hex_sp_b               0000000140041520 f   distorm:textdefs.obj
 0001:00040540       str_code_sp_hb             0000000140041540 f   distorm:textdefs.obj
 0001:00040590       str_hex_sp_w               0000000140041590 f   distorm:textdefs.obj
 0001:00040600       str_code_hw                0000000140041600 f   distorm:textdefs.obj
 0001:000406b0       str_hex_sp_dw              00000001400416b0 f   distorm:textdefs.obj
 0001:00040760       str_code_hdw               0000000140041760 f   distorm:textdefs.obj
 0001:00040890       str_hex_sp_qw              0000000140041890 f   distorm:textdefs.obj
 0001:00040a10       str_code_hqw               0000000140041a10 f   distorm:textdefs.obj
 0001:00040c80       str_off64                  0000000140041c80 f   distorm:textdefs.obj
 0001:00040ec0       locate_inst                0000000140041ec0 f   distorm:instructions.obj
 0001:00041030       locate_3dnow_inst          0000000140042030 f   distorm:instructions.obj
 0001:000410a0       str_indirection_text       00000001400420a0 f   distorm:instructions.obj
 0001:000415b0       extract_operand            00000001400425b0 f   distorm:operands.obj
 0001:00044590       ??0ModelList4k@@QEAA@AEBV0@@Z 0000000140045590 f   Compressor:ModelList.obj
 0001:00044590       ??4ModelList4k@@QEAAAEAV0@AEBV0@@Z 0000000140045590 f   Compressor:ModelList.obj
 0001:000445d0       ??0ModelList4k@@QEAA@XZ    00000001400455d0 f   Compressor:ModelList.obj
 0001:000445e0       ??AModelList4k@@QEAAAEAUModel@@I@Z 00000001400455e0 f   Compressor:ModelList.obj
 0001:000445e0       ??AModelList4k@@QEBAAEBUModel@@I@Z 00000001400455e0 f   Compressor:ModelList.obj
 0001:000445f0       ?AddModel@ModelList4k@@QEAAXUModel@@@Z 00000001400455f0 f   Compressor:ModelList.obj
 0001:00044610       ?DetectCompressionType@ModelList4k@@QEBA?AW4CompressionType@@XZ 0000000140045610 f   Compressor:ModelList.obj
 0001:00044730       ?GetMaskList@ModelList4k@@QEBAIPEAE_N@Z 0000000140045730 f   Compressor:ModelList.obj
 0001:00044830       ?Print@ModelList1k@@QEBAXXZ 0000000140045830 f   Compressor:ModelList.obj
 0001:00044860       ?Print@ModelList4k@@QEBAXPEAU_iobuf@@@Z 0000000140045860 f   Compressor:ModelList.obj
 0001:00044900       ?SetFromModelsAndMask@ModelList4k@@QEAAXPEBEHPEA_N@Z 0000000140045900 f   Compressor:ModelList.obj
 0001:000449d0       ??$_Allocate@$0BA@U_Default_allocate_traits@std@@@std@@YAPEAX_K@Z 00000001400459d0 f i Compressor:CompressionStream.obj
 0001:00044a40       ??$_Resize@U_Value_init_tag@std@@@?$vector@HV?$allocator@H@std@@@std@@AEAAX_KAEBU_Value_init_tag@1@@Z 0000000140045a40 f i Compressor:CompressionStream.obj
 0001:00044be0       ??0CompressionStream@@QEAA@PEAEPEAHH_N@Z 0000000140045be0 f   Compressor:CompressionStream.obj
 0001:00044c30       ?Close@CompressionStream@@QEAAHXZ 0000000140045c30 f   Compressor:CompressionStream.obj
 0001:00044c50       ?CompressFromHashBits@CompressionStream@@QEAAXAEBUHashBits@@PEAUTinyHashEntry@@HH@Z 0000000140045c50 f   Compressor:CompressionStream.obj
 0001:00044f60       ?ComputeHashBits@@YA?AUHashBits@@PEBEHPEAEAEBVModelList4k@@_N3@Z 0000000140045f60 f   Compressor:CompressionStream.obj
 0001:00045860       ?EvaluateSize@CompressionStream@@QEAAHPEBEHAEBVModelList4k@@HPEADH@Z 0000000140046860 f   Compressor:CompressionStream.obj
 0001:00045dc0       ?_Insert_x@?$vector@_NV?$allocator@_N@std@@@std@@QEAA_KV?$_Vb_const_iterator@U?$_Wrap_alloc@V?$allocator@I@std@@@std@@@2@_K@Z 0000000140046dc0 f i Compressor:CompressionStream.obj
 0001:000460d0       ?push_back@?$vector@_NV?$allocator@_N@std@@@std@@QEAAXAEB_N@Z 00000001400470d0 f i Compressor:CompressionStream.obj
 0001:00046240       ?reserve@?$vector@IV?$allocator@I@std@@@std@@QEAAX_K@Z 0000000140047240 f i Compressor:CompressionStream.obj
 0001:000462e0       ??$?0_J@?$_Optimistic_temporary_buffer@VModelList4k@@@std@@QEAA@_J@Z 00000001400472e0 f i Compressor:Compressor.obj
 0001:00046d40       ??$_Buffered_rotate_unchecked@PEAVModelList4k@@@std@@YAPEAVModelList4k@@QEAV1@00_J101@Z 0000000140047d40 f i Compressor:Compressor.obj
 0001:000471b0       ??$_Move_backward_unchecked@PEAVModelList4k@@PEAV1@@std@@YAPEAVModelList4k@@PEAV1@00@Z 00000001400481b0 f i Compressor:Compressor.obj
 0001:00047210       ??$_Move_unchecked@PEAVModelList4k@@PEAV1@@std@@YAPEAVModelList4k@@PEAV1@00@Z 0000000140048210 f i Compressor:Compressor.obj
 0001:00047210       ??$_Uninitialized_move_unchecked@PEAVModelList4k@@PEAV1@@std@@YAPEAVModelList4k@@PEAV1@QEAV1@0@Z 0000000140048210 f i Compressor:Compressor.obj
 0001:00047bd0       ??$_Rotate_one_left@PEAVModelList4k@@@std@@YAXPEAVModelList4k@@00@Z 0000000140048bd0 f i Compressor:Compressor.obj
 0001:00047c40       ??$_Rotate_one_right@PEAVModelList4k@@@std@@YAXPEAVModelList4k@@00@Z 0000000140048c40 f i Compressor:Compressor.obj
 0001:00047dc0       ??$reverse@PEAVModelList4k@@@std@@YAXQEAVModelList4k@@0@Z 0000000140048dc0 f i Compressor:Compressor.obj
 0001:00049360       ?ApproximateModels1k@@YA?AVModelList1k@@PEBEHPEAHP6AXPEAXHH@Z2@Z 000000014004a360 f   Compressor:Compressor.obj
 0001:00049590       ?ApproximateModels4k@@YA?AVModelList4k@@PEBEHQEBEW4CompressionType@@_NHPEAHP6AXPEAXHH@Z5@Z 000000014004a590 f   Compressor:Compressor.obj
 0001:00049ce0       ?ApproximateWeights@@YAIAEAVCompressionState@@AEAVModelList4k@@@Z 000000014004ace0 f   Compressor:Compressor.obj
 0001:00049e30       ?Compress1k@@YAHPEBEHPEAEHAEAVModelList1k@@PEAH3@Z 000000014004ae30 f   Compressor:Compressor.obj
 0001:0004a0f0       ?Compress4k@@YAHPEBEHPEBHPEAEHPEAPEAVModelList4k@@_NHHPEAH@Z 000000014004b0f0 f   Compressor:Compressor.obj
 0001:0004a510       ?CompressFromHashBits4k@@YAHPEBUHashBits@@PEAUTinyHashEntry@@HPEAEH_NHHPEAH@Z 000000014004b510 f   Compressor:Compressor.obj
 0001:0004a5d0       ?CompressionTypeName@@YAPEBDW4CompressionType@@@Z 000000014004b5d0 f   Compressor:Compressor.obj
 0001:0004a610       ?Evaluate1K@@YAHPEAEHPEAH111I@Z 000000014004b610 f   Compressor:Compressor.obj
 0001:0004ac20       ?EvaluateSize4k@@YAHPEBEHPEBHPEAHPEAPEAVModelList4k@@H_N@Z 000000014004bc20 f   Compressor:Compressor.obj
 0001:0004b610       ?InitCompressor@@YAXXZ     000000014004c610 f   Compressor:Compressor.obj
 0001:0004b620       ?InstantModels4k@@YA?AVModelList4k@@XZ 000000014004c620 f   Compressor:Compressor.obj
 0001:0004b7b0       ?OptimizeWeights@@YAIAEAVCompressionState@@AEAVModelList4k@@@Z 000000014004c7b0 f   Compressor:Compressor.obj
 0001:0004b9a0       ?AritCode@@YAXPEAUAritState@@IIH@Z 000000014004c9a0 f   Compressor:AritCode.obj
 0001:0004baa0       ?AritCodeEnd@@YAHPEAUAritState@@@Z 000000014004caa0 f   Compressor:AritCode.obj
 0001:0004bb00       ?AritCodeInit@@YAXPEAUAritState@@PEAX@Z 000000014004cb00 f   Compressor:AritCode.obj
 0001:0004bb20       ?AritCodePos@@YAIPEAUAritState@@@Z 000000014004cb20 f   Compressor:AritCode.obj
 0001:0004bb80       ?ModelHash@@YAIPEBEHI@Z    000000014004cb80 f   Compressor:Model.obj
 0001:0004bbd0       ?ModelHashStart@@YAII@Z    000000014004cbd0 f   Compressor:Model.obj
 0001:0004bf70       ??0CompressionState@@QEAA@PEBEHH_NPEAVCompressionStateEvaluator@@0@Z 000000014004cf70 f   Compressor:CompressionState.obj
 0001:0004c0c0       ??1CompressionState@@QEAA@XZ 000000014004d0c0 f   Compressor:CompressionState.obj
 0001:0004c630       ?ApplyModel@CompressionState@@AEAA?AUModelPredictions@@PEBEHE@Z 000000014004d630 f   Compressor:CompressionState.obj
 0001:0004c9d0       ?SetModels@CompressionState@@QEAAHAEBVModelList4k@@@Z 000000014004d9d0 f   Compressor:CompressionState.obj
 0001:0004ca00       ?UpdateWeights@@YAXPEAUWeights@@H_N@Z 000000014004da00 f   Compressor:CompressionState.obj
 0001:0004cd70       ?InitCounterStates@@YAXXZ  000000014004dd70 f   Compressor:CounterState.obj
 0001:0004d0d0       ??0CompressionStateEvaluator@@QEAA@XZ 000000014004e0d0 f   Compressor:CompressionStateEvaluator.obj
 0001:0004d110       ??1CompressionStateEvaluator@@QEAA@XZ 000000014004e110 f   Compressor:CompressionStateEvaluator.obj
 0001:0004dd40       ?ChangeWeight@CompressionStateEvaluator@@AEAA_JHH@Z 000000014004ed40 f   Compressor:CompressionStateEvaluator.obj
 0001:0004dfc0       ?Evaluate@CompressionStateEvaluator@@QEAA_JAEBVModelList4k@@@Z 000000014004efc0 f   Compressor:CompressionStateEvaluator.obj
 0001:0004e0c0       ?Init@CompressionStateEvaluator@@QEAA_NPEAUModelPredictions@@HHM@Z 000000014004f0c0 f   Compressor:CompressionStateEvaluator.obj
 0001:0004e380       ?_Copy@?$_Func_impl_no_alloc@P6A_JXZ_J$$V@std@@EEBAPEAV?$_Func_base@_J$$V@2@PEAX@Z 000000014004f380 f i Compressor:CompressionStateEvaluator.obj
 0001:0004e380       ?_Move@?$_Func_impl_no_alloc@P6A_JXZ_J$$V@std@@EEAAPEAV?$_Func_base@_J$$V@2@PEAX@Z 000000014004f380 f i Compressor:CompressionStateEvaluator.obj
 0001:0004e3a0       ?_Do_call@?$_Func_impl_no_alloc@P6A_JXZ_J$$V@std@@EEAA_JXZ 000000014004f3a0 f i Compressor:CompressionStateEvaluator.obj
 0001:0004e3b0       ?_Target_type@?$_Func_impl_no_alloc@P6A_JXZ_J$$V@std@@EEBAAEBVtype_info@@XZ 000000014004f3b0 f i Compressor:CompressionStateEvaluator.obj
 0001:0004e3b8       ??0_Init_locks@std@@QEAA@XZ 000000014004f3b8 f   libcpmt:xlock.obj
 0001:0004e3fc       ??0_Lockit@std@@QEAA@H@Z   000000014004f3fc f   libcpmt:xlock.obj
 0001:0004e438       ??1_Init_locks@std@@QEAA@XZ 000000014004f438 f   libcpmt:xlock.obj
 0001:0004e474       ??1_Lockit@std@@QEAA@XZ    000000014004f474 f   libcpmt:xlock.obj
 0001:0004f0c0       __std_find_first_of_trivial_pos_1 00000001400500c0 f   libcpmt:vector_algorithms.obj
 0001:0004f160       __std_find_last_trivial_1  0000000140050160 f   libcpmt:vector_algorithms.obj
 0001:0004f170       __std_find_trivial_1       0000000140050170 f   libcpmt:vector_algorithms.obj
 0001:0004f180       __std_find_trivial_2       0000000140050180 f   libcpmt:vector_algorithms.obj
 0001:0004f190       __std_find_trivial_8       0000000140050190 f   libcpmt:vector_algorithms.obj
 0001:0004f1a0       __std_search_1             00000001400501a0 f   libcpmt:vector_algorithms.obj
 0001:0004f1a8       ??0bad_function_call@std@@QEAA@AEBV01@@Z 00000001400501a8 f i libcpmt:xthrow.obj
 0001:0004f1e4       ??0bad_function_call@std@@QEAA@XZ 00000001400501e4 f i libcpmt:xthrow.obj
 0001:0004f1fc       ??0length_error@std@@QEAA@AEBV01@@Z 00000001400501fc f i libcpmt:xthrow.obj
 0001:0004f238       ??0length_error@std@@QEAA@PEBD@Z 0000000140050238 f i libcpmt:xthrow.obj
 0001:0004f280       ??0out_of_range@std@@QEAA@AEBV01@@Z 0000000140050280 f i libcpmt:xthrow.obj
 0001:0004f2bc       ??0out_of_range@std@@QEAA@PEBD@Z 00000001400502bc f i libcpmt:xthrow.obj
 0001:0004f304       ??0runtime_error@std@@QEAA@PEBD@Z 0000000140050304 f i libcpmt:xthrow.obj
 0001:0004f34c       ?_Xbad_alloc@std@@YAXXZ    000000014005034c f   libcpmt:xthrow.obj
 0001:0004f34c       ?__scrt_throw_std_bad_alloc@@YAXXZ 000000014005034c f   LIBCMT:throw_bad_alloc.obj
 0001:0004f36c       ?_Xbad_function_call@std@@YAXXZ 000000014005036c f   libcpmt:xthrow.obj
 0001:0004f38c       ?_Xlength_error@std@@YAXPEBD@Z 000000014005038c f   libcpmt:xthrow.obj
 0001:0004f3b0       ?_Xout_of_range@std@@YAXPEBD@Z 00000001400503b0 f   libcpmt:xthrow.obj
 0001:0004f3d4       ?_Xruntime_error@std@@YAXPEBD@Z 00000001400503d4 f   libcpmt:xthrow.obj
 0001:0004f3f8       ?what@bad_function_call@std@@UEBAPEBDXZ 00000001400503f8 f i libcpmt:xthrow.obj
 0001:0004f400       ?GetCurrentThreadId@platform@details@Concurrency@@YAJXZ 0000000140050400 f   libcpmt:ppltasks.obj
 0001:0004f400       _Thrd_id                   0000000140050400 f   libcpmt:cthread.obj
 0001:0004f408       _Thrd_join                 0000000140050408 f   libcpmt:cthread.obj
 0001:0004f470       ??1?$lock_guard@Vmutex@std@@@std@@QEAA@XZ 0000000140050470 f i libcpmt:xnotify.obj
 0001:0004f478       _Cnd_do_broadcast_at_thread_exit 0000000140050478 f   libcpmt:xnotify.obj
 0001:0004f570       ??$_Construct@$01PEBD@?$basic_string@DU?$char_traits@D@std@@V?$allocator@D@2@@std@@AEAAXQEBD_K@Z 0000000140050570 f i libcpmt:thread0.obj
 0001:0004f688       ??0?$basic_string@DU?$char_traits@D@std@@V?$allocator@D@2@@std@@QEAA@$$QEAV01@@Z 0000000140050688 f i libcpmt:thread0.obj
 0001:0004f6fc       ??0_System_error@std@@IEAA@Verror_code@1@AEBV?$basic_string@DU?$char_traits@D@std@@V?$allocator@D@2@@1@@Z 00000001400506fc f i libcpmt:thread0.obj
 0001:0004f7e0       ??0system_error@std@@QEAA@HAEBVerror_category@1@PEBD@Z 00000001400507e0 f i libcpmt:thread0.obj
 0001:0004f920       ?_Makestr@_System_error@std@@CA?AV?$basic_string@DU?$char_traits@D@std@@V?$allocator@D@2@@2@Verror_code@2@V32@@Z 0000000140050920 f i libcpmt:thread0.obj
 0001:0004f9d8       ?_Throw_Cpp_error@std@@YAXH@Z 00000001400509d8 f   libcpmt:thread0.obj
 0001:0004fa20       ??4?$_Yarn@D@std@@QEAAAEAV01@PEBD@Z 0000000140050a20 f i libcpmt:locale0.obj
 0001:0004fa9c       ??_E_Locimp@locale@std@@MEAAPEAXI@Z 0000000140050a9c f i libcpmt:locale0.obj
 0001:0004fa9c       ??_G_Locimp@locale@std@@MEAAPEAXI@Z 0000000140050a9c f i libcpmt:locale0.obj
 0001:0004fafc       ?_Facet_Register@std@@YAXPEAV_Facet_base@1@@Z 0000000140050afc f   libcpmt:locale0.obj
 0001:0004fb38       ?_Getgloballocale@locale@std@@CAPEAV_Locimp@12@XZ 0000000140050b38 f   libcpmt:locale0.obj
 0001:0004fb40       ?_Init@locale@std@@CAPEAV_Locimp@12@_N@Z 0000000140050b40 f   libcpmt:locale0.obj
 0001:0004fbdc       ?_Locimp_dtor@_Locimp@locale@std@@CAXPEAV123@@Z 0000000140050bdc f   libcpmt:locale0.obj
 0001:0004fc58       ?_Locinfo_ctor@_Locinfo@std@@SAXPEAV12@PEBD@Z 0000000140050c58 f   libcpmt:locale0.obj
 0001:0004fcc4       ?_Locinfo_dtor@_Locinfo@std@@SAXPEAV12@@Z 0000000140050cc4 f   libcpmt:locale0.obj
 0001:0004fce0       ?_New_Locimp@_Locimp@locale@std@@CAPEAV123@_N@Z 0000000140050ce0 f   libcpmt:locale0.obj
 0001:0004fd50       ?_Setgloballocale@locale@std@@CAXPEAX@Z 0000000140050d50 f   libcpmt:locale0.obj
 0001:0004fd84       _Deletegloballocale        0000000140050d84 f   libcpmt:locale0.obj
 0001:0004fdf8       _Getcvt                    0000000140050df8 f   libcpmt:xwctomb.obj
 0001:0004fea0       __std_fs_code_page         0000000140050ea0 f   libcpmt:filesystem.obj
 0001:0004fec8       __std_fs_convert_narrow_to_wide 0000000140050ec8 f   libcpmt:filesystem.obj
 0001:0004ff10       __std_fs_convert_wide_to_narrow 0000000140050f10 f   libcpmt:filesystem.obj
 0001:0005004c       __std_system_error_allocate_message 000000014005104c f   libcpmt:syserror_import_lib.obj
 0001:00050124       __std_system_error_deallocate_message 0000000140051124 f   libcpmt:syserror_import_lib.obj
 0001:0005012c       ?_Syserror_map@std@@YAPEBDH@Z 000000014005112c f   libcpmt:syserror.obj
 0001:00050154       ?_Winerror_map@std@@YAHH@Z 0000000140051154 f   libcpmt:syserror.obj
 0001:00050178       ??1_NonReentrantBlockingLock@details@Concurrency@@QEAA@XZ 0000000140051178 f   libconcrt:rtlocks.obj
 0001:00050178       ??1_ReentrantBlockingLock@details@Concurrency@@QEAA@XZ 0000000140051178 f   libconcrt:rtlocks.obj
 0001:00050178       _Mtxdst                    0000000140051178 f   libcpmt:xmtx.obj
 0001:00050180       _Mtxinit                   0000000140051180 f   libcpmt:xmtx.obj
 0001:00050190       ?_Acquire@_NonReentrantBlockingLock@details@Concurrency@@QEAAXXZ 0000000140051190 f   libconcrt:rtlocks.obj
 0001:00050190       ?_Acquire@_ReentrantBlockingLock@details@Concurrency@@QEAAXXZ 0000000140051190 f   libconcrt:rtlocks.obj
 0001:00050190       _Mtxlock                   0000000140051190 f   libcpmt:xmtx.obj
 0001:00050198       ?_Release@_NonReentrantBlockingLock@details@Concurrency@@QEAAXXZ 0000000140051198 f   libconcrt:rtlocks.obj
 0001:00050198       ?_Release@_ReentrantBlockingLock@details@Concurrency@@QEAAXXZ 0000000140051198 f   libconcrt:rtlocks.obj
 0001:00050198       _Mtxunlock                 0000000140051198 f   libcpmt:xmtx.obj
 0001:000501a0       _Timespec64_get_sys        00000001400511a0 f   libcpmt:xtime.obj
 0001:000501dc       _Xtime_get_ticks           00000001400511dc f   libcpmt:xtime.obj
 0001:0005020c       _Mtx_lock                  000000014005120c f   libcpmt:mutex.obj
 0001:00050214       _Mtx_unlock                0000000140051214 f   libcpmt:mutex.obj
 0001:0005036c       _Cnd_broadcast             000000014005136c f   libcpmt:cond.obj
 0001:00050384       _Cnd_wait                  0000000140051384 f   libcpmt:cond.obj
 0001:000503cc       ?_Atexit@@YAXP6AXXZ@Z      00000001400513cc f   libcpmt:iosptrs.obj
 0001:00050454       __crtGetSystemTimePreciseAsFileTime 0000000140051454 f   libcpmt:winapisupp.obj
 0001:0005047c       ??0AllocatorBucket@details@Concurrency@@QEAA@XZ 000000014005147c f   libconcrt:SubAllocator.obj
 0001:000504a0       ??1AllocatorBucket@details@Concurrency@@QEAA@XZ 00000001400514a0 f   libconcrt:SubAllocator.obj
 0001:000504d4       ?Alloc@AllocatorBucket@details@Concurrency@@QEAAPEATAllocationEntry@23@XZ 00000001400514d4 f   libconcrt:SubAllocator.obj
 0001:000504fc       ?Alloc@SubAllocator@details@Concurrency@@QEAAPEAX_K@Z 00000001400514fc f   libconcrt:SubAllocator.obj
 0001:00050570       ?Free@AllocatorBucket@details@Concurrency@@QEAA_NPEATAllocationEntry@23@@Z 0000000140051570 f   libconcrt:SubAllocator.obj
 0001:000505a0       ?Free@Concurrency@@YAXPEAX@Z 00000001400515a0 f   libconcrt:SubAllocator.obj
 0001:000505ec       ?Free@SubAllocator@details@Concurrency@@QEAAXPEAX@Z 00000001400515ec f   libconcrt:SubAllocator.obj
 0001:00050638       ?GetBucketIndex@SubAllocator@details@Concurrency@@SAH_K@Z 0000000140051638 f   libconcrt:SubAllocator.obj
 0001:00050690       ?StaticAlloc@SubAllocator@details@Concurrency@@SAPEAX_K@Z 0000000140051690 f   libconcrt:SubAllocator.obj
 0001:000506e0       ?Block@Context@Concurrency@@SAXXZ 00000001400516e0 f   libconcrt:Context.obj
 0001:00050720       ?CurrentContext@Context@Concurrency@@SAPEAV12@XZ 0000000140051720 f   libconcrt:Context.obj
 0001:0005074c       ?_CurrentContext@_Context@details@Concurrency@@SA?AV123@XZ 000000014005174c f   libconcrt:Context.obj
 0001:00050784       ?_IsSynchronouslyBlocked@_Context@details@Concurrency@@QEBA_NXZ 0000000140051784 f   libconcrt:Context.obj
 0001:00050798       ?_Yield@_Context@details@Concurrency@@SAXXZ 0000000140051798 f   libconcrt:Context.obj
 0001:000507d8       ?GetNumberOfVirtualProcessors@CurrentScheduler@Concurrency@@SAIXZ 00000001400517d8 f   libconcrt:CurrentScheduler.obj
 0001:00050808       ?_GetNumberOfVirtualProcessors@_CurrentScheduler@details@Concurrency@@SAIXZ 0000000140051808 f   libconcrt:CurrentScheduler.obj
 0001:0005082c       ??0_NonReentrantBlockingLock@details@Concurrency@@QEAA@XZ 000000014005182c f   libconcrt:rtlocks.obj
 0001:0005082c       ??0_ReentrantBlockingLock@details@Concurrency@@QEAA@XZ 000000014005182c f   libconcrt:rtlocks.obj
 0001:0005085c       ??0_ReaderWriterLock@details@Concurrency@@QEAA@XZ 000000014005185c f   libconcrt:rtlocks.obj
 0001:00050870       ??0critical_section@Concurrency@@QEAA@XZ 0000000140051870 f   libconcrt:rtlocks.obj
 0001:000508a4       ??0improper_lock@Concurrency@@QEAA@AEBV01@@Z 00000001400518a4 f i libconcrt:rtlocks.obj
 0001:000508e0       ??0scoped_lock@critical_section@Concurrency@@QEAA@AEAV12@@Z 00000001400518e0 f   libconcrt:rtlocks.obj
 0001:0005095c       ??1scoped_lock@critical_section@Concurrency@@QEAA@XZ 000000014005195c f   libconcrt:rtlocks.obj
 0001:00050970       ?Block@LockQueueNode@details@Concurrency@@QEAAXI@Z 0000000140051970 f i libconcrt:rtlocks.obj
 0001:00050a24       ?_AcquireRead@_ReaderWriterLock@details@Concurrency@@QEAAXXZ 0000000140051a24 f   libconcrt:rtlocks.obj
 0001:00050a64       ?_AcquireWrite@_ReaderWriterLock@details@Concurrency@@QEAAXXZ 0000000140051a64 f   libconcrt:rtlocks.obj
 0001:00050aa0       ?_Acquire_lock@critical_section@Concurrency@@QEAA_NPEAX_N@Z 0000000140051aa0 f   libconcrt:rtlocks.obj
 0001:00050c98       ?_FlushWriteOwners@_ReaderWriterLock@details@Concurrency@@QEAAXXZ 0000000140051c98 f   libconcrt:rtlocks.obj
 0001:00050cb8       ?_Flush_current_owner@critical_section@Concurrency@@QEAAXXZ 0000000140051cb8 f   libconcrt:rtlocks.obj
 0001:00050ce0       ?_Initialize@_SpinCount@details@Concurrency@@SAXXZ 0000000140051ce0 f   libconcrt:rtlocks.obj
 0001:00050d04       ?_ReleaseRead@_ReaderWriterLock@details@Concurrency@@QEAAXXZ 0000000140051d04 f   libconcrt:rtlocks.obj
 0001:00050d08       ?_ReleaseWrite@_ReaderWriterLock@details@Concurrency@@QEAAXXZ 0000000140051d08 f   libconcrt:rtlocks.obj
 0001:00050d14       ?_SpinOnce@?$_SpinWait@$0A@@details@Concurrency@@QEAA_NXZ 0000000140051d14 f i libconcrt:rtlocks.obj
 0001:00050db4       ?_Switch_to_active@critical_section@Concurrency@@AEAAXPEAX@Z 0000000140051db4 f   libconcrt:rtlocks.obj
 0001:00050e48       ?_TryAcquireWrite@_ReaderWriterLock@details@Concurrency@@QEAA_NXZ 0000000140051e48 f   libconcrt:rtlocks.obj
 0001:00050e60       ?_Value@_SpinCount@details@Concurrency@@SAIXZ 0000000140051e60 f   libconcrt:rtlocks.obj
 0001:00050e68       ?_WaitEquals@_ReaderWriterLock@details@Concurrency@@CAXAEDJJJ@Z 0000000140051e68 f   libconcrt:rtlocks.obj
 0001:00050edc       ?lock@critical_section@Concurrency@@QEAAXXZ 0000000140051edc f   libconcrt:rtlocks.obj
 0001:00050f58       ?unlock@critical_section@Concurrency@@QEAAXXZ 0000000140051f58 f   libconcrt:rtlocks.obj
 0001:0005107c       _concrt_static_cleanup     000000014005207c f   libconcrt:utils.obj
 0001:00051094       ??0scheduler_resource_allocation_error@Concurrency@@QEAA@AEBV01@@Z 0000000140052094 f i libconcrt:utils.obj
 0001:000510e0       ??1GlobalCore@details@Concurrency@@QEAA@XZ 00000001400520e0 f i libconcrt:utils.obj
 0001:000510f0       ??_Escheduler_resource_allocation_error@Concurrency@@UEAAPEAXI@Z 00000001400520f0 f i libconcrt:utils.obj
 0001:000510f0       ??_Escheduler_worker_creation_error@Concurrency@@UEAAPEAXI@Z 00000001400520f0 f i libconcrt:Exceptions.obj
 0001:000510f0       ??_Gscheduler_resource_allocation_error@Concurrency@@UEAAPEAXI@Z 00000001400520f0 f i libconcrt:utils.obj
 0001:000510f0       ??_Gscheduler_worker_creation_error@Concurrency@@UEAAPEAXI@Z 00000001400520f0 f i libconcrt:Exceptions.obj
 0001:00051134       ?DecodePointer@Security@details@Concurrency@@SAPEAXPEAX@Z 0000000140052134 f   libconcrt:utils.obj
 0001:00051134       ?EncodePointer@Security@details@Concurrency@@SAPEAXPEAX@Z 0000000140052134 f   libconcrt:utils.obj
 0001:00051140       ?DeleteAsyncTimerAndUnloadLibrary@details@Concurrency@@YAXPEAU_TP_TIMER@@@Z 0000000140052140 f   libconcrt:utils.obj
 0001:0005118c       ?FreeLibraryAndDestroyThread@details@Concurrency@@YAXK@Z 000000014005218c f   libconcrt:utils.obj
 0001:000511c4       ?InitializeCookie@Security@details@Concurrency@@SA_KXZ 00000001400521c4 f   libconcrt:utils.obj
 0001:00051228       ?LoadLibraryAndCreateThread@details@Concurrency@@YAPEAXPEAU_SECURITY_ATTRIBUTES@@_KP6AKPEAX@Z2KPEAK@Z 0000000140052228 f   libconcrt:utils.obj
 0001:00051278       ?ReferenceLoadLibrary@details@Concurrency@@YAXXZ 0000000140052278 f   libconcrt:utils.obj
 0001:00051320       ?RegisterAsyncTimerAndLoadLibrary@details@Concurrency@@YAPEAU_TP_TIMER@@KP6AXPEAU_TP_CALLBACK_INSTANCE@@PEAXPEAU3@@Z1_N@Z 0000000140052320 f   libconcrt:utils.obj
 0001:00051398       ?RegisterAsyncWaitAndLoadLibrary@details@Concurrency@@YAPEAU_TP_WAIT@@PEAXP6AXPEAU_TP_CALLBACK_INSTANCE@@0PEAU3@K@Z0@Z 0000000140052398 f   libconcrt:utils.obj
 0001:000513ec       ?UnRegisterAsyncTimerAndUnloadLibrary@details@Concurrency@@YAXPEAU_TP_CALLBACK_INSTANCE@@PEAU_TP_TIMER@@@Z 00000001400523ec f   libconcrt:utils.obj
 0001:0005143c       ?UnRegisterAsyncWaitAndUnloadLibrary@details@Concurrency@@YAXPEAU_TP_CALLBACK_INSTANCE@@PEAU_TP_WAIT@@@Z 000000014005243c f   libconcrt:utils.obj
 0001:00051488       ?_Acquire@_CriticalNonReentrantLock@details@Concurrency@@QEAAXXZ 0000000140052488 f   libconcrt:utils.obj
 0001:00051488       ?_Acquire@_HyperNonReentrantLock@details@Concurrency@@QEAAXXZ 0000000140052488 f   libconcrt:utils.obj
 0001:000514dc       ?_Release@_CriticalNonReentrantLock@details@Concurrency@@QEAAXXZ 00000001400524dc f   libconcrt:utils.obj
 0001:000514dc       ?_Release@_HyperNonReentrantLock@details@Concurrency@@QEAAXXZ 00000001400524dc f   libconcrt:utils.obj
 0001:000514e8       ?_Sleep0@details@Concurrency@@YAXXZ 00000001400524e8 f   libconcrt:utils.obj
 0001:000514f0       ?_TryAcquire@_CriticalNonReentrantLock@details@Concurrency@@QEAA_NXZ 00000001400524f0 f   libconcrt:utils.obj
 0001:00051528       ?_UnderlyingYield@details@Concurrency@@YAXXZ 0000000140052528 f   libconcrt:utils.obj
 0001:00051558       ??0_Interruption_exception@details@Concurrency@@QEAA@AEBV012@@Z 0000000140052558 f i libconcrt:Chores.obj
 0001:00051594       ??0_Interruption_exception@details@Concurrency@@QEAA@XZ 0000000140052594 f i libconcrt:Chores.obj
 0001:000515ac       ??0missing_wait@Concurrency@@QEAA@AEBV01@@Z 00000001400525ac f i libconcrt:Chores.obj
 0001:000515e8       ??_ECancellationTokenRegistration_TaskProc@details@Concurrency@@UEAAPEAXI@Z 00000001400525e8 f i libconcrt:Chores.obj
 0001:000515e8       ??_GCancellationTokenRegistration_TaskProc@details@Concurrency@@UEAAPEAXI@Z 00000001400525e8 f i libconcrt:Chores.obj
 0001:00051614       ??_E_RefCounter@details@Concurrency@@UEAAPEAXI@Z 0000000140052614 f i libconcrt:Chores.obj
 0001:00051614       ??_G_RefCounter@details@Concurrency@@UEAAPEAXI@Z 0000000140052614 f i libconcrt:Chores.obj
 0001:00051640       ?AddTail@?$SafeRWList@UListEntry@details@Concurrency@@VNoCount@CollectionTypes@23@V_ReaderWriterLock@23@@details@Concurrency@@QEAAXPEAUListEntry@23@@Z 0000000140052640 f i libconcrt:Chores.obj
 0001:000516ac       ?_CancelViaToken@_UnrealizedChore@details@Concurrency@@CAXPEAVContextBase@23@@Z 00000001400526ac f   libconcrt:Chores.obj
 0001:000516dc       ?_CheckTaskCollection@_UnrealizedChore@details@Concurrency@@IEAAXXZ 00000001400526dc f   libconcrt:Chores.obj
 0001:00051748       ?_DeregisterCallback@_CancellationTokenState@details@Concurrency@@QEAAXPEAV_CancellationTokenRegistration@23@@Z 0000000140052748 f i libconcrt:Chores.obj
 0001:000518a0       ?_Destroy@_RefCounter@details@Concurrency@@MEAAXXZ 00000001400528a0 f i libconcrt:Chores.obj
 0001:000518c0       ?_Exec@CancellationTokenRegistration_TaskProc@details@Concurrency@@MEAAXXZ 00000001400528c0 f i libconcrt:Chores.obj
 0001:000518d8       ?_InternalFree@_UnrealizedChore@details@Concurrency@@CAXPEAV123@@Z 00000001400528d8 f   libconcrt:Chores.obj
 0001:000518ec       ?_Invoke@_CancellationTokenRegistration@details@Concurrency@@AEAAXXZ 00000001400528ec f i libconcrt:Chores.obj
 0001:000519a8       ?_None@_CancellationTokenState@details@Concurrency@@SAPEAV123@XZ 00000001400529a8 f i libconcrt:Chores.obj
 0001:000519b0       ?_PrepareSteal@_UnrealizedChore@details@Concurrency@@QEAAXPEAVContextBase@23@@Z 00000001400529b0 f   libconcrt:Chores.obj
 0001:000519c8       ?_PrepareStealStructured@_UnrealizedChore@details@Concurrency@@AEAAXPEAVContextBase@23@@Z 00000001400529c8 f   libconcrt:Chores.obj
 0001:00051a0c       ?_PrepareStealUnstructured@_UnrealizedChore@details@Concurrency@@AEAAXPEAVContextBase@23@@Z 0000000140052a0c f   libconcrt:Chores.obj
 0001:00051ac4       ?_RegisterCallback@_CancellationTokenState@details@Concurrency@@QEAAPEAV_CancellationTokenRegistration@23@P6AXPEAX@Z0H@Z 0000000140052ac4 f i libconcrt:Chores.obj
 0001:00051bbc       ?_RegisterCallback@_CancellationTokenState@details@Concurrency@@QEAAXPEAV_CancellationTokenRegistration@23@@Z 0000000140052bbc f i libconcrt:Chores.obj
 0001:00051ca4       ?_SetDetached@_UnrealizedChore@details@Concurrency@@QEAAX_N@Z 0000000140052ca4 f   libconcrt:Chores.obj
 0001:00051ca8       ?_StructuredChoreWrapper@_UnrealizedChore@details@Concurrency@@CAXPEAV123@@Z 0000000140052ca8 f   libconcrt:Chores.obj
 0001:00051e58       ??0_TaskCollection@details@Concurrency@@AEAA@PEAV012@_N@Z 0000000140052e58 f   libconcrt:TaskCollection.obj
 0001:00051fdc       ??0invalid_multiple_scheduling@Concurrency@@QEAA@AEBV01@@Z 0000000140052fdc f i libconcrt:TaskCollection.obj
 0001:00052018       ??1?$_MallocaArrayHolder@PEAVevent@Concurrency@@@details@Concurrency@@UEAA@XZ 0000000140053018 f i libconcrt:TaskCollection.obj
 0001:00052048       ??1_Scoped_lock_read@?$SafeRWList@UListEntry@details@Concurrency@@VNoCount@CollectionTypes@23@V_ReaderWriterLock@23@@details@Concurrency@@QEAA@XZ 0000000140053048 f i libconcrt:TaskCollection.obj
 0001:00052060       ??1_StructuredTaskCollection@details@Concurrency@@QEAA@XZ 0000000140053060 f   libconcrt:TaskCollection.obj
 0001:000520d4       ??1_TaskCollection@details@Concurrency@@QEAA@XZ 00000001400530d4 f   libconcrt:TaskCollection.obj
 0001:000521e4       ??1exception_ptr@std@@QEAA@XZ 00000001400531e4 f i libconcrt:TaskCollection.obj
 0001:000521ec       ??_E?$_MallocaArrayHolder@PEAVevent@Concurrency@@@details@Concurrency@@UEAAPEAXI@Z 00000001400531ec f i libconcrt:TaskCollection.obj
 0001:000521ec       ??_G?$_MallocaArrayHolder@PEAVevent@Concurrency@@@details@Concurrency@@UEAAPEAXI@Z 00000001400531ec f i libconcrt:TaskCollection.obj
 0001:00052240       ?Find@?$Hash@PEAV_TaskCollection@details@Concurrency@@PEAV123@@details@Concurrency@@QEAAPEAUListNode@123@AEBQEAV_TaskCollection@23@PEAPEAV523@@Z 0000000140053240 f i libconcrt:TaskCollection.obj
 0001:000522c0       ?FindAndDelete@?$Hash@PEAV_TaskCollection@details@Concurrency@@PEAV123@@details@Concurrency@@QEAA_NAEBQEAV_TaskCollection@23@PEAPEAV423@@Z 00000001400532c0 f i libconcrt:TaskCollection.obj
 0001:00052370       ?GetArbitraryAlias@ContextBase@details@Concurrency@@QEAAPEAV_TaskCollection@23@PEAV423@@Z 0000000140053370 f i libconcrt:TaskCollection.obj
 0001:000523f4       ?Insert@?$Hash@PEAV_TaskCollection@details@Concurrency@@PEAV123@@details@Concurrency@@QEAAPEAUListNode@123@AEBQEAV_TaskCollection@23@0@Z 00000001400533f4 f i libconcrt:TaskCollection.obj
 0001:000524d4       ?_Abort@_StructuredTaskCollection@details@Concurrency@@AEAAXXZ 00000001400534d4 f   libconcrt:TaskCollection.obj
 0001:000525d0       ?_Abort@_TaskCollection@details@Concurrency@@AEAAX_N@Z 00000001400535d0 f   libconcrt:TaskCollection.obj
 0001:00052770       ?_AbortiveSweep@_TaskCollection@details@Concurrency@@AEAAXPEAX@Z 0000000140053770 f   libconcrt:TaskCollection.obj
 0001:000527e8       ?_Alias@_TaskCollection@details@Concurrency@@AEAAPEAV123@XZ 00000001400537e8 f   libconcrt:TaskCollection.obj
 0001:000528d4       ?_Cancel@_StructuredTaskCollection@details@Concurrency@@QEAAXXZ 00000001400538d4 f   libconcrt:TaskCollection.obj
 0001:0005295c       ?_Cancel@_TaskCollection@details@Concurrency@@AEAAX_NPEAV123@@Z 000000014005395c f   libconcrt:TaskCollection.obj
 0001:00052a44       ?_CancelDirectAliases@_TaskCollection@details@Concurrency@@AEAAX_NPEAV123@@Z 0000000140053a44 f   libconcrt:TaskCollection.obj
 0001:00052a7c       ?_CancelFromArbitraryThread@_TaskCollection@details@Concurrency@@AEAAX_N@Z 0000000140053a7c f   libconcrt:TaskCollection.obj
 0001:00052b40       ?_CancelStolenContexts@_TaskCollection@details@Concurrency@@AEAAX_N0@Z 0000000140053b40 f   libconcrt:TaskCollection.obj
 0001:00052be8       ?_CleanupToken@_StructuredTaskCollection@details@Concurrency@@AEAAXXZ 0000000140053be8 f   libconcrt:TaskCollection.obj
 0001:00052c54       ?_CollectionMatchPredicate@_TaskCollection@details@Concurrency@@CA_NPEAV_UnrealizedChore@23@PEAX@Z 0000000140053c54 f   libconcrt:TaskCollection.obj
 0001:00052c60       ?_CountUp@_StructuredTaskCollection@details@Concurrency@@AEAAXXZ 0000000140053c60 f   libconcrt:TaskCollection.obj
 0001:00052c90       ?_FullAliasWait@_TaskCollection@details@Concurrency@@AEAAXPEAV123@@Z 0000000140053c90 f   libconcrt:TaskCollection.obj
 0001:00052e20       ?_GetStealTrackingList@_TaskCollection@details@Concurrency@@AEBAPEAXXZ 0000000140053e20 f   libconcrt:TaskCollection.obj
 0001:00052e28       ?_Initialize@_StructuredTaskCollection@details@Concurrency@@AEAAXXZ 0000000140053e28 f   libconcrt:TaskCollection.obj
 0001:00052e88       ?_IsMarkedForAbnormalExit@_TaskCollection@details@Concurrency@@QEBA_NXZ 0000000140053e88 f   libconcrt:TaskCollection.obj
 0001:00052e98       ?_IsStaleAlias@_TaskCollection@details@Concurrency@@AEBA_NXZ 0000000140053e98 f   libconcrt:TaskCollection.obj
 0001:00052ea4       ?_NotifyCompletedChoreAndFree@_TaskCollection@details@Concurrency@@AEAAXPEAV_UnrealizedChore@23@@Z 0000000140053ea4 f   libconcrt:TaskCollection.obj
 0001:00052f0c       ?_OriginalCollection@_TaskCollection@details@Concurrency@@QEBAPEAV123@XZ 0000000140053f0c f   libconcrt:TaskCollection.obj
 0001:00052f14       ?_ReleaseAlias@_TaskCollection@details@Concurrency@@AEAAXXZ 0000000140053f14 f   libconcrt:TaskCollection.obj
 0001:00052f50       ?_Reset@_TaskCollection@details@Concurrency@@AEAAXPEAV123@@Z 0000000140053f50 f   libconcrt:TaskCollection.obj
 0001:00053084       ?_RunAndWait@_StructuredTaskCollection@details@Concurrency@@QEAA?AW4_TaskCollectionStatus@23@PEAV_UnrealizedChore@23@@Z 0000000140054084 f   libconcrt:TaskCollection.obj
 0001:000533bc       ?_Schedule@_StructuredTaskCollection@details@Concurrency@@QEAAXPEAV_UnrealizedChore@23@@Z 00000001400543bc f   libconcrt:TaskCollection.obj
 0001:00053444       ?_SetCancelState@_TaskCollection@details@Concurrency@@AEAA_NJ@Z 0000000140054444 f   libconcrt:TaskCollection.obj
 0001:00053470       ?_SweepAbortedChore@_TaskCollection@details@Concurrency@@CA_NPEAV_UnrealizedChore@23@PEAX@Z 0000000140054470 f   libconcrt:TaskCollection.obj
 0001:00053490       ?_TaskCleanup@_TaskCollection@details@Concurrency@@AEAA_N_N@Z 0000000140054490 f   libconcrt:TaskCollection.obj
 0001:0005352c       ?_WaitOnStolenChores@_StructuredTaskCollection@details@Concurrency@@AEAAXJ@Z 000000014005452c f   libconcrt:TaskCollection.obj
 0001:0005356c       ??0ContextBase@details@Concurrency@@QEAA@PEAVSchedulerBase@12@_N@Z 000000014005456c f   libconcrt:ContextBase.obj
 0001:000536b0       ??0_Cancellation_beacon@details@Concurrency@@QEAA@XZ 00000001400546b0 f   libconcrt:ContextBase.obj
 0001:000536f0       ??1?$Hash@PEAV_TaskCollection@details@Concurrency@@PEAV123@@details@Concurrency@@QEAA@XZ 00000001400546f0 f i libconcrt:ContextBase.obj
 0001:0005370c       ??1?$StructuredWorkStealingQueue@V_UnrealizedChore@details@Concurrency@@V_CriticalNonReentrantLock@23@@details@Concurrency@@QEAA@XZ 000000014005470c f i libconcrt:ContextBase.obj
 0001:0005372c       ??1?$WorkStealingQueue@V_UnrealizedChore@details@Concurrency@@V_CriticalNonReentrantLock@23@@details@Concurrency@@QEAA@XZ 000000014005472c f i libconcrt:ContextBase.obj
 0001:0005374c       ??1CancellationBeaconStack@ContextBase@details@Concurrency@@QEAA@XZ 000000014005474c f i libconcrt:ContextBase.obj
 0001:000537ac       ??1Context@Concurrency@@MEAA@XZ 00000001400547ac f i libconcrt:ContextBase.obj
 0001:000537b8       ??1ContextBase@details@Concurrency@@UEAA@XZ 00000001400547b8 f i libconcrt:ContextBase.obj
 0001:00053844       ??1QuickBitSet@details@Concurrency@@QEAA@XZ 0000000140054844 f i libconcrt:ContextBase.obj
 0001:00053850       ??1_Cancellation_beacon@details@Concurrency@@QEAA@XZ 0000000140054850 f   libconcrt:ContextBase.obj
 0001:00053880       ??1_Scoped_lock@_CriticalNonReentrantLock@details@Concurrency@@QEAA@XZ 0000000140054880 f i libconcrt:ContextBase.obj
 0001:00053880       ??1_Scoped_lock@_HyperNonReentrantLock@details@Concurrency@@QEAA@XZ 0000000140054880 f i libconcrt:SchedulerBase.obj
 0001:00053894       ??_EContext@Concurrency@@MEAAPEAXI@Z 0000000140054894 f i libconcrt:ContextBase.obj
 0001:00053894       ??_GContext@Concurrency@@MEAAPEAXI@Z 0000000140054894 f i libconcrt:ContextBase.obj
 0001:000538c0       ??_EContextBase@details@Concurrency@@UEAAPEAXI@Z 00000001400548c0 f i libconcrt:ContextBase.obj
 0001:000538c0       ??_GContextBase@details@Concurrency@@UEAAPEAXI@Z 00000001400548c0 f i libconcrt:ContextBase.obj
 0001:000538f4       ?Add@?$ListArray@VWorkQueue@details@Concurrency@@@details@Concurrency@@QEAAHPEAVWorkQueue@23@@Z 00000001400548f4 f i libconcrt:ContextBase.obj
 0001:00053a88       ?AddStealer@ContextBase@details@Concurrency@@QEAAXPEAV123@_N@Z 0000000140054a88 f   libconcrt:ContextBase.obj
 0001:00053ad8       ?CancelCollection@ContextBase@details@Concurrency@@QEAAXH@Z 0000000140054ad8 f   libconcrt:ContextBase.obj
 0001:00053b48       ?CancelCollectionComplete@ContextBase@details@Concurrency@@QEAA_NH@Z 0000000140054b48 f   libconcrt:ContextBase.obj
 0001:00053b84       ?CancelStealers@ContextBase@details@Concurrency@@QEAAXPEAV_TaskCollectionBase@23@@Z 0000000140054b84 f   libconcrt:ContextBase.obj
 0001:00053ca0       ?CheckForDeletion@?$ListArray@VWorkQueue@details@Concurrency@@@details@Concurrency@@AEAAXXZ 0000000140054ca0 f i libconcrt:ContextBase.obj
 0001:00053d30       ?CheckForDeletionBridge@?$ListArray@VWorkQueue@details@Concurrency@@@details@Concurrency@@CAXPEAV123@@Z 0000000140054d30 f i libconcrt:ContextBase.obj
 0001:00053d38       ?Claim@Slot@?$Mailbox@V_UnrealizedChore@details@Concurrency@@@details@Concurrency@@QEAA_NPEAPEAV_UnrealizedChore@34@@Z 0000000140054d38 f i libconcrt:ContextBase.obj
 0001:00053dac       ?Cleanup@ContextBase@details@Concurrency@@QEAAXXZ 0000000140054dac f   libconcrt:ContextBase.obj
 0001:00053e08       ?ClearAliasTable@ContextBase@details@Concurrency@@QEAAXXZ 0000000140054e08 f   libconcrt:ContextBase.obj
 0001:00053ecc       ?ClearContextTls@ContextBase@details@Concurrency@@AEAAXXZ 0000000140054ecc f   libconcrt:ContextBase.obj
 0001:00053edc       ?CreateStructuredWorkQueue@ContextBase@details@Concurrency@@QEAAXXZ 0000000140054edc f   libconcrt:ContextBase.obj
 0001:00053f80       ?CreateWorkQueue@ContextBase@details@Concurrency@@QEAAXXZ 0000000140054f80 f   libconcrt:ContextBase.obj
 0001:0005401c       ?DetachStealers@ContextBase@details@Concurrency@@QEAAXXZ 000000014005501c f   libconcrt:ContextBase.obj
 0001:000541f4       ?EnterCriticalRegionHelper@ContextBase@details@Concurrency@@UEAAHXZ 00000001400551f4 f i libconcrt:ContextBase.obj
 0001:000541fc       ?EnterHyperCriticalRegionHelper@ContextBase@details@Concurrency@@UEAAHXZ 00000001400551fc f i libconcrt:ContextBase.obj
 0001:00054208       ?ExitCriticalRegionHelper@ContextBase@details@Concurrency@@UEAAHXZ 0000000140055208 f i libconcrt:ContextBase.obj
 0001:00054210       ?ExitHyperCriticalRegionHelper@ContextBase@details@Concurrency@@UEAAHXZ 0000000140055210 f i libconcrt:ContextBase.obj
 0001:00054220       ?FlagCancellationBeacons@ContextBase@details@Concurrency@@QEAAXH@Z 0000000140055220 f   libconcrt:ContextBase.obj
 0001:00054298       ?GetCriticalRegionType@ContextBase@details@Concurrency@@UEBA?AW4CriticalRegionType@3@XZ 0000000140055298 f i libconcrt:ContextBase.obj
 0001:000542ac       ?GetId@ContextBase@details@Concurrency@@UEBAIXZ 00000001400552ac f   libconcrt:ContextBase.obj
 0001:000542b0       ?GetIndirectAlias@ContextBase@details@Concurrency@@QEBAPEAV_TaskCollection@23@XZ 00000001400552b0 f   libconcrt:ContextBase.obj
 0001:000542b8       ?GetScheduleGroup@ContextBase@details@Concurrency@@QEBAPEAVScheduleGroupBase@23@XZ 00000001400552b8 f   libconcrt:ContextBase.obj
 0001:000542cc       ?GetScheduleGroupId@ContextBase@details@Concurrency@@UEBAIXZ 00000001400552cc f   libconcrt:ContextBase.obj
 0001:000542f0       ?GetScheduleGroupSegment@ContextBase@details@Concurrency@@QEBAPEAVScheduleGroupSegmentBase@23@XZ 00000001400552f0 f   libconcrt:ContextBase.obj
 0001:000542f8       ?GetScheduler@ContextBase@details@Concurrency@@QEBAPEAVSchedulerBase@23@XZ 00000001400552f8 f   libconcrt:ContextBase.obj
 0001:00054300       ?Grow@CancellationBeaconStack@ContextBase@details@Concurrency@@AEAAXXZ 0000000140055300 f i libconcrt:ContextBase.obj
 0001:000543d8       ?GrowAndPush@?$StructuredWorkStealingQueue@VInternalContextBase@details@Concurrency@@V_HyperNonReentrantLock@23@@details@Concurrency@@AEAAXPEAVInternalContextBase@23@VSlot@?$Mailbox@VInternalContextBase@details@Concurrency@@@23@@Z 00000001400553d8 f i libconcrt:InternalContextBase.obj
 0001:000543d8       ?GrowAndPush@?$StructuredWorkStealingQueue@V_UnrealizedChore@details@Concurrency@@V_CriticalNonReentrantLock@23@@details@Concurrency@@AEAAXPEAV_UnrealizedChore@23@VSlot@?$Mailbox@V_UnrealizedChore@details@Concurrency@@@23@@Z 00000001400553d8 f i libconcrt:ContextBase.obj
 0001:00054588       ?IsCanceledAtDepth@ContextBase@details@Concurrency@@AEAA_NPEAV_TaskCollectionBase@23@H@Z 0000000140055588 f   libconcrt:ContextBase.obj
 0001:000546a0       ?IsCancellationVisible@ContextBase@details@Concurrency@@QEBA_NPEAV_TaskCollectionBase@23@_N@Z 00000001400556a0 f   libconcrt:ContextBase.obj
 0001:000546f4       ?Pop@?$StructuredWorkStealingQueue@VInternalContextBase@details@Concurrency@@V_HyperNonReentrantLock@23@@details@Concurrency@@QEAAPEAVInternalContextBase@23@XZ 00000001400556f4 f i libconcrt:VirtualProcessor.obj
 0001:000546f4       ?Pop@?$StructuredWorkStealingQueue@V_UnrealizedChore@details@Concurrency@@V_CriticalNonReentrantLock@23@@details@Concurrency@@QEAAPEAV_UnrealizedChore@23@XZ 00000001400556f4 f i libconcrt:ContextBase.obj
 0001:000547a4       ?Pop@?$WorkStealingQueue@V_UnrealizedChore@details@Concurrency@@V_CriticalNonReentrantLock@23@@details@Concurrency@@QEAAPEAV_UnrealizedChore@23@XZ 00000001400557a4 f i libconcrt:ContextBase.obj
 0001:0005487c       ?PopContextFromTls@ContextBase@details@Concurrency@@AEAAPEAV123@XZ 000000014005587c f   libconcrt:ContextBase.obj
 0001:000548b4       ?PopGoverningTokenState@ContextBase@details@Concurrency@@QEAAXPEAV_CancellationTokenState@23@@Z 00000001400558b4 f   libconcrt:ContextBase.obj
 0001:0005494c       ?PopStructured@ContextBase@details@Concurrency@@QEAAPEAV_UnrealizedChore@23@XZ 000000014005594c f   libconcrt:ContextBase.obj
 0001:00054958       ?Push@?$StructuredWorkStealingQueue@VInternalContextBase@details@Concurrency@@V_HyperNonReentrantLock@23@@details@Concurrency@@QEAAXPEAVInternalContextBase@23@@Z 0000000140055958 f i libconcrt:InternalContextBase.obj
 0001:00054958       ?Push@?$StructuredWorkStealingQueue@V_UnrealizedChore@details@Concurrency@@V_CriticalNonReentrantLock@23@@details@Concurrency@@QEAAXPEAV_UnrealizedChore@23@@Z 0000000140055958 f i libconcrt:ContextBase.obj
 0001:00054a08       ?PushCancellationBeacon@ContextBase@details@Concurrency@@QEAAPEAU_Beacon_reference@23@XZ 0000000140055a08 f   libconcrt:ContextBase.obj
 0001:00054ac8       ?PushContextToTls@ContextBase@details@Concurrency@@AEAAXPEAV123@@Z 0000000140055ac8 f   libconcrt:ContextBase.obj
 0001:00054adc       ?PushGoverningTokenState@ContextBase@details@Concurrency@@QEAAXPEAV_CancellationTokenState@23@H@Z 0000000140055adc f   libconcrt:ContextBase.obj
 0001:00054ae8       ?PushStructured@ContextBase@details@Concurrency@@QEAAXPEAV_UnrealizedChore@23@@Z 0000000140055ae8 f   libconcrt:ContextBase.obj
 0001:00054b8c       ?RecomputeMaximumCancellationDepth@ContextBase@details@Concurrency@@AEAAXXZ 0000000140055b8c f   libconcrt:ContextBase.obj
 0001:00054c30       ?ReferenceForCancellation@ContextBase@details@Concurrency@@QEAAXXZ 0000000140055c30 f   libconcrt:ContextBase.obj
 0001:00054c38       ?ReleaseWorkQueue@ContextBase@details@Concurrency@@IEAAXXZ 0000000140055c38 f   libconcrt:ContextBase.obj
 0001:00054d08       ?Remove@?$ListArray@VWorkQueue@details@Concurrency@@@details@Concurrency@@QEAA_NPEAVWorkQueue@23@H_N@Z 0000000140055d08 f i libconcrt:ContextBase.obj
 0001:00054e48       ?RemoveStealer@ContextBase@details@Concurrency@@QEAAXPEAV123@@Z 0000000140055e48 f   libconcrt:ContextBase.obj
 0001:00054ec0       ?SetAsCurrentTls@ContextBase@details@Concurrency@@IEAAXXZ 0000000140055ec0 f   libconcrt:ContextBase.obj
 0001:00054ed0       ?StaticDelete@Segment@?$Mailbox@VInternalContextBase@details@Concurrency@@@details@Concurrency@@SAXPEAU1234@@Z 0000000140055ed0 f i libconcrt:VirtualProcessor.obj
 0001:00054ed0       ?StaticDelete@Segment@?$Mailbox@V_UnrealizedChore@details@Concurrency@@@details@Concurrency@@SAXPEAU1234@@Z 0000000140055ed0 f i libconcrt:ContextBase.obj
 0001:00054f04       ?StaticEnterCriticalRegion@ContextBase@details@Concurrency@@SAXXZ 0000000140055f04 f   libconcrt:ContextBase.obj
 0001:00054f04       ?StaticEnterHyperCriticalRegion@ContextBase@details@Concurrency@@SAXXZ 0000000140055f04 f   libconcrt:ContextBase.obj
 0001:00054f04       ?StaticExitCriticalRegion@ContextBase@details@Concurrency@@SAXXZ 0000000140055f04 f   libconcrt:ContextBase.obj
 0001:00054f04       ?StaticExitHyperCriticalRegion@ContextBase@details@Concurrency@@SAXXZ 0000000140055f04 f   libconcrt:ContextBase.obj
 0001:00054f0c       ?SweepAliasTable@ContextBase@details@Concurrency@@QEAAXXZ 0000000140055f0c f   libconcrt:ContextBase.obj
 0001:00055014       ?SweepUnstructured@ContextBase@details@Concurrency@@QEAAXP6A_NPEAV_UnrealizedChore@23@PEAX@Z12@Z 0000000140056014 f   libconcrt:ContextBase.obj
 0001:00055020       ?SyncPop@?$WorkStealingQueue@V_UnrealizedChore@details@Concurrency@@V_CriticalNonReentrantLock@23@@details@Concurrency@@AEAAPEAV_UnrealizedChore@23@XZ 0000000140056020 f i libconcrt:ContextBase.obj
 0001:00055124       ?ThrowContextEvent@ContextBase@details@Concurrency@@KAXW4ConcRT_EventType@3@EKK@Z 0000000140056124 f   libconcrt:ContextBase.obj
 0001:0005519c       ?TokenHidesCancellation@ContextBase@details@Concurrency@@QEBA_NPEAV_TaskCollectionBase@23@_N@Z 000000014005619c f   libconcrt:ContextBase.obj
 0001:000551f8       ?TryPop@?$WorkStealingQueue@V_UnrealizedChore@details@Concurrency@@V_CriticalNonReentrantLock@23@@details@Concurrency@@QEAAPEAV_UnrealizedChore@23@H@Z 00000001400561f8 f i libconcrt:ContextBase.obj
 0001:000552c4       ?TryPopUnstructured@ContextBase@details@Concurrency@@QEAAPEAV_UnrealizedChore@23@H@Z 00000001400562c4 f   libconcrt:ContextBase.obj
 0001:000552d4       ?Wipe@?$Hash@PEAV_TaskCollection@details@Concurrency@@PEAV123@@details@Concurrency@@QEAAXXZ 00000001400562d4 f i libconcrt:ContextBase.obj
 0001:00055364       ?_Confirm_cancel@_Cancellation_beacon@details@Concurrency@@QEAA_NXZ 0000000140056364 f   libconcrt:ContextBase.obj
 0001:000553b4       ??0Etw@details@Concurrency@@AEAA@XZ 00000001400563b4 f   libconcrt:Trace.obj
 0001:000554ec       ??1_Scoped_lock@_NonReentrantLock@details@Concurrency@@QEAA@XZ 00000001400564ec f i libconcrt:Trace.obj
 0001:000554f8       ?ControlCallback@details@Concurrency@@YAKW4WMIDPREQUESTCODE@@PEAXPEAK1@Z 00000001400564f8 f   libconcrt:Trace.obj
 0001:000555ec       ?GetEnableFlags@Etw@details@Concurrency@@QEAAK_K@Z 00000001400565ec f   libconcrt:Trace.obj
 0001:00055634       ?GetEnableLevel@Etw@details@Concurrency@@QEAAE_K@Z 0000000140056634 f   libconcrt:Trace.obj
 0001:0005567c       ?GetLoggerHandle@Etw@details@Concurrency@@QEAA_KPEAX@Z 000000014005667c f   libconcrt:Trace.obj
 0001:000556c8       ?PPL_Trace_Event@details@Concurrency@@YAXAEBU_GUID@@W4ConcRT_EventType@2@E@Z 00000001400566c8 f   libconcrt:Trace.obj
 0001:00055738       ?RegisterGuids@Etw@details@Concurrency@@QEAAKP6AKW4WMIDPREQUESTCODE@@PEAXPEAK1@ZPEBU_GUID@@KPEAU_TRACE_GUID_REGISTRATION@@PEA_K@Z 0000000140056738 f   libconcrt:Trace.obj
 0001:000557c8       ?Trace@Etw@details@Concurrency@@QEAAK_KPEAU_EVENT_TRACE_HEADER@@@Z 00000001400567c8 f   libconcrt:Trace.obj
 0001:00055818       ?UnregisterGuids@Etw@details@Concurrency@@QEAAK_K@Z 0000000140056818 f   libconcrt:Trace.obj
 0001:00055858       ?_RegisterConcRTEventTracing@details@Concurrency@@YAXXZ 0000000140056858 f   libconcrt:Trace.obj
 0001:0005591c       ?_Trace_ppl_function@Concurrency@@YAXAEBU_GUID@@EW4ConcRT_EventType@1@@Z 000000014005691c f   libconcrt:Trace.obj
 0001:00055974       ?_UnregisterConcRTEventTracing@details@Concurrency@@YAXXZ 0000000140056974 f   libconcrt:Trace.obj
 0001:000559c4       ?_GetCombinableSize@details@Concurrency@@YA_KXZ 00000001400569c4 f   libconcrt:ppl.obj
 0001:00055a08       ??1DefaultWaiterPool@platform@details@Concurrency@@QEAA@XZ 0000000140056a08 f i libconcrt:Platform.obj
 0001:00055a74       ?__CloseThreadHandle@platform@details@Concurrency@@YAXPEAX@Z 0000000140056a74 f   libconcrt:Platform.obj
 0001:00055a7c       ?__CreateAutoResetEvent@platform@details@Concurrency@@YAPEAX_N@Z 0000000140056a7c f   libconcrt:Platform.obj
 0001:00055ad4       ?__CreateThread@platform@details@Concurrency@@YAPEAXPEAU_SECURITY_ATTRIBUTES@@_KP6AKPEAX@Z2KPEAK@Z 0000000140056ad4 f   libconcrt:Platform.obj
 0001:00055adc       ?__GetCurrentProcessorNumberEx@platform@details@Concurrency@@YAXPEAU_PROCESSOR_NUMBER@@@Z 0000000140056adc f   libconcrt:Platform.obj
 0001:00055ae4       ?__GetLogicalProcessorInformationEx@platform@details@Concurrency@@YAPEAU_SYSTEM_LOGICAL_PROCESSOR_INFORMATION_EX@@W4_LOGICAL_PROCESSOR_RELATIONSHIP@@PEAK@Z 0000000140056ae4 f   libconcrt:Platform.obj
 0001:00055bc0       ?__GetNumaHighestNodeNumber@platform@details@Concurrency@@YAKXZ 0000000140056bc0 f   libconcrt:Platform.obj
 0001:00055c0c       ?__GetThreadGroupAffinity@platform@details@Concurrency@@YAHPEAXPEAU_GROUP_AFFINITY@@@Z 0000000140056c0c f   libconcrt:Platform.obj
 0001:00055c20       ?__GetThreadPriority@platform@details@Concurrency@@YAHPEAX@Z 0000000140056c20 f   libconcrt:Platform.obj
 0001:00055c28       ?__GetTickCount64@platform@details@Concurrency@@YA_KXZ 0000000140056c28 f   libconcrt:Platform.obj
 0001:00055c30       ?__InitializeCriticalSectionEx@platform@details@Concurrency@@YAHPEAU_RTL_CRITICAL_SECTION@@K@Z 0000000140056c30 f   libconcrt:Platform.obj
 0001:00055c3c       ?__SetThreadGroupAffinity@platform@details@Concurrency@@YAHPEAXPEBU_GROUP_AFFINITY@@@Z 0000000140056c3c f   libconcrt:Platform.obj
 0001:00055c54       ?__SetThreadPriority@platform@details@Concurrency@@YAXPEAXH@Z 0000000140056c54 f   libconcrt:Platform.obj
 0001:00055c98       ?__SignalObjectAndWait@platform@details@Concurrency@@YAKPEAX0KH@Z 0000000140056c98 f   libconcrt:Platform.obj
 0001:00055ca0       ?__Sleep@platform@details@Concurrency@@YAXK@Z 0000000140056ca0 f   libconcrt:Platform.obj
 0001:00055ca8       ?__SwitchToThread@platform@details@Concurrency@@YAXXZ 0000000140056ca8 f   libconcrt:Platform.obj
 0001:00055cb0       ?__TlsAlloc@platform@details@Concurrency@@YAKXZ 0000000140056cb0 f   libconcrt:Platform.obj
 0001:00055cf4       ?__TlsFree@platform@details@Concurrency@@YAXK@Z 0000000140056cf4 f   libconcrt:Platform.obj
 0001:00055cfc       ?__TlsGetValue@platform@details@Concurrency@@YAPEAXK@Z 0000000140056cfc f   libconcrt:Platform.obj
 0001:00055d04       ?__TlsSetValue@platform@details@Concurrency@@YAXKPEAX@Z 0000000140056d04 f   libconcrt:Platform.obj
 0001:00055d48       ?__WaitForThread@platform@details@Concurrency@@YAKPEAXK@Z 0000000140056d48 f   libconcrt:Platform.obj
 0001:00055d54       ??0?$ListArray@U?$ListArrayInlineLink@VWorkQueue@details@Concurrency@@@details@Concurrency@@@details@Concurrency@@QEAA@PEAVSchedulerBase@12@HH@Z 0000000140056d54 f i libconcrt:ScheduleGroupBase.obj
 0001:00055d54       ??0?$ListArray@VExternalStatistics@details@Concurrency@@@details@Concurrency@@QEAA@PEAVSchedulerBase@12@HH@Z 0000000140056d54 f i libconcrt:SchedulerBase.obj
 0001:00055d54       ??0?$ListArray@VScheduleGroupBase@details@Concurrency@@@details@Concurrency@@QEAA@PEAVSchedulerBase@12@HH@Z 0000000140056d54 f i libconcrt:SchedulerBase.obj
 0001:00055d54       ??0?$ListArray@VScheduleGroupSegmentBase@details@Concurrency@@@details@Concurrency@@QEAA@PEAVSchedulerBase@12@HH@Z 0000000140056d54 f i libconcrt:SchedulingRing.obj
 0001:00055d54       ??0?$ListArray@VVirtualProcessor@details@Concurrency@@@details@Concurrency@@QEAA@PEAVSchedulerBase@12@HH@Z 0000000140056d54 f i libconcrt:SchedulingNode.obj
 0001:00055d54       ??0?$ListArray@VWorkQueue@details@Concurrency@@@details@Concurrency@@QEAA@PEAVSchedulerBase@12@HH@Z 0000000140056d54 f i libconcrt:ScheduleGroupBase.obj
 0001:00055e98       ??0NumaInformation@SchedulerBase@details@Concurrency@@QEAA@XZ 0000000140056e98 f i libconcrt:SchedulerBase.obj
 0001:00055eac       ??0SchedulerBase@details@Concurrency@@QEAA@AEBVSchedulerPolicy@2@@Z 0000000140056eac f   libconcrt:SchedulerBase.obj
 0001:000561f0       ??0improper_scheduler_attach@Concurrency@@QEAA@AEBV01@@Z 00000001400571f0 f i libconcrt:SchedulerBase.obj
 0001:0005622c       ??0improper_scheduler_reference@Concurrency@@QEAA@AEBV01@@Z 000000014005722c f i libconcrt:SchedulerBase.obj
 0001:00056268       ??1?$Hash@II@details@Concurrency@@QEAA@XZ 0000000140057268 f i libconcrt:SchedulerBase.obj
 0001:00056284       ??1?$ListArray@VExternalStatistics@details@Concurrency@@@details@Concurrency@@QEAA@XZ 0000000140057284 f i libconcrt:SchedulerBase.obj
 0001:00056378       ??1?$ListArray@VScheduleGroupBase@details@Concurrency@@@details@Concurrency@@QEAA@XZ 0000000140057378 f i libconcrt:SchedulerBase.obj
 0001:0005649c       ??1NumaInformation@SchedulerBase@details@Concurrency@@QEAA@XZ 000000014005749c f i libconcrt:SchedulerBase.obj
 0001:000564bc       ??1ReferenceCountedQuickBitSet@details@Concurrency@@QEAA@XZ 00000001400574bc f i libconcrt:SchedulerBase.obj
 0001:000564dc       ??1ScheduleGroup@Concurrency@@MEAA@XZ 00000001400574dc f i libconcrt:SchedulerBase.obj
 0001:000564e8       ??1Scheduler@Concurrency@@MEAA@XZ 00000001400574e8 f i libconcrt:SchedulerBase.obj
 0001:000564f4       ??1SchedulerBase@details@Concurrency@@UEAA@XZ 00000001400574f4 f   libconcrt:SchedulerBase.obj
 0001:000565cc       ??_ECacheLocalScheduleGroup@details@Concurrency@@UEAAPEAXI@Z 00000001400575cc f i libconcrt:SchedulerBase.obj
 0001:000565cc       ??_EScheduleGroupBase@details@Concurrency@@UEAAPEAXI@Z 00000001400575cc f i libconcrt:ScheduleGroupBase.obj
 0001:000565cc       ??_GCacheLocalScheduleGroup@details@Concurrency@@UEAAPEAXI@Z 00000001400575cc f i libconcrt:SchedulerBase.obj
 0001:000565cc       ??_GScheduleGroupBase@details@Concurrency@@UEAAPEAXI@Z 00000001400575cc f i libconcrt:ScheduleGroupBase.obj
 0001:000565f8       ??_ECacheLocalScheduleGroupSegment@details@Concurrency@@UEAAPEAXI@Z 00000001400575f8 f i libconcrt:SchedulerBase.obj
 0001:000565f8       ??_EFairScheduleGroupSegment@details@Concurrency@@UEAAPEAXI@Z 00000001400575f8 f i libconcrt:SchedulerBase.obj
 0001:000565f8       ??_GCacheLocalScheduleGroupSegment@details@Concurrency@@UEAAPEAXI@Z 00000001400575f8 f i libconcrt:SchedulerBase.obj
 0001:000565f8       ??_GFairScheduleGroupSegment@details@Concurrency@@UEAAPEAXI@Z 00000001400575f8 f i libconcrt:SchedulerBase.obj
 0001:0005662c       ??_EFairScheduleGroup@details@Concurrency@@UEAAPEAXI@Z 000000014005762c f i libconcrt:SchedulerBase.obj
 0001:0005662c       ??_GFairScheduleGroup@details@Concurrency@@UEAAPEAXI@Z 000000014005762c f i libconcrt:SchedulerBase.obj
 0001:00056658       ??_ERealizedChore@details@Concurrency@@UEAAPEAXI@Z 0000000140057658 f i libconcrt:SchedulerBase.obj
 0001:00056658       ??_GRealizedChore@details@Concurrency@@UEAAPEAXI@Z 0000000140057658 f i libconcrt:SchedulerBase.obj
 0001:00056684       ??_EScheduleGroup@Concurrency@@MEAAPEAXI@Z 0000000140057684 f i libconcrt:SchedulerBase.obj
 0001:00056684       ??_GScheduleGroup@Concurrency@@MEAAPEAXI@Z 0000000140057684 f i libconcrt:SchedulerBase.obj
 0001:000566b0       ??_EScheduler@Concurrency@@MEAAPEAXI@Z 00000001400576b0 f i libconcrt:SchedulerBase.obj
 0001:000566b0       ??_GScheduler@Concurrency@@MEAAPEAXI@Z 00000001400576b0 f i libconcrt:SchedulerBase.obj
 0001:000566dc       ??_ESchedulerBase@details@Concurrency@@UEAAPEAXI@Z 00000001400576dc f i libconcrt:SchedulerBase.obj
 0001:000566dc       ??_GSchedulerBase@details@Concurrency@@UEAAPEAXI@Z 00000001400576dc f i libconcrt:SchedulerBase.obj
 0001:00056710       ?Add@?$ListArray@VScheduleGroupBase@details@Concurrency@@@details@Concurrency@@QEAAHPEAVScheduleGroupBase@23@@Z 0000000140057710 f i libconcrt:SchedulerBase.obj
 0001:000568a4       ?AddContext@SchedulerBase@details@Concurrency@@QEAAXPEAVInternalContextBase@23@@Z 00000001400578a4 f   libconcrt:SchedulerBase.obj
 0001:00056904       ?AddTail@?$SafeRWList@VWaitNode@SchedulerBase@details@Concurrency@@VNoCount@CollectionTypes@34@V_ReaderWriterLock@34@@details@Concurrency@@QEAAXPEAVWaitNode@SchedulerBase@23@@Z 0000000140057904 f i libconcrt:SchedulerBase.obj
 0001:00056970       ?AddVirtualProcessors@SchedulerBase@details@Concurrency@@IEAAXPEAPEAUIVirtualProcessorRoot@3@I@Z 0000000140057970 f   libconcrt:SchedulerBase.obj
 0001:00056a58       ?AllocateSegment@CacheLocalScheduleGroup@details@Concurrency@@MEAAPEAVScheduleGroupSegmentBase@23@PEAVSchedulingRing@23@PEAVlocation@3@@Z 0000000140057a58 f i libconcrt:SchedulerBase.obj
 0001:00056adc       ?AllocateSegment@FairScheduleGroup@details@Concurrency@@MEAAPEAVScheduleGroupSegmentBase@23@PEAVSchedulingRing@23@PEAVlocation@3@@Z 0000000140057adc f i libconcrt:SchedulerBase.obj
 0001:00056b68       ?Attach@SchedulerBase@details@Concurrency@@UEAAXXZ 0000000140057b68 f   libconcrt:SchedulerBase.obj
 0001:00056bd0       ?AttachExternalContext@SchedulerBase@details@Concurrency@@AEAAPEAVExternalContextBase@23@_N@Z 0000000140057bd0 f   libconcrt:SchedulerBase.obj
 0001:00056c78       ?AttemptSchedulerSweep@SchedulerBase@details@Concurrency@@IEAAXXZ 0000000140057c78 f   libconcrt:SchedulerBase.obj
 0001:00056c9c       ?CancelAllContexts@SchedulerBase@details@Concurrency@@MEAAXXZ 0000000140057c9c f   libconcrt:SchedulerBase.obj
 0001:00056ce0       ?ChangeThrottlingTimer@SchedulerBase@details@Concurrency@@AEAAXK@Z 0000000140057ce0 f   libconcrt:SchedulerBase.obj
 0001:00056d14       ?CheckForDeletion@?$ListArray@VScheduleGroupBase@details@Concurrency@@@details@Concurrency@@AEAAXXZ 0000000140057d14 f i libconcrt:SchedulerBase.obj
 0001:00056d80       ?CheckForDeletionBridge@?$ListArray@VExternalStatistics@details@Concurrency@@@details@Concurrency@@CAXPEAV123@@Z 0000000140057d80 f i libconcrt:SchedulerBase.obj
 0001:00056ddc       ?CheckForDeletionBridge@?$ListArray@VScheduleGroupBase@details@Concurrency@@@details@Concurrency@@CAXPEAV123@@Z 0000000140057ddc f i libconcrt:SchedulerBase.obj
 0001:00056de4       ?CheckOneShotStaticDestruction@SchedulerBase@details@Concurrency@@SAXXZ 0000000140057de4 f   libconcrt:SchedulerBase.obj
 0001:00056e24       ?CheckStaticConstruction@SchedulerBase@details@Concurrency@@CAXXZ 0000000140057e24 f   libconcrt:SchedulerBase.obj
 0001:00056ed4       ?Cleanup@SchedulerBase@details@Concurrency@@AEAAXXZ 0000000140057ed4 f   libconcrt:SchedulerBase.obj
 0001:00056fe8       ?CommitSafePoints@SchedulerBase@details@Concurrency@@QEAAXXZ 0000000140057fe8 f   libconcrt:SchedulerBase.obj
 0001:00057050       ?CommitToVersion@SchedulerBase@details@Concurrency@@AEAAXK@Z 0000000140058050 f   libconcrt:SchedulerBase.obj
 0001:00057120       ?ComputeSafePointCommitVersion@SchedulerBase@details@Concurrency@@AEAAKXZ 0000000140058120 f   libconcrt:SchedulerBase.obj
 0001:00057234       ?CopyFrom@QuickBitSet@details@Concurrency@@IEAAXAEBV123@@Z 0000000140058234 f i libconcrt:SchedulerBase.obj
 0001:00057320       ?CreateContextFromDefaultScheduler@SchedulerBase@details@Concurrency@@SAPEAVContextBase@23@XZ 0000000140058320 f   libconcrt:SchedulerBase.obj
 0001:00057360       ?CreateScheduleGroup@SchedulerBase@details@Concurrency@@UEAAPEAVScheduleGroup@3@AEAVlocation@3@@Z 0000000140058360 f i libconcrt:SchedulerBase.obj
 0001:00057368       ?CreateScheduleGroup@SchedulerBase@details@Concurrency@@UEAAPEAVScheduleGroup@3@XZ 0000000140058368 f i libconcrt:SchedulerBase.obj
 0001:00057390       ?CreateWithoutInitializing@SchedulerBase@details@Concurrency@@SAPEAV123@AEBVSchedulerPolicy@3@@Z 0000000140058390 f   libconcrt:SchedulerBase.obj
 0001:000573c0       ?CurrentScheduler@SchedulerBase@details@Concurrency@@SAPEAV123@XZ 00000001400583c0 f   libconcrt:SchedulerBase.obj
 0001:000573f4       ?DecrementInternalContextCount@SchedulerBase@details@Concurrency@@QEAAXXZ 00000001400583f4 f   libconcrt:SchedulerBase.obj
 0001:00057414       ?DeferredGetInternalContext@SchedulerBase@details@Concurrency@@QEAAXXZ 0000000140058414 f   libconcrt:SchedulerBase.obj
 0001:00057438       ?DestroySchedulerEventHandlers@SchedulerBase@details@Concurrency@@MEAAXXZ 0000000140058438 f   libconcrt:SchedulerBase.obj
 0001:0005746c       ?DetachExternalContext@SchedulerBase@details@Concurrency@@AEAAXPEAVExternalContextBase@23@_N@Z 000000014005846c f   libconcrt:SchedulerBase.obj
 0001:000574dc       ?FastCurrentContext@SchedulerBase@details@Concurrency@@SAPEAVContextBase@23@XZ 00000001400584dc f   libconcrt:SchedulerBase.obj
 0001:000574e8       ?FastCurrentScheduler@SchedulerBase@details@Concurrency@@SAPEAV123@XZ 00000001400584e8 f   libconcrt:SchedulerBase.obj
 0001:0005750c       ?Fill@QuickBitSet@details@Concurrency@@QEAAXXZ 000000014005850c f i libconcrt:SchedulerBase.obj
 0001:000575ac       ?Finalize@SchedulerBase@details@Concurrency@@AEAAXXZ 00000001400585ac f   libconcrt:SchedulerBase.obj
 0001:00057740       ?Find@?$Hash@II@details@Concurrency@@QEAAPEAUListNode@123@AEBIPEAI@Z 0000000140058740 f i libconcrt:SchedulerBase.obj
 0001:000577bc       ?FindCurrentNode@SchedulerBase@details@Concurrency@@QEAAPEAVSchedulingNode@23@XZ 00000001400587bc f   libconcrt:SchedulerBase.obj
 0001:00057820       ?FindNodeByLocation@SchedulerBase@details@Concurrency@@QEAAPEAVSchedulingNode@23@PEAVlocation@3@@Z 0000000140058820 f   libconcrt:SchedulerBase.obj
 0001:00057888       ?FindScheduleGroupSegment@SchedulingRing@details@Concurrency@@AEAAPEAVScheduleGroupSegmentBase@23@HHPEAHPEAV?$ListArray@VScheduleGroupSegmentBase@details@Concurrency@@@23@@Z 0000000140058888 f i libconcrt:SchedulerBase.obj
 0001:0005790c       ?FindVirtualProcessor@SchedulingNode@details@Concurrency@@QEAAPEAVVirtualProcessor@23@HHPEAH@Z 000000014005890c f i libconcrt:SchedulerBase.obj
 0001:00057998       ?FoundAvailableVirtualProcessor@SchedulerBase@details@Concurrency@@QEAA_NAEAVClaimTicket@VirtualProcessor@23@Vlocation@3@K@Z 0000000140058998 f   libconcrt:SchedulerBase.obj
 0001:00057b0c       ?FoundBlockedContexts@SchedulerBase@details@Concurrency@@AEAA_NXZ 0000000140058b0c f   libconcrt:SchedulerBase.obj
 0001:00057b40       ?FoundUnstartedChores@SchedulerBase@details@Concurrency@@AEAA_NXZ 0000000140058b40 f   libconcrt:SchedulerBase.obj
 0001:00057cfc       ?GetAnonymousScheduleGroupSegment@SchedulerBase@details@Concurrency@@QEAAPEAVScheduleGroupSegmentBase@23@XZ 0000000140058cfc f   libconcrt:SchedulerBase.obj
 0001:00057d10       ?GetBitSet@SchedulerBase@details@Concurrency@@QEAA?AVQuickBitSet@23@PEBVlocation@3@@Z 0000000140058d10 f   libconcrt:SchedulerBase.obj
 0001:00057e10       ?GetDefaultScheduler@SchedulerBase@details@Concurrency@@CAPEAV123@XZ 0000000140058e10 f   libconcrt:SchedulerBase.obj
 0001:00057eec       ?GetExternalContext@SchedulerBase@details@Concurrency@@AEAAPEAVExternalContextBase@23@_N@Z 0000000140058eec f   libconcrt:SchedulerBase.obj
 0001:00057f64       ?GetInternalContext@SchedulerBase@details@Concurrency@@QEAAPEAVInternalContextBase@23@_N@Z 0000000140058f64 f   libconcrt:SchedulerBase.obj
 0001:00058098       ?GetNewContextId@SchedulerBase@details@Concurrency@@QEAAIXZ 0000000140059098 f   libconcrt:SchedulerBase.obj
 0001:000580a8       ?GetNewScheduleGroupId@SchedulerBase@details@Concurrency@@QEAAIXZ 00000001400590a8 f   libconcrt:SchedulerBase.obj
 0001:000580b8       ?GetNewWorkQueueId@SchedulerBase@details@Concurrency@@SAIXZ 00000001400590b8 f   libconcrt:SchedulerBase.obj
 0001:000580c8       ?GetNextAffineScheduleGroupSegment@SchedulingRing@details@Concurrency@@QEAAPEAVScheduleGroupSegmentBase@23@PEAHH@Z 00000001400590c8 f i libconcrt:SchedulerBase.obj
 0001:00058134       ?GetNextNonAffineScheduleGroupSegment@SchedulingRing@details@Concurrency@@QEAAPEAVScheduleGroupSegmentBase@23@PEAHH@Z 0000000140059134 f i libconcrt:SchedulerBase.obj
 0001:000581a0       ?GetNextPriorityObject@SchedulerBase@details@Concurrency@@QEAAPEAUBoostedObject@23@XZ 00000001400591a0 f   libconcrt:SchedulerBase.obj
 0001:00058228       ?GetNextSchedulingRing@SchedulerBase@details@Concurrency@@QEAAPEAVSchedulingRing@23@PEBV423@PEAV423@@Z 0000000140059228 f   libconcrt:SchedulerBase.obj
 0001:00058274       ?GetNextSchedulingRing@SchedulerBase@details@Concurrency@@QEAAPEAVSchedulingRing@23@XZ 0000000140059274 f   libconcrt:SchedulerBase.obj
 0001:000582b0       ?GetNumberOfVirtualProcessors@SchedulerBase@details@Concurrency@@UEBAIXZ 00000001400592b0 f i libconcrt:SchedulerBase.obj
 0001:000582b4       ?GetPolicy@SchedulerBase@details@Concurrency@@UEBA?AVSchedulerPolicy@3@XZ 00000001400592b4 f   libconcrt:SchedulerBase.obj
 0001:000582d4       ?GetRealizedChore@SchedulerBase@details@Concurrency@@QEAAPEAVRealizedChore@23@P6AXPEAX@Z0@Z 00000001400592d4 f   libconcrt:SchedulerBase.obj
 0001:0005833c       ?GetRunnableContext@CacheLocalScheduleGroupSegment@details@Concurrency@@EEAAPEAVInternalContextBase@23@XZ 000000014005933c f i libconcrt:SchedulerBase.obj
 0001:0005833c       ?GetRunnableContext@FairScheduleGroupSegment@details@Concurrency@@EEAAPEAVInternalContextBase@23@XZ 000000014005933c f i libconcrt:SchedulerBase.obj
 0001:000583a4       ?GetSubAllocator@SchedulerBase@details@Concurrency@@SAPEAVSubAllocator@23@_N@Z 00000001400593a4 f   libconcrt:SchedulerBase.obj
 0001:00058444       ?GetValidSchedulingRingIndex@SchedulerBase@details@Concurrency@@AEAAHH@Z 0000000140059444 f   libconcrt:SchedulerBase.obj
 0001:0005847c       ?Grow@QuickBitSet@details@Concurrency@@QEAAXI@Z 000000014005947c f i libconcrt:SchedulerBase.obj
 0001:00058578       ?Grow@ReferenceCountedQuickBitSet@details@Concurrency@@QEAAXI@Z 0000000140059578 f i libconcrt:SchedulerBase.obj
 0001:00058628       ?HasCompletedShutdown@SchedulerBase@details@Concurrency@@QEAA_NXZ 0000000140059628 f   libconcrt:SchedulerBase.obj
 0001:0005863c       ?GetId@InternalContextBase@details@Concurrency@@UEBAIXZ 000000014005963c f i libconcrt:InternalContextBase.obj
 0001:0005863c       ?Id@ScheduleGroupBase@details@Concurrency@@UEBAIXZ 000000014005963c f i libconcrt:SchedulerBase.obj
 0001:00058640       ?Id@SchedulerBase@details@Concurrency@@UEBAIXZ 0000000140059640 f i libconcrt:SchedulerBase.obj
 0001:00058648       ?Initialize@SchedulerBase@details@Concurrency@@AEAAXXZ 0000000140059648 f   libconcrt:SchedulerBase.obj
 0001:00058ba8       ?InitializeSchedulerEventHandlers@SchedulerBase@details@Concurrency@@MEAAXXZ 0000000140059ba8 f   libconcrt:SchedulerBase.obj
 0001:00058bb0       ?Insert@?$Hash@II@details@Concurrency@@QEAAPEAUListNode@123@AEBI0@Z 0000000140059bb0 f i libconcrt:SchedulerBase.obj
 0001:00058c8c       ?InternalCreateScheduleGroup@SchedulerBase@details@Concurrency@@AEAAPEAVScheduleGroup@3@PEAVlocation@3@@Z 0000000140059c8c f   libconcrt:SchedulerBase.obj
 0001:00058d94       ?InvokeAtNextSafePoint@SafePointInvocation@details@Concurrency@@QEAAXP6AXPEAX@Z0PEAVSchedulerBase@23@@Z 0000000140059d94 f   libconcrt:SchedulerBase.obj
 0001:00058dc0       ?InvokeOnSafePoint@SchedulerBase@details@Concurrency@@AEAAXPEAVSafePointInvocation@23@@Z 0000000140059dc0 f   libconcrt:SchedulerBase.obj
 0001:00058e3c       ?IsAvailableLocation@SchedulerBase@details@Concurrency@@UEBA_NAEBVlocation@3@@Z 0000000140059e3c f   libconcrt:SchedulerBase.obj
 0001:00058ea0       ?MailChore@FairScheduleGroup@details@Concurrency@@UEAA?AVSlot@?$Mailbox@V_UnrealizedChore@details@Concurrency@@@23@PEAV_UnrealizedChore@23@PEAVlocation@3@PEAPEAVScheduleGroupSegmentBase@23@@Z 0000000140059ea0 f i libconcrt:SchedulerBase.obj
 0001:00058eb4       ?MarkSafePoint@SchedulerBase@details@Concurrency@@QEAA_NPEAVSafePointMarker@23@@Z 0000000140059eb4 f   libconcrt:SchedulerBase.obj
 0001:00058ed0       ?NotifyThrottledContext@SchedulerBase@details@Concurrency@@AEAA_NPEAVInternalContextBase@23@@Z 0000000140059ed0 f   libconcrt:SchedulerBase.obj
 0001:00058f84       ?PerformServiceScan@SchedulerBase@details@Concurrency@@AEAAX_K@Z 0000000140059f84 f   libconcrt:SchedulerBase.obj
 0001:00059258       ?PhaseOneShutdown@SchedulerBase@details@Concurrency@@AEAAXXZ 000000014005a258 f   libconcrt:SchedulerBase.obj
 0001:00059338       ?PhaseTwoShutdown@SchedulerBase@details@Concurrency@@AEAAXXZ 000000014005a338 f   libconcrt:SchedulerBase.obj
 0001:00059410       ?PushRunnableToInactive@SchedulerBase@details@Concurrency@@UEAA_NPEAVInternalContextBase@23@Vlocation@3@@Z 000000014005a410 f   libconcrt:SchedulerBase.obj
 0001:000594c4       ?Reference@ScheduleGroupBase@details@Concurrency@@UEAAIXZ 000000014005a4c4 f i libconcrt:SchedulerBase.obj
 0001:000594dc       ?Reference@SchedulerBase@details@Concurrency@@UEAAIXZ 000000014005a4dc f   libconcrt:SchedulerBase.obj
 0001:00059568       ?RegisterShutdownEvent@SchedulerBase@details@Concurrency@@UEAAXPEAX@Z 000000014005a568 f   libconcrt:SchedulerBase.obj
 0001:00059658       ?Release@ScheduleGroupBase@details@Concurrency@@UEAAIXZ 000000014005a658 f i libconcrt:SchedulerBase.obj
 0001:000596b0       ?Release@SchedulerBase@details@Concurrency@@UEAAIXZ 000000014005a6b0 f   libconcrt:SchedulerBase.obj
 0001:000596d4       ?ReleaseExternalContext@SchedulerBase@details@Concurrency@@AEAAXPEAVExternalContextBase@23@@Z 000000014005a6d4 f   libconcrt:SchedulerBase.obj
 0001:00059748       ?ReleaseInternalContext@SchedulerBase@details@Concurrency@@QEAAXPEAVInternalContextBase@23@_N@Z 000000014005a748 f   libconcrt:SchedulerBase.obj
 0001:00059794       ?ReleaseRealizedChore@SchedulerBase@details@Concurrency@@QEAAXPEAVRealizedChore@23@@Z 000000014005a794 f   libconcrt:SchedulerBase.obj
 0001:00059800       ?ReleaseReservedContexts@SchedulerBase@details@Concurrency@@QEAAXXZ 000000014005a800 f   libconcrt:SchedulerBase.obj
 0001:00059894       ?Remove@?$ListArray@VExternalStatistics@details@Concurrency@@@details@Concurrency@@QEAA_NPEAVExternalStatistics@23@H_N@Z 000000014005a894 f i libconcrt:SchedulerBase.obj
 0001:00059a2c       ?Remove@?$ListArray@VScheduleGroupBase@details@Concurrency@@@details@Concurrency@@QEAA_NPEAVScheduleGroupBase@23@H_N@Z 000000014005aa2c f i libconcrt:SchedulerBase.obj
 0001:00059b94       ?RemoveHead@?$SafeRWList@VWaitNode@SchedulerBase@details@Concurrency@@VNoCount@CollectionTypes@34@V_ReaderWriterLock@34@@details@Concurrency@@QEAAPEAVWaitNode@SchedulerBase@23@XZ 000000014005ab94 f i libconcrt:SchedulerBase.obj
 0001:00059bf8       ?RemovePrioritizedObject@SchedulerBase@details@Concurrency@@QEAAXPEAUBoostedObject@23@@Z 000000014005abf8 f   libconcrt:SchedulerBase.obj
 0001:00059c7c       ?RemoveScheduleGroup@SchedulerBase@details@Concurrency@@QEAAXPEAVScheduleGroupBase@23@@Z 000000014005ac7c f   libconcrt:SchedulerBase.obj
 0001:00059c90       ?RemoveSegments@FairScheduleGroup@details@Concurrency@@MEAAXXZ 000000014005ac90 f i libconcrt:SchedulerBase.obj
 0001:00059cac       ?RemoveVirtualProcessors@SchedulerBase@details@Concurrency@@IEAAXPEAPEAUIVirtualProcessorRoot@3@I@Z 000000014005acac f   libconcrt:SchedulerBase.obj
 0001:00059dd0       ?Resurrect@SchedulerBase@details@Concurrency@@AEAAXXZ 000000014005add0 f   libconcrt:SchedulerBase.obj
 0001:00059e4c       ?ReturnSubAllocator@SchedulerBase@details@Concurrency@@SAXPEAVSubAllocator@23@@Z 000000014005ae4c f   libconcrt:SchedulerBase.obj
 0001:00059ebc       ?SafeFastCurrentContext@SchedulerBase@details@Concurrency@@SAPEAVContextBase@23@XZ 000000014005aebc f   libconcrt:SchedulerBase.obj
 0001:00059ed8       ?SafeFastCurrentScheduler@SchedulerBase@details@Concurrency@@SAPEAV123@XZ 000000014005aed8 f   libconcrt:SchedulerBase.obj
 0001:00059f10       ?SafeReference@SchedulerBase@details@Concurrency@@AEAA_NXZ 000000014005af10 f   libconcrt:SchedulerBase.obj
 0001:00059f34       ?ScheduleTask@SchedulerBase@details@Concurrency@@UEAAXP6AXPEAX@Z0@Z 000000014005af34 f   libconcrt:SchedulerBase.obj
 0001:00059fac       ?ScheduleTask@SchedulerBase@details@Concurrency@@UEAAXP6AXPEAX@Z0AEAVlocation@3@@Z 000000014005afac f   libconcrt:SchedulerBase.obj
 0001:0005a030       ?SetNextSchedulingRing@SchedulerBase@details@Concurrency@@QEAAXPEAVSchedulingRing@23@@Z 000000014005b030 f   libconcrt:SchedulerBase.obj
 0001:0005a064       ?StartupNewVirtualProcessor@SchedulerBase@details@Concurrency@@UEAAXPEAVScheduleGroupSegmentBase@23@Vlocation@3@@Z 000000014005b064 f i libconcrt:SchedulerBase.obj
 0001:0005a0a0       ?StartupVirtualProcessor@SchedulerBase@details@Concurrency@@QEAA_NPEAVScheduleGroupSegmentBase@23@Vlocation@3@K@Z 000000014005b0a0 f   libconcrt:SchedulerBase.obj
 0001:0005a144       ?StaticDestruction@SchedulerBase@details@Concurrency@@CAXXZ 000000014005b144 f   libconcrt:SchedulerBase.obj
 0001:0005a1f8       ?Statistics@SchedulerBase@details@Concurrency@@IEAAXPEAI00@Z 000000014005b1f8 f   libconcrt:SchedulerBase.obj
 0001:0005a43c       ?SweepSchedulerForFinalize@SchedulerBase@details@Concurrency@@AEAAXXZ 000000014005b43c f   libconcrt:SchedulerBase.obj
 0001:0005a510       ?ThrottlerDispatch@SchedulerBase@details@Concurrency@@AEAAXXZ 000000014005b510 f   libconcrt:SchedulerBase.obj
 0001:0005a64c       ?ThrottlerDispatchBridge@SchedulerBase@details@Concurrency@@CAXPEAU_TP_CALLBACK_INSTANCE@@PEAXPEAU_TP_TIMER@@@Z 000000014005b64c f i libconcrt:SchedulerBase.obj
 0001:0005a654       ?ThrottlerTrampoline@SchedulerBase@details@Concurrency@@CAXPEAXE@Z 000000014005b654 f   libconcrt:SchedulerBase.obj
 0001:0005a69c       ?ThrottlingTime@SchedulerBase@details@Concurrency@@QEAAKK@Z 000000014005b69c f   libconcrt:SchedulerBase.obj
 0001:0005a76c       ?ThrowSchedulerEvent@SchedulerBase@details@Concurrency@@CAXW4ConcRT_EventType@3@EI@Z 000000014005b76c f   libconcrt:SchedulerBase.obj
 0001:0005a7e0       ?TriggerCommitSafePoints@SchedulerBase@details@Concurrency@@QEAAXPEAVSafePointMarker@23@@Z 000000014005b7e0 f   libconcrt:SchedulerBase.obj
 0001:0005a844       ?TypeOfWorkPending@SchedulerBase@details@Concurrency@@MEAA?AW4PendingWorkType@123@XZ 000000014005b844 f   libconcrt:SchedulerBase.obj
 0001:0005a88c       ?UpdateCommitVersion@SchedulerBase@details@Concurrency@@AEAAKK@Z 000000014005b88c f   libconcrt:SchedulerBase.obj
 0001:0005a8d8       ?UpdatePendingVersion@SchedulerBase@details@Concurrency@@AEAAKXZ 000000014005b8d8 f   libconcrt:SchedulerBase.obj
 0001:0005a91c       ?VirtualProcessorActive@SchedulerBase@details@Concurrency@@QEAA_N_N@Z 000000014005b91c f   libconcrt:SchedulerBase.obj
 0001:0005aa14       ?VirtualProcessorIdle@SchedulerBase@details@Concurrency@@QEAAX_N@Z 000000014005ba14 f   libconcrt:SchedulerBase.obj
 0001:0005aa88       ?Wipe@?$Hash@II@details@Concurrency@@QEAAXXZ 000000014005ba88 f i libconcrt:SchedulerBase.obj
 0001:0005ab18       ??0context_self_unblock@Concurrency@@QEAA@XZ 000000014005bb18 f   libconcrt:Exceptions.obj
 0001:0005ab30       ??0context_unblock_unbalanced@Concurrency@@QEAA@XZ 000000014005bb30 f   libconcrt:Exceptions.obj
 0001:0005ab48       ??0improper_lock@Concurrency@@QEAA@PEBD@Z 000000014005bb48 f   libconcrt:Exceptions.obj
 0001:0005ab90       ??0improper_scheduler_attach@Concurrency@@QEAA@XZ 000000014005bb90 f   libconcrt:Exceptions.obj
 0001:0005aba8       ??0improper_scheduler_reference@Concurrency@@QEAA@XZ 000000014005bba8 f   libconcrt:Exceptions.obj
 0001:0005abc0       ??0invalid_multiple_scheduling@Concurrency@@QEAA@XZ 000000014005bbc0 f   libconcrt:Exceptions.obj
 0001:0005abd8       ??0invalid_oversubscribe_operation@Concurrency@@QEAA@XZ 000000014005bbd8 f   libconcrt:Exceptions.obj
 0001:0005abf0       ??0invalid_scheduler_policy_key@Concurrency@@QEAA@PEBD@Z 000000014005bbf0 f   libconcrt:Exceptions.obj
 0001:0005ac38       ??0invalid_scheduler_policy_thread_specification@Concurrency@@QEAA@XZ 000000014005bc38 f   libconcrt:Exceptions.obj
 0001:0005ac50       ??0invalid_scheduler_policy_value@Concurrency@@QEAA@PEBD@Z 000000014005bc50 f   libconcrt:Exceptions.obj
 0001:0005ac98       ??0missing_wait@Concurrency@@QEAA@XZ 000000014005bc98 f   libconcrt:Exceptions.obj
 0001:0005acb0       ??0nested_scheduler_missing_detach@Concurrency@@QEAA@XZ 000000014005bcb0 f   libconcrt:Exceptions.obj
 0001:0005acc8       ??0scheduler_resource_allocation_error@Concurrency@@QEAA@J@Z 000000014005bcc8 f   libconcrt:Exceptions.obj
 0001:0005ace0       ??0scheduler_worker_creation_error@Concurrency@@QEAA@J@Z 000000014005bce0 f   libconcrt:Exceptions.obj
 0001:0005acf8       ??0HardwareAffinity@details@Concurrency@@QEAA@PEAX@Z 000000014005bcf8 f   libconcrt:ResourceManager.obj
 0001:0005ad20       ??0ResourceManager@details@Concurrency@@AEAA@XZ 000000014005bd20 f   libconcrt:ResourceManager.obj
 0001:0005ade0       ??0invalid_operation@Concurrency@@QEAA@AEBV01@@Z 000000014005bde0 f i libconcrt:ResourceManager.obj
 0001:0005ae1c       ??0invalid_operation@Concurrency@@QEAA@XZ 000000014005be1c f i libconcrt:ResourceManager.obj
 0001:0005ae34       ??1GlobalNode@details@Concurrency@@QEAA@XZ 000000014005be34 f i libconcrt:ResourceManager.obj
 0001:0005ae44       ??1ResourceManager@details@Concurrency@@AEAA@XZ 000000014005be44 f   libconcrt:ResourceManager.obj
 0001:0005af68       ??1_Scoped_lock@_NonReentrantBlockingLock@details@Concurrency@@QEAA@XZ 000000014005bf68 f i libconcrt:ResourceManager.obj
 0001:0005af68       ??1_Scoped_lock@_ReentrantBlockingLock@details@Concurrency@@QEAA@XZ 000000014005bf68 f i libconcrt:SchedulerProxy.obj
 0001:0005af7c       ?AdjustDynamicAllocation@ResourceManager@details@Concurrency@@AEAAIIII@Z 000000014005bf7c f   libconcrt:ResourceManager.obj
 0001:0005b050       ?ApplyAffinityRestrictions@ResourceManager@details@Concurrency@@CAXPEAU_GROUP_AFFINITY@@@Z 000000014005c050 f   libconcrt:ResourceManager.obj
 0001:0005b0e4       ?ApplyTo@HardwareAffinity@details@Concurrency@@QEAAXPEAX@Z 000000014005c0e4 f   libconcrt:ResourceManager.obj
 0001:0005b0f4       ?CaptureProcessAffinity@ResourceManager@details@Concurrency@@CAXXZ 000000014005c0f4 f   libconcrt:ResourceManager.obj
 0001:0005b1f4       ?CleanupTopologyInformation@ResourceManager@details@Concurrency@@CAXXZ 000000014005c1f4 f   libconcrt:ResourceManager.obj
 0001:0005b220       ?CommitStolenCores@ResourceManager@details@Concurrency@@AEAAXPEAVSchedulerProxy@23@@Z 000000014005c220 f   libconcrt:ResourceManager.obj
 0001:0005b344       ?CreateAllocatedNodeData@ResourceManager@details@Concurrency@@QEAAPEAUSchedulerNode@23@XZ 000000014005c344 f   libconcrt:ResourceManager.obj
 0001:0005b4d4       ?CreateDynamicRMWorker@ResourceManager@details@Concurrency@@AEAAXXZ 000000014005c4d4 f   libconcrt:ResourceManager.obj
 0001:0005b550       ?CreateResourceManager@Concurrency@@YAPEAUIResourceManager@1@XZ 000000014005c550 f   libconcrt:ResourceManager.obj
 0001:0005b558       ?CreateSchedulerProxy@ResourceManager@details@Concurrency@@AEAAPEAVSchedulerProxy@23@PEAUIScheduler@3@@Z 000000014005c558 f   libconcrt:ResourceManager.obj
 0001:0005b5cc       ?CreateSingleton@ResourceManager@details@Concurrency@@SAPEAV123@XZ 000000014005c5cc f   libconcrt:ResourceManager.obj
 0001:0005b6b8       ?CurrentSubscriptionLevel@ResourceManager@details@Concurrency@@QEAAIII@Z 000000014005c6b8 f   libconcrt:ResourceManager.obj
 0001:0005b758       ?DestroyAllocatedNodeData@ResourceManager@details@Concurrency@@QEAAXPEAUSchedulerNode@23@@Z 000000014005c758 f   libconcrt:ResourceManager.obj
 0001:0005b7a4       ?DetermineTopology@ResourceManager@details@Concurrency@@AEAAXXZ 000000014005c7a4 f   libconcrt:ResourceManager.obj
 0001:0005b8fc       ?DiscardExistingSchedulerStatistics@ResourceManager@details@Concurrency@@AEAAXXZ 000000014005c8fc f   libconcrt:ResourceManager.obj
 0001:0005b984       ?DistributeCoresToSurvivingScheduler@ResourceManager@details@Concurrency@@AEAA_NXZ 000000014005c984 f   libconcrt:ResourceManager.obj
 0001:0005bb78       ?DistributeExclusiveCores@ResourceManager@details@Concurrency@@AEAAXIIIII@Z 000000014005cb78 f   libconcrt:ResourceManager.obj
 0001:0005bd14       ?DistributeIdleCores@ResourceManager@details@Concurrency@@AEAAXII@Z 000000014005cd14 f   libconcrt:ResourceManager.obj
 0001:0005bee0       ?DoCoreMigration@ResourceManager@details@Concurrency@@AEAAXXZ 000000014005cee0 f   libconcrt:ResourceManager.obj
 0001:0005c178       ?DynamicAssignCores@ResourceManager@details@Concurrency@@AEAAXPEAVSchedulerProxy@23@II_N@Z 000000014005d178 f   libconcrt:ResourceManager.obj
 0001:0005c220       ?DynamicMigrateCores@ResourceManager@details@Concurrency@@AEAAXPEAUDynamicAllocationData@23@PEAVSchedulerProxy@23@II@Z 000000014005d220 f   libconcrt:ResourceManager.obj
 0001:0005c3ec       ?DynamicRMThreadProc@ResourceManager@details@Concurrency@@CAKPEAX@Z 000000014005d3ec f   libconcrt:ResourceManager.obj
 0001:0005c404       ?DynamicResourceManager@ResourceManager@details@Concurrency@@AEAAXXZ 000000014005d404 f   libconcrt:ResourceManager.obj
 0001:0005c50c       ?FindBestFitExclusiveAllocation@ResourceManager@details@Concurrency@@AEAAIAEAI0PEAUDynamicAllocationData@23@II@Z 000000014005d50c f   libconcrt:ResourceManager.obj
 0001:0005c8cc       ?FindBestFitIdleAllocation@ResourceManager@details@Concurrency@@AEAAIIPEAUDynamicAllocationData@23@I@Z 000000014005d8cc f   libconcrt:ResourceManager.obj
 0001:0005c9f8       ?FindCoreForPartiallyFilledNode@ResourceManager@details@Concurrency@@AEAA_NAEAI0PEAUDynamicAllocationData@23@I@Z 000000014005d9f8 f   libconcrt:ResourceManager.obj
 0001:0005cb4c       ?FlushStoreBuffers@ResourceManager@details@Concurrency@@QEAAXXZ 000000014005db4c f   libconcrt:ResourceManager.obj
 0001:0005cb54       ?GetAvailableNodeCount@ResourceManager@details@Concurrency@@UEBAIXZ 000000014005db54 f i libconcrt:ResourceManager.obj
 0001:0005cb58       ?GetCoreCount@ResourceManager@details@Concurrency@@SAIXZ 000000014005db58 f   libconcrt:ResourceManager.obj
 0001:0005cbe0       ?GetCurrentNodeAndCore@ResourceManager@details@Concurrency@@QEAAIPEAI@Z 000000014005dbe0 f   libconcrt:ResourceManager.obj
 0001:0005cc80       ?GetExecutionResourceCount@TopologyObject@GlobalNode@details@Concurrency@@UEBAIXZ 000000014005dc80 f i libconcrt:ResourceManager.obj
 0001:0005cc88       ?GetFirstExecutionResource@TopologyObject@GlobalNode@details@Concurrency@@UEBAPEAUITopologyExecutionResource@4@XZ 000000014005dc88 f i libconcrt:ResourceManager.obj
 0001:0005cc98       ?GetFirstNode@ResourceManager@details@Concurrency@@UEBAPEAUITopologyNode@3@XZ 000000014005dc98 f i libconcrt:ResourceManager.obj
 0001:0005cca4       ?GetId@TopologyObject@GlobalCore@details@Concurrency@@UEBAIXZ 000000014005dca4 f i libconcrt:ResourceManager.obj
 0001:0005ccac       ?GetId@TopologyObject@GlobalNode@details@Concurrency@@UEBAIXZ 000000014005dcac f i libconcrt:ResourceManager.obj
 0001:0005ccb4       ?GetNext@TopologyObject@GlobalCore@details@Concurrency@@UEBAPEAUITopologyExecutionResource@4@XZ 000000014005dcb4 f   libconcrt:ResourceManager.obj
 0001:0005ccfc       ?GetNext@TopologyObject@GlobalNode@details@Concurrency@@UEBAPEAUITopologyNode@4@XZ 000000014005dcfc f   libconcrt:ResourceManager.obj
 0001:0005cd2c       ?GetNodeCount@ResourceManager@details@Concurrency@@SAIXZ 000000014005dd2c f   libconcrt:ResourceManager.obj
 0001:0005cdb4       ?GetNumaNode@TopologyObject@GlobalNode@details@Concurrency@@UEBAKXZ 000000014005ddb4 f i libconcrt:ResourceManager.obj
 0001:0005cdbc       ?GetOSVersion@Concurrency@@YA?AW4OSVersion@IResourceManager@1@XZ 000000014005ddbc f   libconcrt:ResourceManager.obj
 0001:0005cdc4       ?GetProcessorCount@Concurrency@@YAIXZ 000000014005ddc4 f   libconcrt:ResourceManager.obj
 0001:0005cdcc       ?GetProcessorNodeCount@Concurrency@@YAIXZ 000000014005ddcc f   libconcrt:ResourceManager.obj
 0001:0005cdd4       ?GetSchedulerId@Concurrency@@YAIXZ 000000014005ddd4 f   libconcrt:ResourceManager.obj
 0001:0005cde4       ?HandleBorrowedCores@ResourceManager@details@Concurrency@@AEAAXPEAVSchedulerProxy@23@PEAUAllocationData@23@@Z 000000014005dde4 f   libconcrt:ResourceManager.obj
 0001:0005cf34       ?HandleSharedCores@ResourceManager@details@Concurrency@@AEAAXPEAVSchedulerProxy@23@PEAUDynamicAllocationData@23@@Z 000000014005df34 f   libconcrt:ResourceManager.obj
 0001:0005d078       ?IncreaseFullyLoadedSchedulerAllocations@ResourceManager@details@Concurrency@@AEAAXXZ 000000014005e078 f   libconcrt:ResourceManager.obj
 0001:0005d0e0       ?Initialize@GlobalNode@details@Concurrency@@QEAAXPEAVResourceManager@23@GG_KII@Z 000000014005e0e0 f i libconcrt:ResourceManager.obj
 0001:0005d2a4       ?InitializeRMBuffers@ResourceManager@details@Concurrency@@AEAAXXZ 000000014005e2a4 f   libconcrt:ResourceManager.obj
 0001:0005d398       ?InitializeSystemInformation@ResourceManager@details@Concurrency@@CAX_N@Z 000000014005e398 f   libconcrt:ResourceManager.obj
 0001:0005d52c       ?IsWindowsVersionOrGreater@@YA_NGGG@Z 000000014005e52c f i libconcrt:ResourceManager.obj
 0001:0005d5f8       ?PerformAllocation@ResourceManager@details@Concurrency@@QEAAPEAVExecutionResource@23@PEAVSchedulerProxy@23@_N1@Z 000000014005e5f8 f   libconcrt:ResourceManager.obj
 0001:0005d7f0       ?PopulateCommonAllocationData@ResourceManager@details@Concurrency@@AEAAXIPEAVSchedulerProxy@23@PEAUAllocationData@23@@Z 000000014005e7f0 f   libconcrt:ResourceManager.obj
 0001:0005d91c       ?PopulateDynamicAllocationData@ResourceManager@details@Concurrency@@AEAAXXZ 000000014005e91c f   libconcrt:ResourceManager.obj
 0001:0005da80       ?PreProcessDynamicAllocationData@ResourceManager@details@Concurrency@@AEAAXXZ 000000014005ea80 f   libconcrt:ResourceManager.obj
 0001:0005db7c       ?PreProcessStaticAllocationData@ResourceManager@details@Concurrency@@AEAAXXZ 000000014005eb7c f   libconcrt:ResourceManager.obj
 0001:0005dbc0       ?PrepareReceiversForCoreTransfer@ResourceManager@details@Concurrency@@AEAAII@Z 000000014005ebc0 f   libconcrt:ResourceManager.obj
 0001:0005de38       ?RedistributeCoresAmongAll@ResourceManager@details@Concurrency@@AEAAIPEAVSchedulerProxy@23@III@Z 000000014005ee38 f   libconcrt:ResourceManager.obj
 0001:0005e200       ?Reference@ResourceManager@details@Concurrency@@UEAAIXZ 000000014005f200 f   libconcrt:ResourceManager.obj
 0001:0005e210       ?RegisterScheduler@ResourceManager@details@Concurrency@@UEAAPEAUISchedulerProxy@3@PEAUIScheduler@3@I@Z 000000014005f210 f   libconcrt:ResourceManager.obj
 0001:0005e274       ?Release@ResourceManager@details@Concurrency@@UEAAIXZ 000000014005f274 f   libconcrt:ResourceManager.obj
 0001:0005e35c       ?ReleaseCoresOnExistingSchedulers@ResourceManager@details@Concurrency@@AEAAIPEAVSchedulerProxy@23@II@Z 000000014005f35c f   libconcrt:ResourceManager.obj
 0001:0005e400       ?ReleaseSchedulerResources@ResourceManager@details@Concurrency@@AEAA_NPEAVSchedulerProxy@23@0I@Z 000000014005f400 f   libconcrt:ResourceManager.obj
 0001:0005e530       ?RemoveExecutionResource@ResourceManager@details@Concurrency@@QEAAXPEAVExecutionResource@23@@Z 000000014005f530 f   libconcrt:ResourceManager.obj
 0001:0005e5d0       ?RequestInitialVirtualProcessors@ResourceManager@details@Concurrency@@QEAAPEAUIExecutionResource@3@PEAVSchedulerProxy@23@_N@Z 000000014005f5d0 f   libconcrt:ResourceManager.obj
 0001:0005e768       ?ReserveAtHigherUseCounts@ResourceManager@details@Concurrency@@AEAAIPEAVSchedulerProxy@23@I@Z 000000014005f768 f   libconcrt:ResourceManager.obj
 0001:0005e7cc       ?ReserveCores@ResourceManager@details@Concurrency@@AEAAIPEAVSchedulerProxy@23@II@Z 000000014005f7cc f   libconcrt:ResourceManager.obj
 0001:0005e9e4       ?ResetGlobalAllocationData@ResourceManager@details@Concurrency@@AEAAXXZ 000000014005f9e4 f   libconcrt:ResourceManager.obj
 0001:0005ea44       ?RetrieveSystemVersionInformation@ResourceManager@details@Concurrency@@CAXXZ 000000014005fa44 f   libconcrt:ResourceManager.obj
 0001:0005ea80       ?RoundUpScaledAllocations@ResourceManager@details@Concurrency@@CAXPEAPEAUAllocationData@23@II@Z 000000014005fa80 f   libconcrt:ResourceManager.obj
 0001:0005ec3c       ?SendResourceNotifications@ResourceManager@details@Concurrency@@QEAAXPEAVSchedulerProxy@23@@Z 000000014005fc3c f   libconcrt:ResourceManager.obj
 0001:0005ee18       ?SetupStaticAllocationData@ResourceManager@details@Concurrency@@AEAAXPEAVSchedulerProxy@23@_N@Z 000000014005fe18 f   libconcrt:ResourceManager.obj
 0001:0005ef38       ?Shutdown@ResourceManager@details@Concurrency@@QEAAXPEAVSchedulerProxy@23@@Z 000000014005ff38 f   libconcrt:ResourceManager.obj
 0001:0005f050       ?SubscribeCurrentThread@ResourceManager@details@Concurrency@@QEAAPEAVExecutionResource@23@PEAVSchedulerProxy@23@@Z 0000000140060050 f   libconcrt:ResourceManager.obj
 0001:0005f0c0       ?ToggleRMIdleState@ResourceManager@details@Concurrency@@AEAAXPEAUSchedulerNode@23@PEAUSchedulerCore@23@PEAUGlobalNode@23@PEAUGlobalCore@23@PEAUAllocationData@23@@Z 00000001400600c0 f   libconcrt:ResourceManager.obj
 0001:0005f12c       ?Version@ResourceManager@details@Concurrency@@SA?AW4OSVersion@IResourceManager@3@XZ 000000014006012c f   libconcrt:ResourceManager.obj
 0001:0005f1b0       ??0exception_ptr@std@@QEAA@AEBV01@@Z 00000001400601b0 f i libconcrt:TaskCollectionBase.obj
 0001:0005f1d8       ?_FinishCancelState@_TaskCollectionBase@details@Concurrency@@IEAAX_K@Z 00000001400601d8 f   libconcrt:TaskCollectionBase.obj
 0001:0005f210       ?_GetTokenState@_TaskCollectionBase@details@Concurrency@@QEAAPEAV_CancellationTokenState@23@PEAPEAV_CancellationTokenRegistration@23@@Z 0000000140060210 f   libconcrt:TaskCollectionBase.obj
 0001:0005f23c       ?_MarkCancellation@_TaskCollectionBase@details@Concurrency@@IEAA_NXZ 000000014006023c f   libconcrt:TaskCollectionBase.obj
 0001:0005f25c       ?_RaisedCancel@_TaskCollectionBase@details@Concurrency@@IEAAXXZ 000000014006025c f   libconcrt:TaskCollectionBase.obj
 0001:0005f280       ?_RaisedException@_TaskCollectionBase@details@Concurrency@@IEAAXXZ 0000000140060280 f   libconcrt:TaskCollectionBase.obj
 0001:0005f320       ?_RethrowException@_TaskCollectionBase@details@Concurrency@@IEAAXXZ 0000000140060320 f   libconcrt:TaskCollectionBase.obj
 0001:0005f3a8       ?_WillInterruptForPendingCancel@_TaskCollectionBase@details@Concurrency@@IEAA_NXZ 00000001400603a8 f   libconcrt:TaskCollectionBase.obj
 0001:0005f45c       ?rethrow_exception@std@@YAXVexception_ptr@1@@Z 000000014006045c f i libconcrt:TaskCollectionBase.obj
 0001:0005f46c       ??0MultiWaitBlock@details@Concurrency@@QEAA@_K_N1@Z 000000014006046c f i libconcrt:event.obj
 0001:0005f514       ??0MultiWaitBlockHolder@details@Concurrency@@QEAA@_N_K00@Z 0000000140060514 f   libconcrt:event.obj
 0001:0005f608       ??0event@Concurrency@@QEAA@XZ 0000000140060608 f   libconcrt:event.obj
 0001:0005f634       ??1?$_MallocaArrayHolder@PEAVContext@Concurrency@@@details@Concurrency@@UEAA@XZ 0000000140060634 f i libconcrt:event.obj
 0001:0005f664       ??1MultiWaitBlockHolder@details@Concurrency@@QEAA@XZ 0000000140060664 f   libconcrt:event.obj
 0001:0005f6a0       ??1event@Concurrency@@QEAA@XZ 00000001400606a0 f   libconcrt:event.obj
 0001:0005f740       ??_E?$_MallocaArrayHolder@PEAVContext@Concurrency@@@details@Concurrency@@UEAAPEAXI@Z 0000000140060740 f i libconcrt:event.obj
 0001:0005f740       ??_G?$_MallocaArrayHolder@PEAVContext@Concurrency@@@details@Concurrency@@UEAAPEAXI@Z 0000000140060740 f i libconcrt:event.obj
 0001:0005f794       ?Destroy@SingleWaitBlock@details@Concurrency@@UEAAXXZ 0000000140060794 f   libconcrt:event.obj
 0001:0005f794       ?Reset@SingleWaitBlock@details@Concurrency@@UEAA_NXZ 0000000140060794 f   libconcrt:event.obj
 0001:0005f794       ?Reset@WaitAnyBlock@details@Concurrency@@UEAA_NXZ 0000000140060794 f   libconcrt:event.obj
 0001:0005f794       ?SweepResetNode@SingleWaitBlock@details@Concurrency@@UEAA_NXZ 0000000140060794 f   libconcrt:event.obj
 0001:0005f794       ?SweepResetNode@WaitAnyBlock@details@Concurrency@@UEAA_NXZ 0000000140060794 f   libconcrt:event.obj
 0001:0005f798       ?Destroy@WaitAllBlock@details@Concurrency@@UEAAXXZ 0000000140060798 f   libconcrt:event.obj
 0001:0005f7a0       ?DispatchEventTimer@MultiWaitBlock@details@Concurrency@@SAXPEAU_TP_CALLBACK_INSTANCE@@PEAXPEAU_TP_TIMER@@@Z 00000001400607a0 f   libconcrt:event.obj
 0001:0005f824       ?NotifyCompletedNode@MultiWaitBlock@details@Concurrency@@QEAAXXZ 0000000140060824 f   libconcrt:event.obj
 0001:0005f84c       ?Reset@WaitAllBlock@details@Concurrency@@UEAA_NXZ 000000014006084c f   libconcrt:event.obj
 0001:0005f87c       ?Satisfy@SingleWaitBlock@details@Concurrency@@UEAA_NPEAPEAVContext@3@PEAVEventWaitNode@23@@Z 000000014006087c f   libconcrt:event.obj
 0001:0005f8d4       ?Satisfy@WaitAllBlock@details@Concurrency@@UEAA_NPEAPEAVContext@3@PEAVEventWaitNode@23@@Z 00000001400608d4 f   libconcrt:event.obj
 0001:0005f924       ?Satisfy@WaitAnyBlock@details@Concurrency@@UEAA_NPEAPEAVContext@3@PEAVEventWaitNode@23@@Z 0000000140060924 f   libconcrt:event.obj
 0001:0005f970       ?Set@StructuredEvent@details@Concurrency@@QEAAXXZ 0000000140060970 f   libconcrt:event.obj
 0001:0005f9c0       ?SingleSatisfy@MultiWaitBlock@details@Concurrency@@MEAAXPEAPEAVContext@3@PEAVEventWaitNode@23@@Z 00000001400609c0 f   libconcrt:event.obj
 0001:0005fa84       ?Sweep@details@Concurrency@@YAPEAVEventWaitNode@12@PEAV312@_N@Z 0000000140060a84 f   libconcrt:event.obj
 0001:0005faf0       ?SweepResetNode@WaitAllBlock@details@Concurrency@@UEAA_NXZ 0000000140060af0 f   libconcrt:event.obj
 0001:0005fb2c       ?SweepWaitNode@WaitAllBlock@details@Concurrency@@UEAA_NXZ 0000000140060b2c f   libconcrt:event.obj
 0001:0005fb70       ?SweepWaitNode@WaitAnyBlock@details@Concurrency@@UEAA_NXZ 0000000140060b70 f   libconcrt:event.obj
 0001:0005fba8       ?Wait@StructuredEvent@details@Concurrency@@QEAAXXZ 0000000140060ba8 f   libconcrt:event.obj
 0001:0005fc44       ?set@event@Concurrency@@QEAAXXZ 0000000140060c44 f   libconcrt:event.obj
 0001:0005fe24       ?wait@event@Concurrency@@QEAA_KI@Z 0000000140060e24 f   libconcrt:event.obj
 0001:0005ff50       ?wait_for_multiple@event@Concurrency@@SA_KPEAPEAV12@_K_NI@Z 0000000140060f50 f   libconcrt:event.obj
 0001:00060278       ??0?$StructuredWorkStealingQueue@VInternalContextBase@details@Concurrency@@V_HyperNonReentrantLock@23@@details@Concurrency@@QEAA@PEAV_HyperNonReentrantLock@12@@Z 0000000140061278 f i libconcrt:VirtualProcessor.obj
 0001:00060278       ??0?$StructuredWorkStealingQueue@V_UnrealizedChore@details@Concurrency@@V_CriticalNonReentrantLock@23@@details@Concurrency@@QEAA@PEAV_CriticalNonReentrantLock@12@@Z 0000000140061278 f i libconcrt:WorkQueue.obj
 0001:000602fc       ??0?$WorkStealingQueue@V_UnrealizedChore@details@Concurrency@@V_CriticalNonReentrantLock@23@@details@Concurrency@@QEAA@PEAV_CriticalNonReentrantLock@12@@Z 00000001400612fc f i libconcrt:WorkQueue.obj
 0001:00060378       ??0WorkQueue@details@Concurrency@@QEAA@XZ 0000000140061378 f   libconcrt:WorkQueue.obj
 0001:00060414       ?DeferToAffineSearchers@Slot@?$Mailbox@VInternalContextBase@details@Concurrency@@@details@Concurrency@@QEBA_NXZ 0000000140061414 f i libconcrt:SchedulingNode.obj
 0001:00060414       ?DeferToAffineSearchers@Slot@?$Mailbox@V_UnrealizedChore@details@Concurrency@@@details@Concurrency@@QEBA_NXZ 0000000140061414 f i libconcrt:WorkQueue.obj
 0001:000604a0       ?RedetachFromScheduleGroupAtSafePoint@WorkQueue@details@Concurrency@@QEAAXPEAVScheduleGroupSegmentBase@23@@Z 00000001400614a0 f   libconcrt:WorkQueue.obj
 0001:000604c8       ?Reinitialize@WorkQueue@details@Concurrency@@AEAAXXZ 00000001400614c8 f   libconcrt:WorkQueue.obj
 0001:00060534       ?RetireAtSafePoint@WorkQueue@details@Concurrency@@QEAAXPEAVScheduleGroupSegmentBase@23@@Z 0000000140061534 f   libconcrt:WorkQueue.obj
 0001:0006055c       ?StaticRedetachFromScheduleGroup@WorkQueue@details@Concurrency@@CAXPEAV123@@Z 000000014006155c f   libconcrt:WorkQueue.obj
 0001:0006056c       ?StaticRetire@WorkQueue@details@Concurrency@@CAXPEAV123@@Z 000000014006156c f   libconcrt:WorkQueue.obj
 0001:0006057c       ?Steal@WorkQueue@details@Concurrency@@QEAAPEAV_UnrealizedChore@23@_N@Z 000000014006157c f   libconcrt:WorkQueue.obj
 0001:000605d0       ?Sweep@?$WorkStealingQueue@V_UnrealizedChore@details@Concurrency@@V_CriticalNonReentrantLock@23@@details@Concurrency@@QEAAXP6A_NPEAV_UnrealizedChore@23@PEAX@Z12@Z 00000001400615d0 f i libconcrt:WorkQueue.obj
 0001:000606b4       ?SweepUnstructured@WorkQueue@details@Concurrency@@QEAAXP6A_NPEAV_UnrealizedChore@23@PEAX@Z12@Z 00000001400616b4 f   libconcrt:WorkQueue.obj
 0001:000606c0       ?TryToSteal@WorkQueue@details@Concurrency@@QEAAPEAV_UnrealizedChore@23@_NAEA_N@Z 00000001400616c0 f   libconcrt:WorkQueue.obj
 0001:0006072c       ?UnlockedSteal@?$StructuredWorkStealingQueue@VInternalContextBase@details@Concurrency@@V_HyperNonReentrantLock@23@@details@Concurrency@@QEAAPEAVInternalContextBase@23@_N@Z 000000014006172c f i libconcrt:SchedulingNode.obj
 0001:0006072c       ?UnlockedSteal@?$StructuredWorkStealingQueue@V_UnrealizedChore@details@Concurrency@@V_CriticalNonReentrantLock@23@@details@Concurrency@@QEAAPEAV_UnrealizedChore@23@_N@Z 000000014006172c f i libconcrt:WorkQueue.obj
 0001:00060840       ?UnlockedSteal@?$WorkStealingQueue@V_UnrealizedChore@details@Concurrency@@V_CriticalNonReentrantLock@23@@details@Concurrency@@QEAAPEAV_UnrealizedChore@23@_N0@Z 0000000140061840 f i libconcrt:WorkQueue.obj
 0001:0006097c       ?UnlockedSteal@WorkQueue@details@Concurrency@@AEAAPEAV_UnrealizedChore@23@_N@Z 000000014006197c f   libconcrt:WorkQueue.obj
 0001:00060a90       ??0?$Mailbox@V_UnrealizedChore@details@Concurrency@@@details@Concurrency@@QEAA@PEAVSchedulerBase@12@AEBVQuickBitSet@12@_NI@Z 0000000140061a90 f i libconcrt:ScheduleGroupBase.obj
 0001:00060b50       ??0ScheduleGroupBase@details@Concurrency@@QEAA@PEAVSchedulerBase@12@PEAVlocation@2@@Z 0000000140061b50 f   libconcrt:ScheduleGroupBase.obj
 0001:00060bdc       ??0ScheduleGroupSegmentBase@details@Concurrency@@IEAA@PEAVScheduleGroupBase@12@PEAVSchedulingRing@12@PEAVlocation@2@@Z 0000000140061bdc f   libconcrt:ScheduleGroupBase.obj
 0001:00060cf0       ??0Segment@?$Mailbox@V_UnrealizedChore@details@Concurrency@@@details@Concurrency@@QEAA@PEAVSchedulerBase@23@AEBVQuickBitSet@23@II@Z 0000000140061cf0 f i libconcrt:ScheduleGroupBase.obj
 0001:00060d7c       ??1?$ListArray@U?$ListArrayInlineLink@VWorkQueue@details@Concurrency@@@details@Concurrency@@@details@Concurrency@@QEAA@XZ 0000000140061d7c f i libconcrt:ScheduleGroupBase.obj
 0001:00060e70       ??1?$ListArray@VWorkQueue@details@Concurrency@@@details@Concurrency@@QEAA@XZ 0000000140061e70 f i libconcrt:ScheduleGroupBase.obj
 0001:0006102c       ??1?$Mailbox@V_UnrealizedChore@details@Concurrency@@@details@Concurrency@@QEAA@XZ 000000014006202c f i libconcrt:ScheduleGroupBase.obj
 0001:00061098       ??1ScheduleGroupSegmentBase@details@Concurrency@@UEAA@XZ 0000000140062098 f   libconcrt:ScheduleGroupBase.obj
 0001:0006111c       ??_EScheduleGroupSegmentBase@details@Concurrency@@UEAAPEAXI@Z 000000014006211c f i libconcrt:ScheduleGroupBase.obj
 0001:0006111c       ??_GScheduleGroupSegmentBase@details@Concurrency@@UEAAPEAXI@Z 000000014006211c f i libconcrt:ScheduleGroupBase.obj
 0001:00061150       ?Add@?$ListArray@U?$ListArrayInlineLink@VWorkQueue@details@Concurrency@@@details@Concurrency@@@details@Concurrency@@QEAAHPEAU?$ListArrayInlineLink@VWorkQueue@details@Concurrency@@@23@@Z 0000000140062150 f i libconcrt:ScheduleGroupBase.obj
 0001:00061150       ?Add@?$ListArray@VExternalStatistics@details@Concurrency@@@details@Concurrency@@QEAAHPEAVExternalStatistics@23@@Z 0000000140062150 f i libconcrt:ScheduleGroupBase.obj
 0001:000612e0       ?Add@?$ListArray@VScheduleGroupSegmentBase@details@Concurrency@@@details@Concurrency@@QEAAHPEAVScheduleGroupSegmentBase@23@@Z 00000001400622e0 f i libconcrt:ScheduleGroupBase.obj
 0001:00061474       ?AddRunnableContext@ScheduleGroupSegmentBase@details@Concurrency@@IEAAXPEAVInternalContextBase@23@Vlocation@3@@Z 0000000140062474 f   libconcrt:ScheduleGroupBase.obj
 0001:00061598       ?CheckForDeletionBridge@?$ListArray@U?$ListArrayInlineLink@VWorkQueue@details@Concurrency@@@details@Concurrency@@@details@Concurrency@@CAXPEAV123@@Z 0000000140062598 f i libconcrt:ScheduleGroupBase.obj
 0001:000615ec       ?CreateSegment@ScheduleGroupBase@details@Concurrency@@IEAAPEAVScheduleGroupSegmentBase@23@PEAVlocation@3@PEAVSchedulingRing@23@@Z 00000001400625ec f   libconcrt:ScheduleGroupBase.obj
 0001:000616e0       ?DemandInitialize@?$Mailbox@V_UnrealizedChore@details@Concurrency@@@details@Concurrency@@AEAAXXZ 00000001400626e0 f i libconcrt:ScheduleGroupBase.obj
 0001:00061770       ?Dequeue@?$Mailbox@V_UnrealizedChore@details@Concurrency@@@details@Concurrency@@QEAA_NPEAPEAV_UnrealizedChore@23@@Z 0000000140062770 f i libconcrt:ScheduleGroupBase.obj
 0001:00061868       ?DetachActiveWorkQueue@ScheduleGroupSegmentBase@details@Concurrency@@IEAAXPEAVWorkQueue@23@@Z 0000000140062868 f   libconcrt:ScheduleGroupBase.obj
 0001:000618f0       ?FindSegment@ScheduleGroupBase@details@Concurrency@@MEAAPEAVScheduleGroupSegmentBase@23@PEAVlocation@3@PEAVSchedulingRing@23@@Z 00000001400628f0 f   libconcrt:ScheduleGroupBase.obj
 0001:00061968       ?GetDetachedWorkQueue@ScheduleGroupSegmentBase@details@Concurrency@@IEAAPEAVWorkQueue@23@XZ 0000000140062968 f   libconcrt:ScheduleGroupBase.obj
 0001:00061a6c       ?GetInternalContext@ScheduleGroupSegmentBase@details@Concurrency@@IEAAPEAVInternalContextBase@23@PEAU_Chore@23@_N@Z 0000000140062a6c f   libconcrt:ScheduleGroupBase.obj
 0001:00061acc       ?GetRealizedChore@ScheduleGroupSegmentBase@details@Concurrency@@IEAAPEAVRealizedChore@23@XZ 0000000140062acc f   libconcrt:ScheduleGroupBase.obj
 0001:00061b2c       ?HasRealizedChores@ScheduleGroupSegmentBase@details@Concurrency@@IEBA_NXZ 0000000140062b2c f   libconcrt:ScheduleGroupBase.obj
 0001:00061b38       ?HasUnrealizedChores@ScheduleGroupSegmentBase@details@Concurrency@@IEAA_NXZ 0000000140062b38 f   libconcrt:ScheduleGroupBase.obj
 0001:00061b4c       ?Initialize@ScheduleGroupBase@details@Concurrency@@QEAAXPEAVlocation@3@@Z 0000000140062b4c f   libconcrt:ScheduleGroupBase.obj
 0001:00061b8c       ?Initialize@ScheduleGroupSegmentBase@details@Concurrency@@IEAAXPEAVScheduleGroupBase@23@PEAVSchedulingRing@23@PEAVlocation@3@@Z 0000000140062b8c f   libconcrt:ScheduleGroupBase.obj
 0001:00061cb8       ?LocateMailboxSegment@?$Mailbox@V_UnrealizedChore@details@Concurrency@@@details@Concurrency@@AEAAPEAUSegment@123@I_N@Z 0000000140062cb8 f i libconcrt:ScheduleGroupBase.obj
 0001:00061d68       ?LocateSegment@ScheduleGroupBase@details@Concurrency@@UEAAPEAVScheduleGroupSegmentBase@23@PEAVlocation@3@_N@Z 0000000140062d68 f   libconcrt:ScheduleGroupBase.obj
 0001:00061eec       ?LocateUnrealizedChores@ScheduleGroupSegmentBase@details@Concurrency@@IEAAPEAVWorkQueue@23@XZ 0000000140062eec f   libconcrt:ScheduleGroupBase.obj
 0001:00061fd8       ?RedetachQueue@ScheduleGroupSegmentBase@details@Concurrency@@QEAAXPEAVWorkQueue@23@@Z 0000000140062fd8 f   libconcrt:ScheduleGroupBase.obj
 0001:00061fe8       ?ReleaseInternalContext@ScheduleGroupSegmentBase@details@Concurrency@@IEAAXPEAVInternalContextBase@23@@Z 0000000140062fe8 f   libconcrt:ScheduleGroupBase.obj
 0001:00062020       ?Remove@?$ListArray@U?$ListArrayInlineLink@VWorkQueue@details@Concurrency@@@details@Concurrency@@@details@Concurrency@@QEAA_NPEAU?$ListArrayInlineLink@VWorkQueue@details@Concurrency@@@23@H_N@Z 0000000140063020 f i libconcrt:ScheduleGroupBase.obj
 0001:00062160       ?Remove@ScheduleGroupSegmentBase@details@Concurrency@@IEAAXXZ 0000000140063160 f   libconcrt:ScheduleGroupBase.obj
 0001:00062194       ?RemoveSegments@ScheduleGroupBase@details@Concurrency@@MEAAXXZ 0000000140063194 f   libconcrt:ScheduleGroupBase.obj
 0001:000621f8       ?RetireDetachedQueue@ScheduleGroupSegmentBase@details@Concurrency@@QEAAXPEAVWorkQueue@23@@Z 00000001400631f8 f   libconcrt:ScheduleGroupBase.obj
 0001:00062254       ?SafelyDeleteDetachedWorkQueue@ScheduleGroupSegmentBase@details@Concurrency@@IEAA_NPEAVWorkQueue@23@@Z 0000000140063254 f   libconcrt:ScheduleGroupBase.obj
 0001:000622b4       ?ScheduleTask@ScheduleGroupBase@details@Concurrency@@QEAAXP6AXPEAX@Z0AEAVlocation@3@@Z 00000001400632b4 f   libconcrt:ScheduleGroupBase.obj
 0001:000622f0       ?ScheduleTask@ScheduleGroupBase@details@Concurrency@@UEAAXP6AXPEAX@Z0@Z 00000001400632f0 f   libconcrt:ScheduleGroupBase.obj
 0001:0006232c       ?ScheduleTask@ScheduleGroupSegmentBase@details@Concurrency@@QEAAXP6AXPEAX@Z0@Z 000000014006332c f   libconcrt:ScheduleGroupBase.obj
 0001:000624d8       ?StealUnrealizedChore@ScheduleGroupSegmentBase@details@Concurrency@@IEAAPEAV_UnrealizedChore@23@_N@Z 00000001400634d8 f   libconcrt:ScheduleGroupBase.obj
 0001:0006282c       ??0SchedulerPolicy@Concurrency@@QEAA@AEBV01@@Z 000000014006382c f   libconcrt:SchedulerPolicyBase.obj
 0001:00062874       ??0SchedulerPolicy@Concurrency@@QEAA@_KZZ 0000000140063874 f   libconcrt:SchedulerPolicyBase.obj
 0001:000628a8       ??0invalid_scheduler_policy_key@Concurrency@@QEAA@AEBV01@@Z 00000001400638a8 f i libconcrt:SchedulerPolicyBase.obj
 0001:000628e4       ??0invalid_scheduler_policy_thread_specification@Concurrency@@QEAA@AEBV01@@Z 00000001400638e4 f i libconcrt:SchedulerPolicyBase.obj
 0001:00062920       ??0invalid_scheduler_policy_value@Concurrency@@QEAA@AEBV01@@Z 0000000140063920 f i libconcrt:SchedulerPolicyBase.obj
 0001:0006295c       ??1SchedulerPolicy@Concurrency@@QEAA@XZ 000000014006395c f   libconcrt:SchedulerPolicyBase.obj
 0001:0006296c       ??4SchedulerPolicy@Concurrency@@QEAAAEAV01@AEBV01@@Z 000000014006396c f   libconcrt:SchedulerPolicyBase.obj
 0001:00062990       ?GetPolicyValue@SchedulerPolicy@Concurrency@@QEBAIW4PolicyElementKey@2@@Z 0000000140063990 f   libconcrt:SchedulerPolicyBase.obj
 0001:000629d0       ?_Initialize@SchedulerPolicy@Concurrency@@AEAAX_KPEAPEAD@Z 00000001400639d0 f   libconcrt:SchedulerPolicyBase.obj
 0001:00062b08       ?_ResolvePolicyValues@SchedulerPolicy@Concurrency@@AEAAXXZ 0000000140063b08 f   libconcrt:SchedulerPolicyBase.obj
 0001:00062b6c       ?_StringFromPolicyKey@SchedulerPolicy@Concurrency@@CAPEBDI@Z 0000000140063b6c f   libconcrt:SchedulerPolicyBase.obj
 0001:00062b84       ?_ValidPolicyValue@SchedulerPolicy@Concurrency@@CA_NW4PolicyElementKey@2@I@Z 0000000140063b84 f   libconcrt:SchedulerPolicyBase.obj
 0001:00062c34       ?_ValidateConcRTPolicy@SchedulerPolicy@Concurrency@@QEBAXXZ 0000000140063c34 f   libconcrt:SchedulerPolicyBase.obj
 0001:00062ca0       ??0VirtualProcessor@details@Concurrency@@QEAA@XZ 0000000140063ca0 f   libconcrt:VirtualProcessor.obj
 0001:00062dd8       ??1VirtualProcessor@details@Concurrency@@UEAA@XZ 0000000140063dd8 f   libconcrt:VirtualProcessor.obj
 0001:00062e2c       ??_EVirtualProcessor@details@Concurrency@@UEAAPEAXI@Z 0000000140063e2c f i libconcrt:VirtualProcessor.obj
 0001:00062e2c       ??_GVirtualProcessor@details@Concurrency@@UEAAPEAXI@Z 0000000140063e2c f i libconcrt:VirtualProcessor.obj
 0001:00062e60       ?Affinitize@VirtualProcessor@details@Concurrency@@MEAAXPEAVInternalContextBase@23@@Z 0000000140063e60 f   libconcrt:VirtualProcessor.obj
 0001:00062ec0       ?CheckAffinityNotification@VirtualProcessor@details@Concurrency@@QEAA_NXZ 0000000140063ec0 f   libconcrt:VirtualProcessor.obj
 0001:00062f14       ?CheckForDeletion@?$ListArray@VVirtualProcessor@details@Concurrency@@@details@Concurrency@@AEAAXXZ 0000000140063f14 f i libconcrt:VirtualProcessor.obj
 0001:00062f78       ?CheckForDeletionBridge@?$ListArray@VVirtualProcessor@details@Concurrency@@@details@Concurrency@@CAXPEAV123@@Z 0000000140063f78 f i libconcrt:VirtualProcessor.obj
 0001:00062f80       ?ClaimExclusiveOwnership@VirtualProcessor@details@Concurrency@@QEAA_NAEAVClaimTicket@123@K_N@Z 0000000140063f80 f   libconcrt:VirtualProcessor.obj
 0001:00063000       ?Deactivate@VirtualProcessor@details@Concurrency@@QEAA_NPEAUIExecutionContext@3@@Z 0000000140064000 f   libconcrt:VirtualProcessor.obj
 0001:00063018       ?EnsureAllTasksVisible@VirtualProcessor@details@Concurrency@@QEAAXPEAUIExecutionContext@3@@Z 0000000140064018 f   libconcrt:VirtualProcessor.obj
 0001:00063030       ?ExerciseClaim@VirtualProcessor@details@Concurrency@@AEAA_NW4AvailabilityType@123@PEAVScheduleGroupSegmentBase@23@PEAVInternalContextBase@23@@Z 0000000140064030 f   libconcrt:VirtualProcessor.obj
 0001:00063100       ?ExerciseWith@ClaimTicket@VirtualProcessor@details@Concurrency@@QEAA_NPEAVInternalContextBase@34@@Z 0000000140064100 f   libconcrt:VirtualProcessor.obj
 0001:00063138       ?GetCurrentSubAllocator@VirtualProcessor@details@Concurrency@@QEAAPEAVSubAllocator@23@XZ 0000000140064138 f   libconcrt:VirtualProcessor.obj
 0001:00063164       ?Initialize@VirtualProcessor@details@Concurrency@@MEAAXPEAVSchedulingNode@23@PEAUIVirtualProcessorRoot@3@@Z 0000000140064164 f   libconcrt:VirtualProcessor.obj
 0001:000633b0       ?InterlockedClear@ReferenceCountedQuickBitSet@details@Concurrency@@QEAAII@Z 00000001400643b0 f i libconcrt:VirtualProcessor.obj
 0001:00063450       ?InterlockedSet@ReferenceCountedQuickBitSet@details@Concurrency@@QEAAII@Z 0000000140064450 f i libconcrt:VirtualProcessor.obj
 0001:000634f0       ?MakeAvailable@VirtualProcessor@details@Concurrency@@IEAAXW4AvailabilityType@123@_N@Z 00000001400644f0 f   libconcrt:VirtualProcessor.obj
 0001:00063570       ?MarkForRetirement@VirtualProcessor@details@Concurrency@@AEAAXXZ 0000000140064570 f   libconcrt:VirtualProcessor.obj
 0001:00063660       ?Oversubscribe@VirtualProcessor@details@Concurrency@@EEAAPEAV123@XZ 0000000140064660 f   libconcrt:VirtualProcessor.obj
 0001:000636a0       ?Remove@?$ListArray@VVirtualProcessor@details@Concurrency@@@details@Concurrency@@QEAA_NPEAVVirtualProcessor@23@H_N@Z 00000001400646a0 f i libconcrt:VirtualProcessor.obj
 0001:000637e0       ?Retire@VirtualProcessor@details@Concurrency@@MEAAXXZ 00000001400647e0 f   libconcrt:VirtualProcessor.obj
 0001:000639c8       ?SafePoint@VirtualProcessor@details@Concurrency@@QEAA_NXZ 00000001400649c8 f   libconcrt:VirtualProcessor.obj
 0001:000639dc       ?StartupWorkerContext@VirtualProcessor@details@Concurrency@@EEAA_NPEAVScheduleGroupSegmentBase@23@PEAVInternalContextBase@23@@Z 00000001400649dc f   libconcrt:VirtualProcessor.obj
 0001:00063acc       ?ThrowVirtualProcessorEvent@VirtualProcessor@details@Concurrency@@CAXW4ConcRT_EventType@3@EKK@Z 0000000140064acc f   libconcrt:VirtualProcessor.obj
 0001:00063b44       ?ToInternalContext@VirtualProcessor@details@Concurrency@@MEAAPEAVInternalContextBase@23@PEAUIExecutionContext@3@@Z 0000000140064b44 f   libconcrt:VirtualProcessor.obj
 0001:00063b48       ?UpdateWorkState@VirtualProcessor@details@Concurrency@@QEAAX_N0@Z 0000000140064b48 f   libconcrt:VirtualProcessor.obj
 0001:00063c00       ?Wipe@QuickBitSet@details@Concurrency@@QEAAXXZ 0000000140064c00 f i libconcrt:VirtualProcessor.obj
 0001:00063ca0       ??0SchedulingNode@details@Concurrency@@QEAA@AEBVQuickBitSet@12@KPEAVSchedulingRing@12@@Z 0000000140064ca0 f   libconcrt:SchedulingNode.obj
 0001:00063d60       ??1?$ListArray@VVirtualProcessor@details@Concurrency@@@details@Concurrency@@QEAA@XZ 0000000140064d60 f i libconcrt:SchedulingNode.obj
 0001:00063e88       ??1SchedulingNode@details@Concurrency@@QEAA@XZ 0000000140064e88 f   libconcrt:SchedulingNode.obj
 0001:00063ec4       ?Add@?$ListArray@VVirtualProcessor@details@Concurrency@@@details@Concurrency@@QEAAHPEAVVirtualProcessor@23@@Z 0000000140064ec4 f i libconcrt:SchedulingNode.obj
 0001:00064058       ?AddVirtualProcessor@SchedulingNode@details@Concurrency@@QEAAPEAVVirtualProcessor@23@PEAUIVirtualProcessorRoot@3@_N@Z 0000000140065058 f   libconcrt:SchedulingNode.obj
 0001:000641a8       ?FindMatchingVirtualProcessor@SchedulingNode@details@Concurrency@@QEAAPEAVVirtualProcessor@23@PEAUIVirtualProcessorRoot@3@@Z 00000001400651a8 f   libconcrt:SchedulingNode.obj
 0001:00064240       ?FindVirtualProcessorByLocation@SchedulingNode@details@Concurrency@@QEAAPEAVVirtualProcessor@23@PEBVlocation@3@@Z 0000000140065240 f   libconcrt:SchedulingNode.obj
 0001:000642fc       ?FoundAvailableVirtualProcessor@SchedulingNode@details@Concurrency@@AEAA_NAEAVClaimTicket@VirtualProcessor@23@Vlocation@3@K@Z 00000001400652fc f   libconcrt:SchedulingNode.obj
 0001:000643f0       ?GetLocation@SchedulingNode@details@Concurrency@@QEAA?AVlocation@3@XZ 00000001400653f0 f   libconcrt:SchedulingNode.obj
 0001:00064438       ??0InternalContextBase@details@Concurrency@@QEAA@PEAVSchedulerBase@12@@Z 0000000140065438 f   libconcrt:InternalContextBase.obj
 0001:00064500       ??0context_self_unblock@Concurrency@@QEAA@AEBV01@@Z 0000000140065500 f i libconcrt:InternalContextBase.obj
 0001:0006453c       ??0context_unblock_unbalanced@Concurrency@@QEAA@AEBV01@@Z 000000014006553c f i libconcrt:InternalContextBase.obj
 0001:00064578       ??0invalid_oversubscribe_operation@Concurrency@@QEAA@AEBV01@@Z 0000000140065578 f i libconcrt:InternalContextBase.obj
 0001:000645b4       ??0nested_scheduler_missing_detach@Concurrency@@QEAA@AEBV01@@Z 00000001400655b4 f i libconcrt:InternalContextBase.obj
 0001:000645f0       ??1InternalContextBase@details@Concurrency@@UEAA@XZ 00000001400655f0 f   libconcrt:InternalContextBase.obj
 0001:00064620       ??1ScopedCriticalRegion@ContextBase@details@Concurrency@@QEAA@XZ 0000000140065620 f i libconcrt:InternalContextBase.obj
 0001:00064634       ??_EInternalContextBase@details@Concurrency@@WBA@EAAPEAXI@Z 0000000140065634 f i libconcrt:InternalContextBase.obj
 0001:00064640       ??_EInternalContextBase@details@Concurrency@@UEAAPEAXI@Z 0000000140065640 f i libconcrt:InternalContextBase.obj
 0001:00064640       ??_GInternalContextBase@details@Concurrency@@UEAAPEAXI@Z 0000000140065640 f i libconcrt:InternalContextBase.obj
 0001:00064674       ?AddToRunnables@InternalContextBase@details@Concurrency@@MEAAXVlocation@3@@Z 0000000140065674 f   libconcrt:InternalContextBase.obj
 0001:00064868       ?Alloc@InternalContextBase@details@Concurrency@@UEAAPEAX_K@Z 0000000140065868 f   libconcrt:InternalContextBase.obj
 0001:000648d0       ?Block@InternalContextBase@details@Concurrency@@UEAAXXZ 00000001400658d0 f   libconcrt:InternalContextBase.obj
 0001:00064aa4       ?Cancel@InternalContextBase@details@Concurrency@@MEAAXXZ 0000000140065aa4 f   libconcrt:InternalContextBase.obj
 0001:00064b44       ?Cleanup@InternalContextBase@details@Concurrency@@IEAAXXZ 0000000140065b44 f   libconcrt:InternalContextBase.obj
 0001:00064b68       ?CleanupDispatchedContextOnCancel@InternalContextBase@details@Concurrency@@IEAAXXZ 0000000140065b68 f   libconcrt:InternalContextBase.obj
 0001:00064b90       ?Dispatch@InternalContextBase@details@Concurrency@@UEAAXPEAUDispatchState@3@@Z 0000000140065b90 f   libconcrt:InternalContextBase.obj
 0001:00064d68       ?ExecuteChoreInline@InternalContextBase@details@Concurrency@@IEAAXPEAVWorkItem@23@@Z 0000000140065d68 f   libconcrt:InternalContextBase.obj
 0001:00064dc0       ?ExecutedAssociatedChore@InternalContextBase@details@Concurrency@@IEAA_NXZ 0000000140065dc0 f   libconcrt:InternalContextBase.obj
 0001:00064e54       ?FindWorkForBlockingOrNesting@InternalContextBase@details@Concurrency@@AEAAPEAV123@AEA_N0@Z 0000000140065e54 f   libconcrt:InternalContextBase.obj
 0001:00064fd8       ?Free@InternalContextBase@details@Concurrency@@UEAAXPEAX@Z 0000000140065fd8 f   libconcrt:InternalContextBase.obj
 0001:00065018       ?GetAndResetOversubscribedVProc@InternalContextBase@details@Concurrency@@QEAAPEAVVirtualProcessor@23@PEAV423@@Z 0000000140066018 f   libconcrt:InternalContextBase.obj
 0001:00065040       ?GetId@InternalContextBase@details@Concurrency@@WBA@EBAIXZ 0000000140066040 f i libconcrt:InternalContextBase.obj
 0001:0006504c       ?GetProcessorMaskId@details@Concurrency@@YAIPEAVInternalContextBase@12@@Z 000000014006604c f   libconcrt:InternalContextBase.obj
 0001:0006505c       ?GetProxy@InternalContextBase@details@Concurrency@@UEAAPEAUIThreadProxy@3@XZ 000000014006605c f   libconcrt:InternalContextBase.obj
 0001:00065064       ?GetScheduler@InternalContextBase@details@Concurrency@@UEAAPEAUIScheduler@3@XZ 0000000140066064 f   libconcrt:InternalContextBase.obj
 0001:00065078       ?GetVirtualProcessorId@InternalContextBase@details@Concurrency@@UEBAIXZ 0000000140066078 f   libconcrt:InternalContextBase.obj
 0001:000650c0       ?IsSynchronouslyBlocked@InternalContextBase@details@Concurrency@@UEBA_NXZ 00000001400660c0 f i libconcrt:InternalContextBase.obj
 0001:000650cc       ?IsVirtualProcessorRetired@InternalContextBase@details@Concurrency@@IEAA_NXZ 00000001400660cc f   libconcrt:InternalContextBase.obj
 0001:00065140       ?LeaveScheduler@InternalContextBase@details@Concurrency@@AEAAXXZ 0000000140066140 f   libconcrt:InternalContextBase.obj
 0001:00065274       ?Oversubscribe@InternalContextBase@details@Concurrency@@UEAAX_N@Z 0000000140066274 f   libconcrt:InternalContextBase.obj
 0001:00065310       ?PrepareForUse@InternalContextBase@details@Concurrency@@QEAAXPEAVScheduleGroupSegmentBase@23@PEAU_Chore@23@_N@Z 0000000140066310 f   libconcrt:InternalContextBase.obj
 0001:00065360       ?PrepareToRun@InternalContextBase@details@Concurrency@@MEAAXPEAVVirtualProcessor@23@@Z 0000000140066360 f i libconcrt:InternalContextBase.obj
 0001:00065370       ?ReclaimVirtualProcessor@InternalContextBase@details@Concurrency@@IEAAXXZ 0000000140066370 f   libconcrt:InternalContextBase.obj
 0001:000653e4       ?RejoinScheduler@InternalContextBase@details@Concurrency@@AEAAXXZ 00000001400663e4 f   libconcrt:InternalContextBase.obj
 0001:0006541c       ?RemoveFromUse@InternalContextBase@details@Concurrency@@QEAAXXZ 000000014006641c f   libconcrt:InternalContextBase.obj
 0001:00065454       ?SetProxy@InternalContextBase@details@Concurrency@@UEAAXPEAUIThreadProxy@3@@Z 0000000140066454 f   libconcrt:InternalContextBase.obj
 0001:0006548c       ?SpinUntilBlocked@InternalContextBase@details@Concurrency@@IEAAXXZ 000000014006648c f   libconcrt:InternalContextBase.obj
 0001:000654cc       ?SpinYield@InternalContextBase@details@Concurrency@@UEAAXXZ 00000001400664cc f   libconcrt:InternalContextBase.obj
 0001:000655d4       ?SwapScheduleGroupSegment@InternalContextBase@details@Concurrency@@QEAAXPEAVScheduleGroupSegmentBase@23@_N@Z 00000001400665d4 f   libconcrt:InternalContextBase.obj
 0001:000656a0       ?SwitchOut@InternalContextBase@details@Concurrency@@IEAA_NW4ReasonForSwitch@123@@Z 00000001400666a0 f   libconcrt:InternalContextBase.obj
 0001:00065824       ?SwitchTo@InternalContextBase@details@Concurrency@@IEAAXPEAV123@W4ReasonForSwitch@123@@Z 0000000140066824 f   libconcrt:InternalContextBase.obj
 0001:000659ec       ?Unblock@InternalContextBase@details@Concurrency@@UEAAXXZ 00000001400669ec f   libconcrt:InternalContextBase.obj
 0001:00065b24       ?WaitForWork@InternalContextBase@details@Concurrency@@IEAAXXZ 0000000140066b24 f   libconcrt:InternalContextBase.obj
 0001:00065c7c       ?WorkWasFound@InternalContextBase@details@Concurrency@@IEAA_NPEAVWorkItem@23@@Z 0000000140066c7c f   libconcrt:InternalContextBase.obj
 0001:00065cf4       ?Yield@InternalContextBase@details@Concurrency@@UEAAXXZ 0000000140066cf4 f   libconcrt:InternalContextBase.obj
 0001:00065eec       ??0SchedulingRing@details@Concurrency@@QEAA@PEAVSchedulerBase@12@H@Z 0000000140066eec f   libconcrt:SchedulingRing.obj
 0001:00065fa8       ??1?$ListArray@VScheduleGroupSegmentBase@details@Concurrency@@@details@Concurrency@@QEAA@XZ 0000000140066fa8 f i libconcrt:SchedulingRing.obj
 0001:000660d0       ??1SchedulingRing@details@Concurrency@@QEAA@XZ 00000001400670d0 f   libconcrt:SchedulingRing.obj
 0001:000660fc       ?Activate@SchedulingRing@details@Concurrency@@QEAAXXZ 00000001400670fc f   libconcrt:SchedulingRing.obj
 0001:00066108       ?CheckForDeletion@?$ListArray@VScheduleGroupSegmentBase@details@Concurrency@@@details@Concurrency@@AEAAXXZ 0000000140067108 f i libconcrt:SchedulingRing.obj
 0001:0006616c       ?CheckForDeletionBridge@?$ListArray@VScheduleGroupSegmentBase@details@Concurrency@@@details@Concurrency@@CAXPEAV123@@Z 000000014006716c f i libconcrt:SchedulingRing.obj
 0001:00066174       ?Remove@?$ListArray@VScheduleGroupSegmentBase@details@Concurrency@@@details@Concurrency@@QEAA_NPEAVScheduleGroupSegmentBase@23@H_N@Z 0000000140067174 f i libconcrt:SchedulingRing.obj
 0001:000662b4       ?RemoveScheduleGroupSegment@SchedulingRing@details@Concurrency@@AEAAXPEAVScheduleGroupSegmentBase@23@@Z 00000001400672b4 f   libconcrt:SchedulingRing.obj
 0001:000662e4       ??IQuickBitSet@details@Concurrency@@QEBA?AV012@AEBV012@@Z 00000001400672e4 f i libconcrt:CacheLocalScheduleGroup.obj
 0001:00066388       ?AddToRunnablesCollection@CacheLocalScheduleGroupSegment@details@Concurrency@@EEAAXPEAVInternalContextBase@23@@Z 0000000140067388 f   libconcrt:CacheLocalScheduleGroup.obj
 0001:00066388       ?AddToRunnablesCollection@FairScheduleGroupSegment@details@Concurrency@@EEAAXPEAVInternalContextBase@23@@Z 0000000140067388 f   libconcrt:FairScheduleGroup.obj
 0001:000663e4       ?Enqueue@?$Mailbox@V_UnrealizedChore@details@Concurrency@@@details@Concurrency@@QEAA?AVSlot@123@PEAV_UnrealizedChore@23@@Z 00000001400673e4 f i libconcrt:CacheLocalScheduleGroup.obj
 0001:00066480       ?MailChore@CacheLocalScheduleGroup@details@Concurrency@@UEAA?AVSlot@?$Mailbox@V_UnrealizedChore@details@Concurrency@@@23@PEAV_UnrealizedChore@23@PEAVlocation@3@PEAPEAVScheduleGroupSegmentBase@23@@Z 0000000140067480 f   libconcrt:CacheLocalScheduleGroup.obj
 0001:000664c8       ?NotifyAffinitizedWork@CacheLocalScheduleGroupSegment@details@Concurrency@@UEAAXXZ 00000001400674c8 f   libconcrt:CacheLocalScheduleGroup.obj
 0001:0006652c       ?PostAffinityMessage@SchedulerBase@details@Concurrency@@QEAAXAEBVQuickBitSet@23@@Z 000000014006752c f i libconcrt:CacheLocalScheduleGroup.obj
 0001:000665d8       ?FindSegment@FairScheduleGroup@details@Concurrency@@MEAAPEAVScheduleGroupSegmentBase@23@PEAVlocation@3@PEAVSchedulingRing@23@@Z 00000001400675d8 f   libconcrt:FairScheduleGroup.obj
 0001:0006660c       ?LocateSegment@FairScheduleGroup@details@Concurrency@@UEAAPEAVScheduleGroupSegmentBase@23@PEAVlocation@3@_N@Z 000000014006760c f   libconcrt:FairScheduleGroup.obj
 0001:000666bc       ??0ExternalContextBase@details@Concurrency@@QEAA@PEAVSchedulerBase@12@_N@Z 00000001400676bc f   libconcrt:ExternalContextBase.obj
 0001:00066784       ??1ExternalContextBase@details@Concurrency@@UEAA@XZ 0000000140067784 f   libconcrt:ExternalContextBase.obj
 0001:000667ac       ??_EExternalContextBase@details@Concurrency@@UEAAPEAXI@Z 00000001400677ac f i libconcrt:ExternalContextBase.obj
 0001:000667ac       ??_GExternalContextBase@details@Concurrency@@UEAAPEAXI@Z 00000001400677ac f i libconcrt:ExternalContextBase.obj
 0001:000667e0       ?Alloc@ExternalContextBase@details@Concurrency@@UEAAPEAX_K@Z 00000001400677e0 f   libconcrt:ExternalContextBase.obj
 0001:00066830       ?Block@ExternalContextBase@details@Concurrency@@UEAAXXZ 0000000140067830 f   libconcrt:ExternalContextBase.obj
 0001:000668ac       ?Cleanup@ExternalContextBase@details@Concurrency@@AEAAXXZ 00000001400678ac f   libconcrt:ExternalContextBase.obj
 0001:0006691c       ?Free@ExternalContextBase@details@Concurrency@@UEAAXPEAX@Z 000000014006791c f   libconcrt:ExternalContextBase.obj
 0001:0006696c       ?GetVirtualProcessorId@ExternalContextBase@details@Concurrency@@UEBAIXZ 000000014006796c f i libconcrt:ExternalContextBase.obj
 0001:00066970       ?ImplicitDetachHandler@ExternalContextBase@details@Concurrency@@CAXPEAU_TP_CALLBACK_INSTANCE@@PEAXPEAU_TP_WAIT@@K@Z 0000000140067970 f   libconcrt:ExternalContextBase.obj
 0001:000669a4       ?IsSynchronouslyBlocked@ExternalContextBase@details@Concurrency@@UEBA_NXZ 00000001400679a4 f i libconcrt:ExternalContextBase.obj
 0001:000669b0       ?Oversubscribe@ExternalContextBase@details@Concurrency@@UEAAX_N@Z 00000001400679b0 f   libconcrt:ExternalContextBase.obj
 0001:000669ec       ?PrepareForUse@ExternalContextBase@details@Concurrency@@QEAAX_N@Z 00000001400679ec f   libconcrt:ExternalContextBase.obj
 0001:00066b00       ?RemoveFromUse@ExternalContextBase@details@Concurrency@@QEAAXXZ 0000000140067b00 f   libconcrt:ExternalContextBase.obj
 0001:00066b34       ?SpinYield@ExternalContextBase@details@Concurrency@@UEAAXXZ 0000000140067b34 f i libconcrt:ExternalContextBase.obj
 0001:00066b44       ?Unblock@ExternalContextBase@details@Concurrency@@UEAAXXZ 0000000140067b44 f   libconcrt:ExternalContextBase.obj
 0001:00066bfc       ?Yield@ExternalContextBase@details@Concurrency@@UEAAXXZ 0000000140067bfc f   libconcrt:ExternalContextBase.obj
 0001:00066c48       ??0ThreadScheduler@details@Concurrency@@QEAA@AEBVSchedulerPolicy@2@@Z 0000000140067c48 f   libconcrt:ThreadScheduler.obj
 0001:00066c8c       ??_EThreadInternalContext@details@Concurrency@@WBA@EAAPEAXI@Z 0000000140067c8c f i libconcrt:ThreadScheduler.obj
 0001:00066c98       ??_EThreadScheduler@details@Concurrency@@WBA@EAAPEAXI@Z 0000000140067c98 f i libconcrt:ThreadScheduler.obj
 0001:00066ca4       ??_EThreadInternalContext@details@Concurrency@@UEAAPEAXI@Z 0000000140067ca4 f i libconcrt:ThreadScheduler.obj
 0001:00066ca4       ??_GThreadInternalContext@details@Concurrency@@UEAAPEAXI@Z 0000000140067ca4 f i libconcrt:ThreadScheduler.obj
 0001:00066cf0       ??_EThreadScheduler@details@Concurrency@@UEAAPEAXI@Z 0000000140067cf0 f i libconcrt:ThreadScheduler.obj
 0001:00066cf0       ??_GThreadScheduler@details@Concurrency@@UEAAPEAXI@Z 0000000140067cf0 f i libconcrt:ThreadScheduler.obj
 0001:00066d3c       ?AddVirtualProcessors@ThreadScheduler@details@Concurrency@@UEAAXPEAPEAUIVirtualProcessorRoot@3@I@Z 0000000140067d3c f i libconcrt:ThreadScheduler.obj
 0001:00066d48       ?Create@ThreadScheduler@details@Concurrency@@SAPEAV123@AEBVSchedulerPolicy@3@@Z 0000000140067d48 f   libconcrt:ThreadScheduler.obj
 0001:00066d7c       ?CreateInternalContext@ThreadScheduler@details@Concurrency@@MEAAPEAVInternalContextBase@23@XZ 0000000140067d7c f   libconcrt:ThreadScheduler.obj
 0001:00066ddc       ?CreateVirtualProcessor@ThreadScheduler@details@Concurrency@@UEAAPEAVVirtualProcessor@23@PEAVSchedulingNode@23@PEAUIVirtualProcessorRoot@3@@Z 0000000140067ddc f   libconcrt:ThreadScheduler.obj
 0001:00066e1c       ?GetContextKind@ThreadInternalContext@details@Concurrency@@UEBA?AW4ContextKind@ContextBase@23@XZ 0000000140067e1c f i libconcrt:ThreadScheduler.obj
 0001:00066e1c       _get_startup_argv_mode     0000000140067e1c f i LIBCMT:argv_mode.obj
 0001:00066e24       ?GetIScheduler@ThreadScheduler@details@Concurrency@@UEAAPEAUIScheduler@3@XZ 0000000140067e24 f i libconcrt:ThreadScheduler.obj
 0001:00066e2c       ?GetId@ThreadScheduler@details@Concurrency@@UEBAIXZ 0000000140067e2c f i libconcrt:ThreadScheduler.obj
 0001:00066e40       ?GetPolicy@ThreadScheduler@details@Concurrency@@UEBA?AVSchedulerPolicy@3@XZ 0000000140067e40 f i libconcrt:ThreadScheduler.obj
 0001:00066e5c       ?GetPolicy@ThreadScheduler@details@Concurrency@@WBA@EBA?AVSchedulerPolicy@3@XZ 0000000140067e5c f i libconcrt:ThreadScheduler.obj
 0001:00066e68       ?RemoveVirtualProcessors@ThreadScheduler@details@Concurrency@@UEAAXPEAPEAUIVirtualProcessorRoot@3@I@Z 0000000140067e68 f i libconcrt:ThreadScheduler.obj
 0001:00066e74       ?Statistics@ThreadScheduler@details@Concurrency@@UEAAXPEAI00@Z 0000000140067e74 f i libconcrt:ThreadScheduler.obj
 0001:00066e80       ??0ExecutionResource@details@Concurrency@@QEAA@PEAVSchedulerProxy@12@PEAUSchedulerNode@12@I@Z 0000000140067e80 f   libconcrt:ExecutionResource.obj
 0001:00066ee4       ??0ExecutionResource@details@Concurrency@@QEAA@PEAVSchedulerProxy@12@PEAV012@@Z 0000000140067ee4 f   libconcrt:ExecutionResource.obj
 0001:00066f34       ?CurrentSubscriptionLevel@ExecutionResource@details@Concurrency@@UEBAIXZ 0000000140067f34 f   libconcrt:ExecutionResource.obj
 0001:00066f4c       ?DecrementUseCounts@ExecutionResource@details@Concurrency@@QEAAXXZ 0000000140067f4c f   libconcrt:ExecutionResource.obj
 0001:00066fd8       ?GetExecutionResourceId@ExecutionResource@details@Concurrency@@UEBAIXZ 0000000140067fd8 f i libconcrt:ExecutionResource.obj
 0001:00066fdc       ?GetNodeId@ExecutionResource@details@Concurrency@@UEBAIXZ 0000000140067fdc f i libconcrt:ExecutionResource.obj
 0001:00066fe0       ?IncrementUseCounts@ExecutionResource@details@Concurrency@@QEAAXXZ 0000000140067fe0 f   libconcrt:ExecutionResource.obj
 0001:000670d8       ?Remove@ExecutionResource@details@Concurrency@@UEAAXPEAUIScheduler@3@@Z 00000001400680d8 f   libconcrt:ExecutionResource.obj
 0001:00067178       ?ResetCurrent@ExecutionResource@details@Concurrency@@QEAAXXZ 0000000140068178 f   libconcrt:ExecutionResource.obj
 0001:000671a8       ?SetAsCurrent@ExecutionResource@details@Concurrency@@QEAAXXZ 00000001400681a8 f   libconcrt:ExecutionResource.obj
 0001:000671e4       ??$sign@N@details@Concurrency@@YANN@Z 00000001400681e4 f i libconcrt:HillClimbing.obj
 0001:0006720c       ??0HillClimbing@details@Concurrency@@QEAA@IIPEAVSchedulerProxy@12@@Z 000000014006820c f   libconcrt:HillClimbing.obj
 0001:00067280       ?CalculateThroughputGradient@HillClimbing@details@Concurrency@@AEAANHH@Z 0000000140068280 f   libconcrt:HillClimbing.obj
 0001:000673e0       ?CoefficientOfVariationMean@MeasuredHistory@HillClimbing@details@Concurrency@@QEAANXZ 00000001400683e0 f   libconcrt:HillClimbing.obj
 0001:0006743c       ?EstablishControlSetting@HillClimbing@details@Concurrency@@AEAAXI@Z 000000014006843c f   libconcrt:HillClimbing.obj
 0001:000674a4       ?FlushHistories@HillClimbing@details@Concurrency@@AEAAXXZ 00000001400684a4 f   libconcrt:HillClimbing.obj
 0001:000674ec       ?IsStableHistory@HillClimbing@details@Concurrency@@AEAA_NPEAVMeasuredHistory@123@@Z 00000001400684ec f   libconcrt:HillClimbing.obj
 0001:00067524       ?RecommendControlSetting@HillClimbing@details@Concurrency@@AEAAII@Z 0000000140068524 f   libconcrt:HillClimbing.obj
 0001:000675b0       ?Update@HillClimbing@details@Concurrency@@QEAAIIIII@Z 00000001400685b0 f   libconcrt:HillClimbing.obj
 0001:00067818       ?Variance@MeasuredHistory@HillClimbing@details@Concurrency@@QEAANXZ 0000000140068818 f   libconcrt:HillClimbing.obj
 0001:0006786c       ??0SchedulerProxy@details@Concurrency@@QEAA@PEAUIScheduler@2@PEAVResourceManager@12@AEBVSchedulerPolicy@2@@Z 000000014006886c f   libconcrt:SchedulerProxy.obj
 0001:00067b14       ??1SchedulerProxy@details@Concurrency@@IEAA@XZ 0000000140068b14 f   libconcrt:SchedulerProxy.obj
 0001:00067b54       ?AddCore@SchedulerProxy@details@Concurrency@@QEAAXPEAUSchedulerNode@23@I_N@Z 0000000140068b54 f   libconcrt:SchedulerProxy.obj
 0001:00067c50       ?AddExecutionResource@SchedulerProxy@details@Concurrency@@QEAAXPEAVExecutionResource@23@@Z 0000000140068c50 f   libconcrt:SchedulerProxy.obj
 0001:00067ce8       ?AddThreadSubscription@SchedulerProxy@details@Concurrency@@QEAAXPEAVExecutionResource@23@@Z 0000000140068ce8 f   libconcrt:SchedulerProxy.obj
 0001:00067d40       ?AddVirtualProcessorRoots@SchedulerProxy@details@Concurrency@@QEAAXPEAPEAUIVirtualProcessorRoot@3@I@Z 0000000140068d40 f   libconcrt:SchedulerProxy.obj
 0001:00067e38       ?AdjustAllocationIncrease@SchedulerProxy@details@Concurrency@@QEBAII@Z 0000000140068e38 f   libconcrt:SchedulerProxy.obj
 0001:00067ec4       ?BindContext@SchedulerProxy@details@Concurrency@@UEAAXPEAUIExecutionContext@3@@Z 0000000140068ec4 f   libconcrt:SchedulerProxy.obj
 0001:00067f30       ?Cleanup@SchedulerProxy@details@Concurrency@@IEAAXXZ 0000000140068f30 f   libconcrt:SchedulerProxy.obj
 0001:00068004       ?CreateExternalThreadResource@SchedulerProxy@details@Concurrency@@QEAAPEAVExecutionResource@23@PEAUSchedulerNode@23@I@Z 0000000140069004 f   libconcrt:SchedulerProxy.obj
 0001:0006806c       ?CreateOversubscriber@SchedulerProxy@details@Concurrency@@UEAAPEAUIVirtualProcessorRoot@3@PEAUIExecutionResource@3@@Z 000000014006906c f   libconcrt:SchedulerProxy.obj
 0001:00068190       ?CreateVirtualProcessorRoot@SchedulerProxy@details@Concurrency@@UEAAPEAVVirtualProcessorRoot@23@PEAUSchedulerNode@23@I@Z 0000000140069190 f   libconcrt:SchedulerProxy.obj
 0001:000681e0       ?DecrementCoreSubscription@SchedulerProxy@details@Concurrency@@QEAAXPEAVExecutionResource@23@@Z 00000001400691e0 f   libconcrt:SchedulerProxy.obj
 0001:00068234       ?DecrementFixedCoreCount@SchedulerProxy@details@Concurrency@@QEAAXII_N@Z 0000000140069234 f   libconcrt:SchedulerProxy.obj
 0001:000682dc       ?DeleteThis@SchedulerProxy@details@Concurrency@@MEAAXXZ 00000001400692dc f i libconcrt:SchedulerProxy.obj
 0001:00068304       ?DestroyExecutionResource@SchedulerProxy@details@Concurrency@@QEAAXPEAVExecutionResource@23@@Z 0000000140069304 f   libconcrt:SchedulerProxy.obj
 0001:000683f8       ?DestroyVirtualProcessorRoot@SchedulerProxy@details@Concurrency@@QEAAXPEAVVirtualProcessorRoot@23@@Z 00000001400693f8 f   libconcrt:SchedulerProxy.obj
 0001:000684c4       ?FinalShutdown@SchedulerProxy@details@Concurrency@@UEAAXXZ 00000001400694c4 f   libconcrt:SchedulerProxy.obj
 0001:000684e8       ?GetCurrentThreadExecutionResource@SchedulerProxy@details@Concurrency@@QEAAPEAVExecutionResource@23@XZ 00000001400694e8 f   libconcrt:SchedulerProxy.obj
 0001:00068514       ?GetNewThreadProxy@SchedulerProxy@details@Concurrency@@UEAAPEAUIThreadProxy@3@PEAUIExecutionContext@3@@Z 0000000140069514 f   libconcrt:SchedulerProxy.obj
 0001:0006857c       ?GetResourceForNewSubscription@SchedulerProxy@details@Concurrency@@QEAAPEAVExecutionResource@23@PEAV423@@Z 000000014006957c f   libconcrt:SchedulerProxy.obj
 0001:000685e0       ?GrantAllocation@SchedulerProxy@details@Concurrency@@QEAAPEAVExecutionResource@23@I_N0@Z 00000001400695e0 f   libconcrt:SchedulerProxy.obj
 0001:000689d4       ?IncrementCoreSubscription@SchedulerProxy@details@Concurrency@@QEAAXPEAVExecutionResource@23@@Z 00000001400699d4 f   libconcrt:SchedulerProxy.obj
 0001:00068a2c       ?IncrementFixedCoreCount@SchedulerProxy@details@Concurrency@@QEAAXII_N@Z 0000000140069a2c f   libconcrt:SchedulerProxy.obj
 0001:00068adc       ?ReferenceCurrentThreadExecutionResource@SchedulerProxy@details@Concurrency@@QEAAPEAVExecutionResource@23@XZ 0000000140069adc f   libconcrt:SchedulerProxy.obj
 0001:00068b50       ?RemoveCore@SchedulerProxy@details@Concurrency@@QEAAXPEAUSchedulerNode@23@I@Z 0000000140069b50 f   libconcrt:SchedulerProxy.obj
 0001:00068c4c       ?RemoveThreadSubscription@SchedulerProxy@details@Concurrency@@QEAAXPEAVExecutionResource@23@@Z 0000000140069c4c f   libconcrt:SchedulerProxy.obj
 0001:00068ca8       ?RequestInitialVirtualProcessors@SchedulerProxy@details@Concurrency@@UEAAPEAUIExecutionResource@3@_N@Z 0000000140069ca8 f   libconcrt:SchedulerProxy.obj
 0001:00068cb8       ?SendCoreNotification@SchedulerProxy@details@Concurrency@@QEAAXPEAUSchedulerCore@23@_N@Z 0000000140069cb8 f   libconcrt:SchedulerProxy.obj
 0001:00068dc4       ?Shutdown@SchedulerProxy@details@Concurrency@@UEAAXXZ 0000000140069dc4 f   libconcrt:SchedulerProxy.obj
 0001:00068dd0       ?SubscribeCurrentThread@SchedulerProxy@details@Concurrency@@UEAAPEAUIExecutionResource@3@XZ 0000000140069dd0 f   libconcrt:SchedulerProxy.obj
 0001:00068ddc       ?ToggleBorrowedState@SchedulerProxy@details@Concurrency@@QEAAXPEAUSchedulerNode@23@I@Z 0000000140069ddc f   libconcrt:SchedulerProxy.obj
 0001:00068e18       ?UnbindContext@SchedulerProxy@details@Concurrency@@UEAAXPEAUIExecutionContext@3@@Z 0000000140069e18 f   libconcrt:SchedulerProxy.obj
 0001:00068e60       ?Initialize@WinRT@details@Concurrency@@SAXXZ 0000000140069e60 f   libconcrt:WinRTWrapper.obj
 0001:00068f74       ?RoInitialize@WinRT@details@Concurrency@@SAJW4RO_INIT_TYPE@@@Z 0000000140069f74 f   libconcrt:WinRTWrapper.obj
 0001:00068f98       ?RoUninitialize@WinRT@details@Concurrency@@SAXXZ 0000000140069f98 f   libconcrt:WinRTWrapper.obj
 0001:00068fb4       ??0?$ThreadProxyFactory@VFreeThreadProxy@details@Concurrency@@@details@Concurrency@@IEAA@PEAVThreadProxyFactoryManager@12@@Z 0000000140069fb4 f i libconcrt:ThreadProxyFactoryManager.obj
 0001:00069008       ??0ThreadProxyFactoryManager@details@Concurrency@@QEAA@XZ 000000014006a008 f   libconcrt:ThreadProxyFactoryManager.obj
 0001:00069038       ??1IThreadProxyFactory@details@Concurrency@@UEAA@XZ 000000014006a038 f i libconcrt:ThreadProxyFactoryManager.obj
 0001:00069044       ??1ThreadProxyFactoryManager@details@Concurrency@@QEAA@XZ 000000014006a044 f   libconcrt:ThreadProxyFactoryManager.obj
 0001:00069078       ??_E?$ThreadProxyFactory@VFreeThreadProxy@details@Concurrency@@@details@Concurrency@@UEAAPEAXI@Z 000000014006a078 f i libconcrt:ThreadProxyFactoryManager.obj
 0001:00069078       ??_G?$ThreadProxyFactory@VFreeThreadProxy@details@Concurrency@@@details@Concurrency@@UEAAPEAXI@Z 000000014006a078 f i libconcrt:ThreadProxyFactoryManager.obj
 0001:000690a4       ??_EFreeThreadProxy@details@Concurrency@@UEAAPEAXI@Z 000000014006a0a4 f i libconcrt:ThreadProxyFactoryManager.obj
 0001:000690a4       ??_GFreeThreadProxy@details@Concurrency@@UEAAPEAXI@Z 000000014006a0a4 f i libconcrt:ThreadProxyFactoryManager.obj
 0001:000690e4       ??_EFreeThreadProxyFactory@details@Concurrency@@UEAAPEAXI@Z 000000014006a0e4 f i libconcrt:ThreadProxyFactoryManager.obj
 0001:000690e4       ??_GFreeThreadProxyFactory@details@Concurrency@@UEAAPEAXI@Z 000000014006a0e4 f i libconcrt:ThreadProxyFactoryManager.obj
 0001:00069110       ??_EIThreadProxyFactory@details@Concurrency@@UEAAPEAXI@Z 000000014006a110 f i libconcrt:ThreadProxyFactoryManager.obj
 0001:00069110       ??_GIThreadProxyFactory@details@Concurrency@@UEAAPEAXI@Z 000000014006a110 f i libconcrt:ThreadProxyFactoryManager.obj
 0001:0006913c       ?Create@FreeThreadProxyFactory@details@Concurrency@@EEAAPEAVFreeThreadProxy@23@I@Z 000000014006a13c f i libconcrt:ThreadProxyFactoryManager.obj
 0001:000691ac       ?CreateFactory@FreeThreadProxyFactory@details@Concurrency@@SAPEAV123@PEAVThreadProxyFactoryManager@23@@Z 000000014006a1ac f i libconcrt:ThreadProxyFactoryManager.obj
 0001:0006921c       ?GetExecutionResourceTls@?$ThreadProxyFactory@VFreeThreadProxy@details@Concurrency@@@details@Concurrency@@UEAAKXZ 000000014006a21c f i libconcrt:ThreadProxyFactoryManager.obj
 0001:00069220       ?GetFreeThreadProxyFactory@ThreadProxyFactoryManager@details@Concurrency@@QEAAPEAVFreeThreadProxyFactory@23@XZ 000000014006a220 f   libconcrt:ThreadProxyFactoryManager.obj
 0001:00069270       ?Prepare@?$ThreadProxyFactory@VFreeThreadProxy@details@Concurrency@@@details@Concurrency@@MEAAXPEAVFreeThreadProxy@23@H@Z 000000014006a270 f i libconcrt:ThreadProxyFactoryManager.obj
 0001:00069290       ?ReclaimProxy@?$ThreadProxyFactory@VFreeThreadProxy@details@Concurrency@@@details@Concurrency@@UEAAXPEAUIThreadProxy@3@@Z 000000014006a290 f i libconcrt:ThreadProxyFactoryManager.obj
 0001:00069320       ?ReclaimProxy@FreeThreadProxyFactory@details@Concurrency@@UEAAXPEAUIThreadProxy@3@@Z 000000014006a320 f i libconcrt:ThreadProxyFactoryManager.obj
 0001:000693fc       ?Reference@FreeThreadProxyFactory@details@Concurrency@@UEAAJXZ 000000014006a3fc f i libconcrt:ThreadProxyFactoryManager.obj
 0001:0006940c       ?Release@FreeThreadProxyFactory@details@Concurrency@@UEAAJXZ 000000014006a40c f i libconcrt:ThreadProxyFactoryManager.obj
 0001:0006943c       ?RequestProxy@?$ThreadProxyFactory@VFreeThreadProxy@details@Concurrency@@@details@Concurrency@@UEAAPEAUIThreadProxy@3@IH@Z 000000014006a43c f i libconcrt:ThreadProxyFactoryManager.obj
 0001:000694ec       ?Retire@FreeThreadProxyFactory@details@Concurrency@@EEAAXPEAVFreeThreadProxy@23@@Z 000000014006a4ec f i libconcrt:ThreadProxyFactoryManager.obj
 0001:000694f4       ?RetireThreadProxies@?$ThreadProxyFactory@VFreeThreadProxy@details@Concurrency@@@details@Concurrency@@QEAAXXZ 000000014006a4f4 f i libconcrt:ThreadProxyFactoryManager.obj
 0001:00069570       ?ShutdownFactory@FreeThreadProxyFactory@details@Concurrency@@UEAAXXZ 000000014006a570 f i libconcrt:ThreadProxyFactoryManager.obj
 0001:00069598       ?YieldToSystem@FreeThreadProxy@details@Concurrency@@UEAAXXZ 000000014006a598 f i libconcrt:ThreadProxyFactoryManager.obj
 0001:000695a0       ??0location@Concurrency@@QEAA@W4_Type@01@IIPEAX@Z 000000014006a5a0 f   libconcrt:location.obj
 0001:000695c8       ?_FastNodeIntersects@location@Concurrency@@QEBA_NAEBV12@@Z 000000014006a5c8 f   libconcrt:location.obj
 0001:00069668       ?_FastVPIntersects@location@Concurrency@@QEBA_NAEBV12@@Z 000000014006a668 f   libconcrt:location.obj
 0001:000696b0       ??0WorkItem@details@Concurrency@@QEAA@PEAVInternalContextBase@12@@Z 000000014006a6b0 f   libconcrt:SearchAlgorithms.obj
 0001:000696e8       ?Bind@WorkItem@details@Concurrency@@QEAAPEAVInternalContextBase@23@XZ 000000014006a6e8 f   libconcrt:SearchAlgorithms.obj
 0001:00069744       ?BindTo@WorkItem@details@Concurrency@@QEAAXPEAVInternalContextBase@23@@Z 000000014006a744 f   libconcrt:SearchAlgorithms.obj
 0001:0006978c       ?GetLocalRunnable@WorkSearchContext@details@Concurrency@@AEAA_NPEAVWorkItem@23@PEAVVirtualProcessor@23@_N@Z 000000014006a78c f   libconcrt:SearchAlgorithms.obj
 0001:000698ac       ?GetPseudoRRAffineScheduleGroupSegment@SchedulingRing@details@Concurrency@@QEAAPEAVScheduleGroupSegmentBase@23@PEAH@Z 000000014006a8ac f i libconcrt:SearchAlgorithms.obj
 0001:00069918       ?GetPseudoRRNonAffineScheduleGroupSegment@SchedulingRing@details@Concurrency@@QEAAPEAVScheduleGroupSegmentBase@23@PEAH@Z 000000014006a918 f i libconcrt:SearchAlgorithms.obj
 0001:00069984       ?GetRealizedChore@WorkSearchContext@details@Concurrency@@AEAA_NPEAVWorkItem@23@PEAVScheduleGroupSegmentBase@23@_N@Z 000000014006a984 f   libconcrt:SearchAlgorithms.obj
 0001:000699f8       ?GetRealizedChoreWithinGroup@WorkSearchContext@details@Concurrency@@AEAA_NPEAVWorkItem@23@PEAVScheduleGroupSegmentBase@23@_NW4SearchAffinity@123@2@Z 000000014006a9f8 f   libconcrt:SearchAlgorithms.obj
 0001:00069ac8       ?GetRunnableContext@WorkSearchContext@details@Concurrency@@AEAA_NPEAVWorkItem@23@PEAVScheduleGroupSegmentBase@23@@Z 000000014006aac8 f   libconcrt:SearchAlgorithms.obj
 0001:00069b0c       ?GetRunnableContextWithinGroup@WorkSearchContext@details@Concurrency@@AEAA_NPEAVWorkItem@23@PEAVScheduleGroupSegmentBase@23@W4SearchAffinity@123@_N@Z 000000014006ab0c f   libconcrt:SearchAlgorithms.obj
 0001:00069bcc       ?GetUnrealizedChore@WorkSearchContext@details@Concurrency@@AEAA_NPEAVWorkItem@23@PEAVScheduleGroupSegmentBase@23@_N2@Z 000000014006abcc f   libconcrt:SearchAlgorithms.obj
 0001:00069c40       ?GetUnrealizedChoreWithinGroup@WorkSearchContext@details@Concurrency@@AEAA_NPEAVWorkItem@23@PEAVScheduleGroupSegmentBase@23@_NW4SearchAffinity@123@2@Z 000000014006ac40 f   libconcrt:SearchAlgorithms.obj
 0001:00069d18       ?Invoke@WorkItem@details@Concurrency@@QEAAXXZ 000000014006ad18 f   libconcrt:SearchAlgorithms.obj
 0001:00069d68       ?PreSearch@WorkSearchContext@details@Concurrency@@AEAA_NPEAVWorkItem@23@@Z 000000014006ad68 f   libconcrt:SearchAlgorithms.obj
 0001:00069dac       ?QuickSearch@WorkSearchContext@details@Concurrency@@AEAA_NPEAVScheduleGroupSegmentBase@23@PEAVWorkItem@23@_NK@Z 000000014006adac f   libconcrt:SearchAlgorithms.obj
 0001:00069e54       ?QuickSearchYield@WorkSearchContext@details@Concurrency@@AEAA_NPEAVScheduleGroupSegmentBase@23@PEAVWorkItem@23@_NK@Z 000000014006ae54 f   libconcrt:SearchAlgorithms.obj
 0001:00069ee8       ?Reset@WorkSearchContext@details@Concurrency@@QEAAXPEAVVirtualProcessor@23@W4Algorithm@123@@Z 000000014006aee8 f   libconcrt:SearchAlgorithms.obj
 0001:00069f60       ?ResolveToken@WorkItem@details@Concurrency@@QEAA_NXZ 000000014006af60 f   libconcrt:SearchAlgorithms.obj
 0001:00069ff4       ?SearchCacheLocal@WorkSearchContext@details@Concurrency@@AEAA_NPEAVWorkItem@23@PEAVScheduleGroupSegmentBase@23@_NK@Z 000000014006aff4 f   libconcrt:SearchAlgorithms.obj
 0001:0006a44c       ?SearchCacheLocalYield@WorkSearchContext@details@Concurrency@@AEAA_NPEAVWorkItem@23@PEAVScheduleGroupSegmentBase@23@_NK@Z 000000014006b44c f   libconcrt:SearchAlgorithms.obj
 0001:0006a7c4       ?SearchCacheLocal_Realized@WorkSearchContext@details@Concurrency@@AEAA_NPEAVWorkItem@23@PEAVSchedulingRing@23@PEAVScheduleGroupSegmentBase@23@_NW4SearchAffinity@123@K3@Z 000000014006b7c4 f   libconcrt:SearchAlgorithms.obj
 0001:0006a968       ?SearchCacheLocal_Runnables@WorkSearchContext@details@Concurrency@@AEAA_NPEAVWorkItem@23@PEAVSchedulingRing@23@PEAVScheduleGroupSegmentBase@23@_NW4SearchAffinity@123@K3@Z 000000014006b968 f   libconcrt:SearchAlgorithms.obj
 0001:0006ab30       ?SearchCacheLocal_Unrealized@WorkSearchContext@details@Concurrency@@AEAA_NPEAVWorkItem@23@PEAVSchedulingRing@23@PEAVScheduleGroupSegmentBase@23@_NW4SearchAffinity@123@K3@Z 000000014006bb30 f   libconcrt:SearchAlgorithms.obj
 0001:0006acdc       ?SearchFair@WorkSearchContext@details@Concurrency@@AEAA_NPEAVWorkItem@23@PEAVScheduleGroupSegmentBase@23@_NK@Z 000000014006bcdc f   libconcrt:SearchAlgorithms.obj
 0001:0006ae3c       ?SearchFairYield@WorkSearchContext@details@Concurrency@@AEAA_NPEAVWorkItem@23@PEAVScheduleGroupSegmentBase@23@_NK@Z 000000014006be3c f   libconcrt:SearchAlgorithms.obj
 0001:0006af8c       ?SearchFair_Realized@WorkSearchContext@details@Concurrency@@AEAA_NPEAVWorkItem@23@PEAVSchedulingRing@23@_N@Z 000000014006bf8c f   libconcrt:SearchAlgorithms.obj
 0001:0006b05c       ?SearchFair_Runnables@WorkSearchContext@details@Concurrency@@AEAA_NPEAVWorkItem@23@PEAVSchedulingRing@23@@Z 000000014006c05c f   libconcrt:SearchAlgorithms.obj
 0001:0006b0fc       ?SearchFair_Unrealized@WorkSearchContext@details@Concurrency@@AEAA_NPEAVWorkItem@23@PEAVSchedulingRing@23@_N@Z 000000014006c0fc f   libconcrt:SearchAlgorithms.obj
 0001:0006b1cc       ?SkipSegmentSearch@WorkSearchContext@details@Concurrency@@AEAA_NPEAVScheduleGroupSegmentBase@23@0W4SearchAffinity@123@_N@Z 000000014006c1cc f   libconcrt:SearchAlgorithms.obj
 0001:0006b2a4       ?StealForeignLocalRunnable@WorkSearchContext@details@Concurrency@@AEAA_NPEAVWorkItem@23@PEAVSchedulingNode@23@@Z 000000014006c2a4 f   libconcrt:SearchAlgorithms.obj
 0001:0006b36c       ?StealLocalRunnable@WorkSearchContext@details@Concurrency@@AEAA_NPEAVWorkItem@23@PEAVSchedulingNode@23@PEAVVirtualProcessor@23@@Z 000000014006c36c f   libconcrt:SearchAlgorithms.obj
 0001:0006b48c       ?TransferReferences@WorkItem@details@Concurrency@@QEAAXPEAVInternalContextBase@23@@Z 000000014006c48c f   libconcrt:SearchAlgorithms.obj
 0001:0006b51c       ?Invoke@RealizedChore@details@Concurrency@@QEAAXXZ 000000014006c51c f   libconcrt:RealizedChore.obj
 0001:0006b52c       ??0ThreadVirtualProcessor@details@Concurrency@@QEAA@PEAVSchedulingNode@12@PEAUIVirtualProcessorRoot@2@@Z 000000014006c52c f   libconcrt:ThreadVirtualProcessor.obj
 0001:0006b57c       ??_EThreadVirtualProcessor@details@Concurrency@@UEAAPEAXI@Z 000000014006c57c f i libconcrt:ThreadVirtualProcessor.obj
 0001:0006b57c       ??_GThreadVirtualProcessor@details@Concurrency@@UEAAPEAXI@Z 000000014006c57c f i libconcrt:ThreadVirtualProcessor.obj
 0001:0006b5bc       ??0VirtualProcessorRoot@details@Concurrency@@QEAA@PEAVSchedulerProxy@12@PEAUSchedulerNode@12@I@Z 000000014006c5bc f   libconcrt:VirtualProcessorRoot.obj
 0001:0006b60c       ??_EVirtualProcessorRoot@details@Concurrency@@UEAAPEAXI@Z 000000014006c60c f i libconcrt:VirtualProcessorRoot.obj
 0001:0006b60c       ??_GVirtualProcessorRoot@details@Concurrency@@UEAAPEAXI@Z 000000014006c60c f i libconcrt:VirtualProcessorRoot.obj
 0001:0006b644       ?CurrentSubscriptionLevel@VirtualProcessorRoot@details@Concurrency@@UEBAIXZ 000000014006c644 f i libconcrt:VirtualProcessorRoot.obj
 0001:0006b650       ?GetExecutionResourceId@VirtualProcessorRoot@details@Concurrency@@UEBAIXZ 000000014006c650 f i libconcrt:VirtualProcessorRoot.obj
 0001:0006b654       ?GetId@VirtualProcessorRoot@details@Concurrency@@UEBAIXZ 000000014006c654 f i libconcrt:VirtualProcessorRoot.obj
 0001:0006b658       ?GetNodeId@VirtualProcessorRoot@details@Concurrency@@UEBAIXZ 000000014006c658 f i libconcrt:VirtualProcessorRoot.obj
 0001:0006b65c       ?Remove@VirtualProcessorRoot@details@Concurrency@@UEAAXPEAUIScheduler@3@@Z 000000014006c65c f   libconcrt:VirtualProcessorRoot.obj
 0001:0006b6cc       ?ResetSubscriptionLevel@VirtualProcessorRoot@details@Concurrency@@QEAAXXZ 000000014006c6cc f   libconcrt:VirtualProcessorRoot.obj
 0001:0006b6f0       ?Subscribe@VirtualProcessorRoot@details@Concurrency@@QEAAXXZ 000000014006c6f0 f   libconcrt:VirtualProcessorRoot.obj
 0001:0006b700       ?Unsubscribe@VirtualProcessorRoot@details@Concurrency@@QEAAXXZ 000000014006c700 f   libconcrt:VirtualProcessorRoot.obj
 0001:0006b710       ??0FreeVirtualProcessorRoot@details@Concurrency@@QEAA@PEAVSchedulerProxy@12@PEAUSchedulerNode@12@I@Z 000000014006c710 f   libconcrt:FreeVirtualProcessorRoot.obj
 0001:0006b748       ??_EFreeVirtualProcessorRoot@details@Concurrency@@UEAAPEAXI@Z 000000014006c748 f i libconcrt:FreeVirtualProcessorRoot.obj
 0001:0006b748       ??_GFreeVirtualProcessorRoot@details@Concurrency@@UEAAPEAXI@Z 000000014006c748 f i libconcrt:FreeVirtualProcessorRoot.obj
 0001:0006b780       ?Activate@FreeVirtualProcessorRoot@details@Concurrency@@UEAAXPEAUIExecutionContext@3@@Z 000000014006c780 f   libconcrt:FreeVirtualProcessorRoot.obj
 0001:0006b8b4       ?Affinitize@FreeVirtualProcessorRoot@details@Concurrency@@QEAAXPEAVFreeThreadProxy@23@@Z 000000014006c8b4 f   libconcrt:FreeVirtualProcessorRoot.obj
 0001:0006b95c       ?Deactivate@FreeVirtualProcessorRoot@details@Concurrency@@UEAA_NPEAUIExecutionContext@3@@Z 000000014006c95c f   libconcrt:FreeVirtualProcessorRoot.obj
 0001:0006ba78       ?DeleteThis@FreeVirtualProcessorRoot@details@Concurrency@@UEAAXXZ 000000014006ca78 f   libconcrt:FreeVirtualProcessorRoot.obj
 0001:0006bb20       ?EnsureAllTasksVisible@FreeVirtualProcessorRoot@details@Concurrency@@UEAAXPEAUIExecutionContext@3@@Z 000000014006cb20 f   libconcrt:FreeVirtualProcessorRoot.obj
 0001:0006bbc4       ?ResetOnIdle@FreeVirtualProcessorRoot@details@Concurrency@@QEAAXW4SwitchingProxyState@3@@Z 000000014006cbc4 f   libconcrt:FreeVirtualProcessorRoot.obj
 0001:0006bc98       ?AssociateExecutionContext@FreeThreadProxy@details@Concurrency@@QEAAXPEAUIExecutionContext@3@@Z 000000014006cc98 f   libconcrt:FreeThreadProxy.obj
 0001:0006bcb4       ?Dispatch@FreeThreadProxy@details@Concurrency@@EEAAXXZ 000000014006ccb4 f   libconcrt:FreeThreadProxy.obj
 0001:0006bd84       ?ReturnIdleProxy@FreeThreadProxy@details@Concurrency@@QEAAXXZ 000000014006cd84 f   libconcrt:FreeThreadProxy.obj
 0001:0006bda4       ?SwitchOut@FreeThreadProxy@details@Concurrency@@UEAAXW4SwitchingProxyState@3@@Z 000000014006cda4 f   libconcrt:FreeThreadProxy.obj
 0001:0006be00       ?SwitchTo@FreeThreadProxy@details@Concurrency@@UEAAXPEAUIExecutionContext@3@W4SwitchingProxyState@3@@Z 000000014006ce00 f   libconcrt:FreeThreadProxy.obj
 0001:0006bee8       ??0ThreadProxy@details@Concurrency@@QEAA@PEAUIThreadProxyFactory@12@I@Z 000000014006cee8 f   libconcrt:ThreadProxy.obj
 0001:0006bfe8       ??0scheduler_worker_creation_error@Concurrency@@QEAA@AEBV01@@Z 000000014006cfe8 f i libconcrt:ThreadProxy.obj
 0001:0006c040       ??1ThreadProxy@details@Concurrency@@UEAA@XZ 000000014006d040 f   libconcrt:ThreadProxy.obj
 0001:0006c080       ??_EThreadProxy@details@Concurrency@@UEAAPEAXI@Z 000000014006d080 f i libconcrt:ThreadProxy.obj
 0001:0006c080       ??_GThreadProxy@details@Concurrency@@UEAAPEAXI@Z 000000014006d080 f i libconcrt:ThreadProxy.obj
 0001:0006c0b4       ?Cancel@ThreadProxy@details@Concurrency@@QEAAXXZ 000000014006d0b4 f   libconcrt:ThreadProxy.obj
 0001:0006c0c8       ?GetId@ThreadProxy@details@Concurrency@@UEBAIXZ 000000014006d0c8 f   libconcrt:ThreadProxy.obj
 0001:0006c0cc       ?ResumeExecution@ThreadProxy@details@Concurrency@@QEAAXXZ 000000014006d0cc f   libconcrt:ThreadProxy.obj
 0001:0006c0d8       ?SetPriority@ThreadProxy@details@Concurrency@@QEAAXH@Z 000000014006d0d8 f   libconcrt:ThreadProxy.obj
 0001:0006c0e4       ?SpinUntilBlocked@ThreadProxy@details@Concurrency@@QEAAXXZ 000000014006d0e4 f   libconcrt:ThreadProxy.obj
 0001:0006c124       ?SuspendExecution@ThreadProxy@details@Concurrency@@QEAAXXZ 000000014006d124 f   libconcrt:ThreadProxy.obj
 0001:0006c150       ?ThreadProxyMain@ThreadProxy@details@Concurrency@@CAKPEAX@Z 000000014006d150 f   libconcrt:ThreadProxy.obj
 0001:0006c1a4       ??2@YAPEAX_K@Z             000000014006d1a4 f   LIBCMT:new_scalar.obj
 0001:0006c1e0       ??2@YAPEAX_KW4align_val_t@std@@@Z 000000014006d1e0 f   LIBCMT:new_scalar_align.obj
 0001:0006c22c       ??3@YAXPEAX_KW4align_val_t@std@@@Z 000000014006d22c f   LIBCMT:delete_scalar_size_align.obj
 0001:0006c234       ??_U@YAPEAX_K@Z            000000014006d234 f   LIBCMT:new_array.obj
 0001:0006c23c       ??_V@YAXPEAX_K@Z           000000014006d23c f   LIBCMT:delete_array_size.obj
 0001:0006c260       __chkstk                   000000014006d260 f   LIBCMT:chkstk.obj
 0001:0006c260       _alloca_probe              000000014006d260 f   LIBCMT:chkstk.obj
 0001:0006c2b0       ??_Etype_info@@UEAAPEAXI@Z 000000014006d2b0 f i LIBCMT:std_type_info_static.obj
 0001:0006c2b0       ??_Gtype_info@@UEAAPEAXI@Z 000000014006d2b0 f i LIBCMT:std_type_info_static.obj
 0001:0006c2dc       ??3@YAXPEAX@Z              000000014006d2dc f   LIBCMT:delete_scalar.obj
 0001:0006c2e4       ??2@YAPEAX_KAEBUnothrow_t@std@@@Z 000000014006d2e4 f   LIBCMT:new_scalar_nothrow.obj
 0001:0006c2f8       __scrt_acquire_startup_lock 000000014006d2f8 f   LIBCMT:utility.obj
 0001:0006c334       __scrt_initialize_crt      000000014006d334 f   LIBCMT:utility.obj
 0001:0006c370       __scrt_initialize_onexit_tables 000000014006d370 f   LIBCMT:utility.obj
 0001:0006c3fc       __scrt_is_nonwritable_in_current_image 000000014006d3fc f   LIBCMT:utility.obj
 0001:0006c494       __scrt_release_startup_lock 000000014006d494 f   LIBCMT:utility.obj
 0001:0006c4b8       __scrt_uninitialize_crt    000000014006d4b8 f   LIBCMT:utility.obj
 0001:0006c4e4       _onexit                    000000014006d4e4 f   LIBCMT:utility.obj
 0001:0006c520       atexit                     000000014006d520 f   LIBCMT:utility.obj
 0001:0006c798       mainCRTStartup             000000014006d798 f   LIBCMT:exe_main.obj
 0001:0006c7ac       __GSHandlerCheck           000000014006d7ac f   LIBCMT:gshandler.obj
 0001:0006c7cc       __GSHandlerCheckCommon     000000014006d7cc f   LIBCMT:gshandler.obj
 0001:0006c840       __security_check_cookie    000000014006d840 f   LIBCMT:amdsecgs.obj
 0001:0006c860       __isa_available_init       000000014006d860 f   LIBCMT:cpu_disp.obj
 0001:0006caf8       __GSHandlerCheck_EH4       000000014006daf8 f   LIBCMT:gshandlereh4.obj
 0001:0006cb78       ??_M@YAXPEAX_K1P6AX0@Z@Z   000000014006db78 f   LIBCMT:ehvecdtr.obj
 0001:0006cbe4       ?__ArrayUnwind@@YAXPEAX_K1P6AX0@Z@Z 000000014006dbe4 f   LIBCMT:ehvecdtr.obj
 0001:0006cc40       ??_L@YAXPEAX_K1P6AX0@Z2@Z  000000014006dc40 f   LIBCMT:ehvecctr.obj
 0001:0006ccb0       ??3@YAXPEAXW4align_val_t@std@@@Z 000000014006dcb0 f   LIBCMT:delete_scalar_align.obj
 0001:0006ccb8       __scrt_is_ucrt_dll_in_use  000000014006dcb8 f   LIBCMT:ucrt_detection.obj
 0001:0006ccc4       __crt_debugger_hook        000000014006dcc4 f   LIBCMT:utility_desktop.obj
 0001:0006ccd0       __scrt_fastfail            000000014006dcd0 f   LIBCMT:utility_desktop.obj
 0001:0006ce1c       __scrt_initialize_mta      000000014006de1c f   LIBCMT:utility_desktop.obj
 0001:0006ce24       __scrt_is_managed_app      000000014006de24 f   LIBCMT:utility_desktop.obj
 0001:0006ce78       __scrt_set_unhandled_exception_filter 000000014006de78 f   LIBCMT:utility_desktop.obj
 0001:0006ce88       __scrt_unhandled_exception_filter 000000014006de88 f   LIBCMT:utility_desktop.obj
 0001:0006ceec       __security_init_cookie     000000014006deec f   LIBCMT:gs_support.obj
 0001:0006cf9c       _get_startup_file_mode     000000014006df9c f   LIBCMT:file_mode.obj
 0001:0006cfa4       ?__scrt_initialize_type_info@@YAXXZ 000000014006dfa4 f   LIBCMT:tncleanup.obj
 0001:0006cfb4       __scrt_initialize_default_local_stdio_options 000000014006dfb4 f   LIBCMT:default_local_stdio_options.obj
 0001:0006cfd0       __scrt_is_user_matherr_present 000000014006dfd0 f   LIBCMT:matherr_detection.obj
 0001:0006cfdc       __scrt_get_dyn_tls_init_callback 000000014006dfdc f   LIBCMT:dyn_tls_init.obj
 0001:0006cfe4       __scrt_get_dyn_tls_dtor_callback 000000014006dfe4 f   LIBCMT:dyn_tls_dtor.obj
 0001:0006cfec       _RTC_Initialize            000000014006dfec f   LIBCMT:initsect.obj
 0001:0006d028       _RTC_Terminate             000000014006e028 f   LIBCMT:initsect.obj
 0001:0006d064       __raise_securityfailure    000000014006e064 f   LIBCMT:gs_report.obj
 0001:0006d098       __report_gsfailure         000000014006e098 f   LIBCMT:gs_report.obj
 0001:0006d16c       __report_rangecheckfailure 000000014006e16c f   LIBCMT:gs_report.obj
 0001:0006d180       __report_securityfailure   000000014006e180 f   LIBCMT:gs_report.obj
 0001:0006d310       _get_purecall_handler      000000014006e310 f   libvcruntime:purevirt.obj
 0001:0006d31c       _purecall                  000000014006e31c f   libvcruntime:purevirt.obj
 0001:0006d338       __std_exception_copy       000000014006e338 f   libvcruntime:std_exception.obj
 0001:0006d3b8       __std_exception_destroy    000000014006e3b8 f   libvcruntime:std_exception.obj
 0001:0006d3e0       _CxxThrowException         000000014006e3e0 f   libvcruntime:throw.obj
 0001:0006d488       ??$_CallSETranslator@V__FrameHandler3@@@@YAHPEAUEHExceptionRecord@@PEA_KPEAU_CONTEXT@@PEAU_xDISPATCHER_CONTEXT@@PEBU_s_FuncInfo@@K1H@Z 000000014006e488 f i libvcruntime:risctrnsctrl.obj
 0001:0006d4dc       ??$_CallSETranslator@V__FrameHandler4@@@@YAHPEAUEHExceptionRecord@@PEA_KPEAU_CONTEXT@@PEAU_xDISPATCHER_CONTEXT@@PEAUFuncInfo4@FH4@@K1H@Z 000000014006e4dc f i libvcruntime:risctrnsctrl.obj
 0001:0006d530       ?CatchTryBlock@__FrameHandler3@@SAPEBU_s_TryBlockMapEntry@@PEBU_s_FuncInfo@@H@Z 000000014006e530 f   libvcruntime:risctrnsctrl.obj
 0001:0006d594       ?DecompFuncInfo@FH4@@YA_JPEAEAEAUFuncInfo4@1@_KH_N@Z 000000014006e594 f i libvcruntime:risctrnsctrl.obj
 0001:0006d6c0       ?ExecutionInCatch@__FrameHandler3@@SA_NPEAU_xDISPATCHER_CONTEXT@@PEBU_s_FuncInfo@@@Z 000000014006e6c0 f   libvcruntime:risctrnsctrl.obj
 0001:0006d6ec       ?ExecutionInCatch@__FrameHandler4@@SA_NPEAU_xDISPATCHER_CONTEXT@@PEAUFuncInfo4@FH4@@@Z 000000014006e6ec f   libvcruntime:risctrnsctrl.obj
 0001:0006d6f4       ?FrameUnwindToEmptyState@__FrameHandler3@@SAXPEA_KPEAU_xDISPATCHER_CONTEXT@@PEBU_s_FuncInfo@@@Z 000000014006e6f4 f   libvcruntime:risctrnsctrl.obj
 0001:0006d758       ?FrameUnwindToEmptyState@__FrameHandler4@@SAXPEA_KPEAU_xDISPATCHER_CONTEXT@@PEAUFuncInfo4@FH4@@@Z 000000014006e758 f   libvcruntime:risctrnsctrl.obj
 0001:0006d78c       ?GetEstablisherFrame@__FrameHandler3@@SAPEA_KPEA_KPEAU_xDISPATCHER_CONTEXT@@PEBU_s_FuncInfo@@0@Z 000000014006e78c f   libvcruntime:risctrnsctrl.obj
 0001:0006d874       ?GetEstablisherFrame@__FrameHandler4@@SAPEA_KPEA_KPEAU_xDISPATCHER_CONTEXT@@PEAUFuncInfo4@FH4@@0@Z 000000014006e874 f   libvcruntime:risctrnsctrl.obj
 0001:0006d898       ?GetRangeOfTrysToCheck@__FrameHandler3@@SA?AU?$pair@Viterator@TryBlockMap@__FrameHandler3@@V123@@std@@AEAVTryBlockMap@1@HPEAU_xDISPATCHER_CONTEXT@@PEBU_s_FuncInfo@@H@Z 000000014006e898 f   libvcruntime:risctrnsctrl.obj
 0001:0006d9d0       ?GetRangeOfTrysToCheck@__FrameHandler4@@SA?AU?$pair@Viterator@TryBlockMap4@FH4@@V123@@std@@AEAVTryBlockMap4@FH4@@HPEAU_xDISPATCHER_CONTEXT@@PEAUFuncInfo4@5@H@Z 000000014006e9d0 f   libvcruntime:risctrnsctrl.obj
 0001:0006db50       ?UnwindNestedFrames@__FrameHandler3@@SAXPEA_KPEAUEHExceptionRecord@@PEAU_CONTEXT@@0PEAXPEBU_s_FuncInfo@@HHPEBU_s_HandlerType@@PEAU_xDISPATCHER_CONTEXT@@E@Z 000000014006eb50 f   libvcruntime:risctrnsctrl.obj
 0001:0006dc54       ?UnwindNestedFrames@__FrameHandler4@@SAXPEA_KPEAUEHExceptionRecord@@PEAU_CONTEXT@@0PEAXPEAUFuncInfo4@FH4@@HHPEAUHandlerType4@5@PEAU_xDISPATCHER_CONTEXT@@E@Z 000000014006ec54 f   libvcruntime:risctrnsctrl.obj
 0001:0006dd74       ?setBuffer@TryBlockMap4@FH4@@QEAAXViterator@12@@Z 000000014006ed74 f i libvcruntime:risctrnsctrl.obj
 0001:0006df60       _CreateFrameInfo           000000014006ef60 f   libvcruntime:risctrnsctrl.obj
 0001:0006df9c       _FindAndUnlinkFrame        000000014006ef9c f   libvcruntime:risctrnsctrl.obj
 0001:0006dff0       _GetImageBase              000000014006eff0 f   libvcruntime:risctrnsctrl.obj
 0001:0006e004       _GetThrowImageBase         000000014006f004 f   libvcruntime:risctrnsctrl.obj
 0001:0006e018       _SetImageBase              000000014006f018 f   libvcruntime:risctrnsctrl.obj
 0001:0006e030       _SetThrowImageBase         000000014006f030 f   libvcruntime:risctrnsctrl.obj
 0001:0006e048       __CxxFrameHandler3         000000014006f048 f   libvcruntime:risctrnsctrl.obj
 0001:0006e0d0       __CxxFrameHandler4         000000014006f0d0 f   libvcruntime:risctrnsctrl.obj
 0001:0006e1a0       strstr                     000000014006f1a0 f   libvcruntime:strstr.obj
 0001:0006e394       __DestructExceptionObject  000000014006f394 f   libvcruntime:ehhelpers.obj
 0001:0006e408       ?_CallMemberFunction0@@YAXQEAX0@Z 000000014006f408 f i libvcruntime:ehhelpers.obj
 0001:0006e40c       _IsExceptionObjectToBeDestroyed 000000014006f40c f   libvcruntime:ehhelpers.obj
 0001:0006e43c       __AdjustPointer            000000014006f43c f   libvcruntime:ehhelpers.obj
 0001:0006e460       __FrameUnwindFilter        000000014006f460 f   libvcruntime:ehhelpers.obj
 0001:0006e4c8       __current_exception        000000014006f4c8 f   libvcruntime:ehhelpers.obj
 0001:0006e4dc       __current_exception_context 000000014006f4dc f   libvcruntime:ehhelpers.obj
 0001:0006e4f0       __std_terminate            000000014006f4f0 f   libvcruntime:ehhelpers.obj
 0001:0006e4fc       __uncaught_exception       000000014006f4fc f   libvcruntime:uncaught_exception.obj
 0001:0006e51c       __C_specific_handler       000000014006f51c f   libvcruntime:riscchandler.obj
 0001:0006e734       ??0__non_rtti_object@std@@QEAA@AEBV01@@Z 000000014006f734 f i libvcruntime:rtti.obj
 0001:0006e770       ??0bad_typeid@std@@QEAA@AEBV01@@Z 000000014006f770 f i libvcruntime:rtti.obj
 0001:0006ec98       ?__construct_from_string_literal@__non_rtti_object@std@@SA?AV12@QEBD@Z 000000014006fc98 f i libvcruntime:rtti.obj
 0001:0006ecb4       ?__construct_from_string_literal@bad_cast@std@@SA?AV12@QEBD@Z 000000014006fcb4 f i libvcruntime:rtti.obj
 0001:0006ecd0       __RTDynamicCast            000000014006fcd0 f   libvcruntime:rtti.obj
 0001:0006ee38       __vcrt_initialize          000000014006fe38 f   libvcruntime:initialization.obj
 0001:0006ee60       __vcrt_uninitialize        000000014006fe60 f   libvcruntime:initialization.obj
 0001:0006ee7c       __std_type_info_compare    000000014006fe7c f   libvcruntime:std_type_info.obj
 0001:0006ee94       __vcrt_freefls             000000014006fe94 f   libvcruntime:per_thread_data.obj
 0001:0006eeb4       __vcrt_getptd              000000014006feb4 f   libvcruntime:per_thread_data.obj
 0001:0006eed0       __vcrt_getptd_noexit       000000014006fed0 f   libvcruntime:per_thread_data.obj
 0001:0006ef9c       __vcrt_getptd_noinit       000000014006ff9c f   libvcruntime:per_thread_data.obj
 0001:0006efec       __vcrt_initialize_ptd      000000014006ffec f   libvcruntime:per_thread_data.obj
 0001:0006f034       __vcrt_uninitialize_ptd    0000000140070034 f   libvcruntime:per_thread_data.obj
 0001:0006f05c       ?GetCurrentState@__FrameHandler3@@SAHPEA_KPEAU_xDISPATCHER_CONTEXT@@PEBU_s_FuncInfo@@@Z 000000014007005c f   libvcruntime:ehstate.obj
 0001:0006f084       ?GetUnwindTryBlock@__FrameHandler3@@SAHPEA_KPEAU_xDISPATCHER_CONTEXT@@PEBU_s_FuncInfo@@@Z 0000000140070084 f   libvcruntime:ehstate.obj
 0001:0006f0b0       ?SetState@__FrameHandler3@@SAXPEA_KPEBU_s_FuncInfo@@H@Z 00000001400700b0 f   libvcruntime:ehstate.obj
 0001:0006f0bc       ?SetUnwindTryBlock@__FrameHandler3@@SAXPEA_KPEAU_xDISPATCHER_CONTEXT@@PEBU_s_FuncInfo@@H@Z 00000001400700bc f   libvcruntime:ehstate.obj
 0001:0006f0f8       ?StateFromControlPc@__FrameHandler3@@SAHPEBU_s_FuncInfo@@PEAU_xDISPATCHER_CONTEXT@@@Z 00000001400700f8 f   libvcruntime:ehstate.obj
 0001:0006f100       ?StateFromControlPc@__FrameHandler4@@SAHPEAUFuncInfo4@FH4@@PEAU_xDISPATCHER_CONTEXT@@@Z 0000000140070100 f   libvcruntime:ehstate.obj
 0001:0006f108       ?StateFromIp@__FrameHandler3@@SAHPEBU_s_FuncInfo@@PEAU_xDISPATCHER_CONTEXT@@_K@Z 0000000140070108 f   libvcruntime:ehstate.obj
 0001:0006f170       ?StateFromIp@__FrameHandler4@@SAHPEAUFuncInfo4@FH4@@PEAU_xDISPATCHER_CONTEXT@@_K@Z 0000000140070170 f   libvcruntime:ehstate.obj
 0001:00070914       ??$TypeMatchHelper@V__FrameHandler3@@@@YAHPEBU_s_HandlerType@@PEBU_s_CatchableType@@PEBU_s_ThrowInfo@@@Z 0000000140071914 f i libvcruntime:frame.obj
 0001:00070a34       ??$TypeMatchHelper@V__FrameHandler4@@@@YAHPEAUHandlerType4@FH4@@PEBU_s_CatchableType@@PEBU_s_ThrowInfo@@@Z 0000000140071a34 f i libvcruntime:frame.obj
 0001:00070b74       ??$__InternalCxxFrameHandler@V__FrameHandler3@@@@YA?AW4_EXCEPTION_DISPOSITION@@PEAUEHExceptionRecord@@PEA_KPEAU_CONTEXT@@PEAU_xDISPATCHER_CONTEXT@@PEBU_s_FuncInfo@@H1E@Z 0000000140071b74 f i libvcruntime:frame.obj
 0001:00070da4       ??$__InternalCxxFrameHandler@V__FrameHandler4@@@@YA?AW4_EXCEPTION_DISPOSITION@@PEAUEHExceptionRecord@@PEA_KPEAU_CONTEXT@@PEAU_xDISPATCHER_CONTEXT@@PEAUFuncInfo4@FH4@@H1E@Z 0000000140071da4 f i libvcruntime:frame.obj
 0001:0007104c       ??$__InternalCxxFrameHandlerWrapper@V__FrameHandler3@@@@YA?AW4_EXCEPTION_DISPOSITION@@PEAUEHExceptionRecord@@PEA_KPEAU_CONTEXT@@PEAU_xDISPATCHER_CONTEXT@@PEBU_s_FuncInfo@@H1E@Z 000000014007204c f i libvcruntime:frame.obj
 0001:00071054       ??$__InternalCxxFrameHandlerWrapper@V__FrameHandler4@@@@YA?AW4_EXCEPTION_DISPOSITION@@PEAUEHExceptionRecord@@PEA_KPEAU_CONTEXT@@PEAU_xDISPATCHER_CONTEXT@@PEAUFuncInfo4@FH4@@H1E@Z 0000000140072054 f i libvcruntime:frame.obj
 0001:000710a0       ??0HandlerMap4@FH4@@QEAA@PEBUTryBlockMapEntry4@1@_KH@Z 00000001400720a0 f i libvcruntime:frame.obj
 0001:00071124       ??0TryBlockMap4@FH4@@QEAA@PEBUFuncInfo4@1@_K@Z 0000000140072124 f i libvcruntime:frame.obj
 0001:00071208       ??0bad_exception@std@@QEAA@AEBV01@@Z 0000000140072208 f i libvcruntime:frame.obj
 0001:00071244       ??0bad_exception@std@@QEAA@XZ 0000000140072244 f i libvcruntime:frame.obj
 0001:00071268       ?CxxCallCatchBlock@__FrameHandler3@@SAPEAXPEAU_EXCEPTION_RECORD@@@Z 0000000140072268 f   libvcruntime:frame.obj
 0001:00071454       ?CxxCallCatchBlock@__FrameHandler4@@SAPEAXPEAU_EXCEPTION_RECORD@@@Z 0000000140072454 f   libvcruntime:frame.obj
 0001:00071694       ?DecompHandler@HandlerMap4@FH4@@AEAAXXZ 0000000140072694 f i libvcruntime:frame.obj
 0001:000718e4       ?FrameUnwindToState@__FrameHandler3@@SAXPEA_KPEAU_xDISPATCHER_CONTEXT@@PEBU_s_FuncInfo@@H@Z 00000001400728e4 f   libvcruntime:frame.obj
 0001:00071a70       ?FrameUnwindToState@__FrameHandler4@@SAXPEA_KPEAU_xDISPATCHER_CONTEXT@@PEAUFuncInfo4@FH4@@H@Z 0000000140072a70 f   libvcruntime:frame.obj
 0001:00071d7c       ?GetHandlerSearchState@__FrameHandler3@@SAHPEA_KPEAU_xDISPATCHER_CONTEXT@@PEBU_s_FuncInfo@@@Z 0000000140072d7c f i libvcruntime:frame.obj
 0001:00071f84       ?ReadEntry@UWMap4@FH4@@AEAAXPEAPEAE@Z 0000000140072f84 f i libvcruntime:frame.obj
 0001:00072024       ?_CallMemberFunction1@@YAXQEAX00@Z 0000000140073024 f i libvcruntime:frame.obj
 0001:00072030       ?_CallMemberFunction2@@YAXQEAX00H@Z 0000000140073030 f i libvcruntime:frame.obj
 0001:00072040       ?getStartStop@UWMap4@FH4@@QEAAXHHAEAViterator@12@0@Z 0000000140073040 f i libvcruntime:frame.obj
 0001:00072110       ?getStateFromIterators@UWMap4@FH4@@SAHAEBViterator@12@H0H0@Z 0000000140073110 f i libvcruntime:frame.obj
 0001:000721f0       _NLG_Notify                00000001400731f0 f   libvcruntime:notify.obj
 0001:00072210       __NLG_Dispatch2            0000000140073210 f   libvcruntime:notify.obj
 0001:00072220       __NLG_Return2              0000000140073220 f   libvcruntime:notify.obj
 0001:00072224       __except_validate_context_record 0000000140073224 f   libvcruntime:jbcxrval.obj
 0001:0007225c       __vcrt_initialize_locks    000000014007325c f   libvcruntime:locks.obj
 0001:000722a4       __vcrt_uninitialize_locks  00000001400732a4 f   libvcruntime:locks.obj
 0001:0007242c       __vcrt_FlsAlloc            000000014007342c f   libvcruntime:winapi_downlevel.obj
 0001:00072474       __vcrt_FlsFree             0000000140073474 f   libvcruntime:winapi_downlevel.obj
 0001:000724bc       __vcrt_FlsGetValue         00000001400734bc f   libvcruntime:winapi_downlevel.obj
 0001:00072504       __vcrt_FlsSetValue         0000000140073504 f   libvcruntime:winapi_downlevel.obj
 0001:00072558       __vcrt_InitializeCriticalSectionEx 0000000140073558 f   libvcruntime:winapi_downlevel.obj
 0001:00072600       _CallSettingFrame          0000000140073600 f   libvcruntime:handlers.obj
 0001:00072640       _CallSettingFrame_LookupContinuationIndex 0000000140073640 f   libvcruntime:handlers.obj
 0001:00072670       _CallSettingFrame_NotifyContinuationAddr 0000000140073670 f   libvcruntime:handlers.obj
 0001:000726a0       _CallSettingFrameEncoded   00000001400736a0 f   libvcruntime:handlers.obj
 0001:000726e8       ?get_raw_ptd@__crt_cached_ptd_host@@QEAAPEAU__acrt_ptd@@XZ 00000001400736e8 f i libucrt:invalid_parameter.obj
 0001:00072750       ?get_raw_ptd_noexit@__crt_cached_ptd_host@@QEAAPEAU__acrt_ptd@@XZ 0000000140073750 f i libucrt:invalid_parameter.obj
 0001:000727bc       ?value@?$dual_state_global@P6AXPEB_W00I_K@Z@__crt_state_management@@QEAAAEAP6AXPEB_W00I_K@ZAEAV__crt_cached_ptd_host@@@Z 00000001400737bc f i libucrt:invalid_parameter.obj
 0001:00072808       __acrt_call_reportfault    0000000140073808 f   libucrt:invalid_parameter.obj
 0001:00072978       __acrt_initialize_invalid_parameter_handler 0000000140073978 f   libucrt:invalid_parameter.obj
 0001:00072980       _invalid_parameter         0000000140073980 f   libucrt:invalid_parameter.obj
 0001:00072a1c       _invalid_parameter_internal 0000000140073a1c f   libucrt:invalid_parameter.obj
 0001:00072ad4       _invalid_parameter_noinfo  0000000140073ad4 f   libucrt:invalid_parameter.obj
 0001:00072af4       _invoke_watson             0000000140073af4 f   libucrt:invalid_parameter.obj
 0001:00072b40       _dclass                    0000000140073b40 f i libucrt:nan.obj
 0001:00072b50       _dsign                     0000000140073b50 f i libucrt:nan.obj
 0001:00072b50       _ldsign                    0000000140073b50 f i libucrt:nanl.obj
 0001:00072b60       _ldclass                   0000000140073b60 f i libucrt:nanl.obj
 0001:00072b70       _fdclass                   0000000140073b70 f i libucrt:nanf.obj
 0001:00072b80       _fdsign                    0000000140073b80 f i libucrt:nanf.obj
 0001:00072b90       calloc                     0000000140073b90 f   libucrt:calloc.obj
 0001:00072ba0       free                       0000000140073ba0 f   libucrt:free.obj
 0001:00072bb0       malloc                     0000000140073bb0 f   libucrt:malloc.obj
 0001:00072bb8       __acrt_initialize_stdio    0000000140073bb8 f   libucrt:_file.obj
 0001:00072cd8       __acrt_iob_func            0000000140073cd8 f   libucrt:_file.obj
 0001:00072cec       __acrt_uninitialize_stdio  0000000140073cec f   libucrt:_file.obj
 0001:00072d48       _lock_file                 0000000140073d48 f   libucrt:_file.obj
 0001:00072d54       _unlock_file               0000000140073d54 f   libucrt:_file.obj
 0001:00072e1c       fopen                      0000000140073e1c f   libucrt:fopen.obj
 0001:00072e28       fopen_s                    0000000140073e28 f   libucrt:fopen.obj
 0001:00072fa4       fclose                     0000000140073fa4 f   libucrt:fclose.obj
 0001:000732c0       fseek                      00000001400742c0 f   libucrt:fseek.obj
 0001:00073878       _ftelli64_nolock_internal  0000000140074878 f   libucrt:ftell.obj
 0001:00073880       ftell                      0000000140074880 f   libucrt:ftell.obj
 0001:000739d8       _fwrite_internal           00000001400749d8 f   libucrt:fwrite.obj
 0001:00073a74       _fwrite_nolock_internal    0000000140074a74 f   libucrt:fwrite.obj
 0001:00073c88       fwrite                     0000000140074c88 f   libucrt:fwrite.obj
 0001:00073f1c       ??$ensure_buffer_is_big_enough@D@formatting_buffer@__crt_stdio_output@@QEAA_N_KAEAV__crt_cached_ptd_host@@@Z 0000000140074f1c f i libucrt:output.obj
 0001:00073fc4       ??$parse_integer@KV?$c_string_character_source@D@__crt_strtox@@$0A@@__crt_strtox@@YAKAEAV__crt_cached_ptd_host@@V?$c_string_character_source@D@0@H_N@Z 0000000140074fc4 f i libucrt:output.obj
 0001:00074278       ??$type_case_integer@$07@?$output_processor@DV?$stream_output_adapter@D@__crt_stdio_output@@V?$standard_base@DV?$stream_output_adapter@D@__crt_stdio_output@@@2@@__crt_stdio_output@@AEAA_N_N@Z 0000000140075278 f i libucrt:output.obj
 0001:00074278       ??$type_case_integer@$07@?$output_processor@DV?$string_output_adapter@D@__crt_stdio_output@@V?$format_validation_base@DV?$string_output_adapter@D@__crt_stdio_output@@@2@@__crt_stdio_output@@AEAA_N_N@Z 0000000140075278 f i libucrt:output.obj
 0001:00074278       ??$type_case_integer@$07@?$output_processor@DV?$string_output_adapter@D@__crt_stdio_output@@V?$standard_base@DV?$string_output_adapter@D@__crt_stdio_output@@@2@@__crt_stdio_output@@AEAA_N_N@Z 0000000140075278 f i libucrt:output.obj
 0001:0007447c       ??$type_case_integer@$09@?$output_processor@DV?$stream_output_adapter@D@__crt_stdio_output@@V?$standard_base@DV?$stream_output_adapter@D@__crt_stdio_output@@@2@@__crt_stdio_output@@AEAA_N_N@Z 000000014007547c f i libucrt:output.obj
 0001:0007447c       ??$type_case_integer@$09@?$output_processor@DV?$string_output_adapter@D@__crt_stdio_output@@V?$format_validation_base@DV?$string_output_adapter@D@__crt_stdio_output@@@2@@__crt_stdio_output@@AEAA_N_N@Z 000000014007547c f i libucrt:output.obj
 0001:0007447c       ??$type_case_integer@$09@?$output_processor@DV?$string_output_adapter@D@__crt_stdio_output@@V?$standard_base@DV?$string_output_adapter@D@__crt_stdio_output@@@2@@__crt_stdio_output@@AEAA_N_N@Z 000000014007547c f i libucrt:output.obj
 0001:00074680       ??$type_case_integer@$0BA@@?$output_processor@DV?$stream_output_adapter@D@__crt_stdio_output@@V?$standard_base@DV?$stream_output_adapter@D@__crt_stdio_output@@@2@@__crt_stdio_output@@AEAA_N_N@Z 0000000140075680 f i libucrt:output.obj
 0001:00074680       ??$type_case_integer@$0BA@@?$output_processor@DV?$string_output_adapter@D@__crt_stdio_output@@V?$format_validation_base@DV?$string_output_adapter@D@__crt_stdio_output@@@2@@__crt_stdio_output@@AEAA_N_N@Z 0000000140075680 f i libucrt:output.obj
 0001:00074680       ??$type_case_integer@$0BA@@?$output_processor@DV?$string_output_adapter@D@__crt_stdio_output@@V?$standard_base@DV?$string_output_adapter@D@__crt_stdio_output@@@2@@__crt_stdio_output@@AEAA_N_N@Z 0000000140075680 f i libucrt:output.obj
 0001:00074884       ??$type_case_integer_parse_into_buffer@I$07@?$output_processor@DV?$stream_output_adapter@D@__crt_stdio_output@@V?$standard_base@DV?$stream_output_adapter@D@__crt_stdio_output@@@2@@__crt_stdio_output@@AEAAXI_N@Z 0000000140075884 f i libucrt:output.obj
 0001:00074884       ??$type_case_integer_parse_into_buffer@I$07@?$output_processor@DV?$string_output_adapter@D@__crt_stdio_output@@V?$format_validation_base@DV?$string_output_adapter@D@__crt_stdio_output@@@2@@__crt_stdio_output@@AEAAXI_N@Z 0000000140075884 f i libucrt:output.obj
 0001:00074884       ??$type_case_integer_parse_into_buffer@I$07@?$output_processor@DV?$string_output_adapter@D@__crt_stdio_output@@V?$standard_base@DV?$string_output_adapter@D@__crt_stdio_output@@@2@@__crt_stdio_output@@AEAAXI_N@Z 0000000140075884 f i libucrt:output.obj
 0001:000748f4       ??$type_case_integer_parse_into_buffer@I$09@?$output_processor@DV?$stream_output_adapter@D@__crt_stdio_output@@V?$standard_base@DV?$stream_output_adapter@D@__crt_stdio_output@@@2@@__crt_stdio_output@@AEAAXI_N@Z 00000001400758f4 f i libucrt:output.obj
 0001:000748f4       ??$type_case_integer_parse_into_buffer@I$09@?$output_processor@DV?$string_output_adapter@D@__crt_stdio_output@@V?$format_validation_base@DV?$string_output_adapter@D@__crt_stdio_output@@@2@@__crt_stdio_output@@AEAAXI_N@Z 00000001400758f4 f i libucrt:output.obj
 0001:000748f4       ??$type_case_integer_parse_into_buffer@I$09@?$output_processor@DV?$string_output_adapter@D@__crt_stdio_output@@V?$standard_base@DV?$string_output_adapter@D@__crt_stdio_output@@@2@@__crt_stdio_output@@AEAAXI_N@Z 00000001400758f4 f i libucrt:output.obj
 0001:000749a0       ??$type_case_integer_parse_into_buffer@I$0BA@@?$output_processor@DV?$stream_output_adapter@D@__crt_stdio_output@@V?$standard_base@DV?$stream_output_adapter@D@__crt_stdio_output@@@2@@__crt_stdio_output@@AEAAXI_N@Z 00000001400759a0 f i libucrt:output.obj
 0001:000749a0       ??$type_case_integer_parse_into_buffer@I$0BA@@?$output_processor@DV?$string_output_adapter@D@__crt_stdio_output@@V?$format_validation_base@DV?$string_output_adapter@D@__crt_stdio_output@@@2@@__crt_stdio_output@@AEAAXI_N@Z 00000001400759a0 f i libucrt:output.obj
 0001:000749a0       ??$type_case_integer_parse_into_buffer@I$0BA@@?$output_processor@DV?$string_output_adapter@D@__crt_stdio_output@@V?$standard_base@DV?$string_output_adapter@D@__crt_stdio_output@@@2@@__crt_stdio_output@@AEAAXI_N@Z 00000001400759a0 f i libucrt:output.obj
 0001:00074a24       ??$type_case_integer_parse_into_buffer@_K$07@?$output_processor@DV?$stream_output_adapter@D@__crt_stdio_output@@V?$standard_base@DV?$stream_output_adapter@D@__crt_stdio_output@@@2@@__crt_stdio_output@@AEAAX_K_N@Z 0000000140075a24 f i libucrt:output.obj
 0001:00074a24       ??$type_case_integer_parse_into_buffer@_K$07@?$output_processor@DV?$string_output_adapter@D@__crt_stdio_output@@V?$format_validation_base@DV?$string_output_adapter@D@__crt_stdio_output@@@2@@__crt_stdio_output@@AEAAX_K_N@Z 0000000140075a24 f i libucrt:output.obj
 0001:00074a24       ??$type_case_integer_parse_into_buffer@_K$07@?$output_processor@DV?$string_output_adapter@D@__crt_stdio_output@@V?$standard_base@DV?$string_output_adapter@D@__crt_stdio_output@@@2@@__crt_stdio_output@@AEAAX_K_N@Z 0000000140075a24 f i libucrt:output.obj
 0001:00074a94       ??$type_case_integer_parse_into_buffer@_K$09@?$output_processor@DV?$stream_output_adapter@D@__crt_stdio_output@@V?$standard_base@DV?$stream_output_adapter@D@__crt_stdio_output@@@2@@__crt_stdio_output@@AEAAX_K_N@Z 0000000140075a94 f i libucrt:output.obj
 0001:00074a94       ??$type_case_integer_parse_into_buffer@_K$09@?$output_processor@DV?$string_output_adapter@D@__crt_stdio_output@@V?$format_validation_base@DV?$string_output_adapter@D@__crt_stdio_output@@@2@@__crt_stdio_output@@AEAAX_K_N@Z 0000000140075a94 f i libucrt:output.obj
 0001:00074a94       ??$type_case_integer_parse_into_buffer@_K$09@?$output_processor@DV?$string_output_adapter@D@__crt_stdio_output@@V?$standard_base@DV?$string_output_adapter@D@__crt_stdio_output@@@2@@__crt_stdio_output@@AEAAX_K_N@Z 0000000140075a94 f i libucrt:output.obj
 0001:00074b44       ??$type_case_integer_parse_into_buffer@_K$0BA@@?$output_processor@DV?$stream_output_adapter@D@__crt_stdio_output@@V?$standard_base@DV?$stream_output_adapter@D@__crt_stdio_output@@@2@@__crt_stdio_output@@AEAAX_K_N@Z 0000000140075b44 f i libucrt:output.obj
 0001:00074b44       ??$type_case_integer_parse_into_buffer@_K$0BA@@?$output_processor@DV?$string_output_adapter@D@__crt_stdio_output@@V?$format_validation_base@DV?$string_output_adapter@D@__crt_stdio_output@@@2@@__crt_stdio_output@@AEAAX_K_N@Z 0000000140075b44 f i libucrt:output.obj
 0001:00074b44       ??$type_case_integer_parse_into_buffer@_K$0BA@@?$output_processor@DV?$string_output_adapter@D@__crt_stdio_output@@V?$standard_base@DV?$string_output_adapter@D@__crt_stdio_output@@@2@@__crt_stdio_output@@AEAAX_K_N@Z 0000000140075b44 f i libucrt:output.obj
 0001:00074ce4       ?crop_zeroes@__crt_stdio_output@@YAXPEADQEAU__crt_locale_pointers@@@Z 0000000140075ce4 f i libucrt:output.obj
 0001:00074d50       ?parse_int_from_format_string@?$output_processor@DV?$stream_output_adapter@D@__crt_stdio_output@@V?$standard_base@DV?$stream_output_adapter@D@__crt_stdio_output@@@2@@__crt_stdio_output@@AEAA_NQEAH@Z 0000000140075d50 f i libucrt:output.obj
 0001:00074d50       ?parse_int_from_format_string@?$output_processor@DV?$string_output_adapter@D@__crt_stdio_output@@V?$format_validation_base@DV?$string_output_adapter@D@__crt_stdio_output@@@2@@__crt_stdio_output@@AEAA_NQEAH@Z 0000000140075d50 f i libucrt:output.obj
 0001:00074d50       ?parse_int_from_format_string@?$output_processor@DV?$string_output_adapter@D@__crt_stdio_output@@V?$standard_base@DV?$string_output_adapter@D@__crt_stdio_output@@@2@@__crt_stdio_output@@AEAA_NQEAH@Z 0000000140075d50 f i libucrt:output.obj
 0001:00074de0       ?process@?$output_processor@DV?$stream_output_adapter@D@__crt_stdio_output@@V?$standard_base@DV?$stream_output_adapter@D@__crt_stdio_output@@@2@@__crt_stdio_output@@QEAAHXZ 0000000140075de0 f i libucrt:output.obj
 0001:00075164       ?process@?$output_processor@DV?$string_output_adapter@D@__crt_stdio_output@@V?$format_validation_base@DV?$string_output_adapter@D@__crt_stdio_output@@@2@@__crt_stdio_output@@QEAAHXZ 0000000140076164 f i libucrt:output.obj
 0001:000754cc       ?process@?$output_processor@DV?$string_output_adapter@D@__crt_stdio_output@@V?$standard_base@DV?$string_output_adapter@D@__crt_stdio_output@@@2@@__crt_stdio_output@@QEAAHXZ 00000001400764cc f i libucrt:output.obj
 0001:0007583c       ?state_case_size@?$output_processor@DV?$stream_output_adapter@D@__crt_stdio_output@@V?$standard_base@DV?$stream_output_adapter@D@__crt_stdio_output@@@2@@__crt_stdio_output@@AEAA_NXZ 000000014007683c f i libucrt:output.obj
 0001:000759c4       ?state_case_size@?$output_processor@DV?$string_output_adapter@D@__crt_stdio_output@@V?$format_validation_base@DV?$string_output_adapter@D@__crt_stdio_output@@@2@@__crt_stdio_output@@AEAA_NXZ 00000001400769c4 f i libucrt:output.obj
 0001:000759c4       ?state_case_size@?$output_processor@DV?$string_output_adapter@D@__crt_stdio_output@@V?$standard_base@DV?$string_output_adapter@D@__crt_stdio_output@@@2@@__crt_stdio_output@@AEAA_NXZ 00000001400769c4 f i libucrt:output.obj
 0001:00075b4c       ?state_case_type@?$output_processor@DV?$stream_output_adapter@D@__crt_stdio_output@@V?$standard_base@DV?$stream_output_adapter@D@__crt_stdio_output@@@2@@__crt_stdio_output@@AEAA_NXZ 0000000140076b4c f i libucrt:output.obj
 0001:00076084       ?state_case_type@?$output_processor@DV?$string_output_adapter@D@__crt_stdio_output@@V?$format_validation_base@DV?$string_output_adapter@D@__crt_stdio_output@@@2@@__crt_stdio_output@@AEAA_NXZ 0000000140077084 f i libucrt:output.obj
 0001:00076084       ?state_case_type@?$output_processor@DV?$string_output_adapter@D@__crt_stdio_output@@V?$standard_base@DV?$string_output_adapter@D@__crt_stdio_output@@@2@@__crt_stdio_output@@AEAA_NXZ 0000000140077084 f i libucrt:output.obj
 0001:000764f4       ?type_case_Z@?$output_processor@DV?$stream_output_adapter@D@__crt_stdio_output@@V?$standard_base@DV?$stream_output_adapter@D@__crt_stdio_output@@@2@@__crt_stdio_output@@AEAA_NXZ 00000001400774f4 f i libucrt:output.obj
 0001:000764f4       ?type_case_Z@?$output_processor@DV?$string_output_adapter@D@__crt_stdio_output@@V?$format_validation_base@DV?$string_output_adapter@D@__crt_stdio_output@@@2@@__crt_stdio_output@@AEAA_NXZ 00000001400774f4 f i libucrt:output.obj
 0001:000764f4       ?type_case_Z@?$output_processor@DV?$string_output_adapter@D@__crt_stdio_output@@V?$standard_base@DV?$string_output_adapter@D@__crt_stdio_output@@@2@@__crt_stdio_output@@AEAA_NXZ 00000001400774f4 f i libucrt:output.obj
 0001:00076570       ?type_case_a@?$output_processor@DV?$stream_output_adapter@D@__crt_stdio_output@@V?$standard_base@DV?$stream_output_adapter@D@__crt_stdio_output@@@2@@__crt_stdio_output@@AEAA_NXZ 0000000140077570 f i libucrt:output.obj
 0001:00076570       ?type_case_a@?$output_processor@DV?$string_output_adapter@D@__crt_stdio_output@@V?$format_validation_base@DV?$string_output_adapter@D@__crt_stdio_output@@@2@@__crt_stdio_output@@AEAA_NXZ 0000000140077570 f i libucrt:output.obj
 0001:00076570       ?type_case_a@?$output_processor@DV?$string_output_adapter@D@__crt_stdio_output@@V?$standard_base@DV?$string_output_adapter@D@__crt_stdio_output@@@2@@__crt_stdio_output@@AEAA_NXZ 0000000140077570 f i libucrt:output.obj
 0001:000767cc       ?type_case_c_tchar@?$output_processor@DV?$stream_output_adapter@D@__crt_stdio_output@@V?$standard_base@DV?$stream_output_adapter@D@__crt_stdio_output@@@2@@__crt_stdio_output@@AEAA_ND@Z 00000001400777cc f i libucrt:output.obj
 0001:000767cc       ?type_case_c_tchar@?$output_processor@DV?$string_output_adapter@D@__crt_stdio_output@@V?$format_validation_base@DV?$string_output_adapter@D@__crt_stdio_output@@@2@@__crt_stdio_output@@AEAA_ND@Z 00000001400777cc f i libucrt:output.obj
 0001:000767cc       ?type_case_c_tchar@?$output_processor@DV?$string_output_adapter@D@__crt_stdio_output@@V?$standard_base@DV?$string_output_adapter@D@__crt_stdio_output@@@2@@__crt_stdio_output@@AEAA_ND@Z 00000001400777cc f i libucrt:output.obj
 0001:000768a0       ?type_case_n@?$output_processor@DV?$stream_output_adapter@D@__crt_stdio_output@@V?$standard_base@DV?$stream_output_adapter@D@__crt_stdio_output@@@2@@__crt_stdio_output@@AEAA_NXZ 00000001400778a0 f i libucrt:output.obj
 0001:000768a0       ?type_case_n@?$output_processor@DV?$string_output_adapter@D@__crt_stdio_output@@V?$format_validation_base@DV?$string_output_adapter@D@__crt_stdio_output@@@2@@__crt_stdio_output@@AEAA_NXZ 00000001400778a0 f i libucrt:output.obj
 0001:000768a0       ?type_case_n@?$output_processor@DV?$string_output_adapter@D@__crt_stdio_output@@V?$standard_base@DV?$string_output_adapter@D@__crt_stdio_output@@@2@@__crt_stdio_output@@AEAA_NXZ 00000001400778a0 f i libucrt:output.obj
 0001:00076958       ?type_case_s@?$output_processor@DV?$stream_output_adapter@D@__crt_stdio_output@@V?$standard_base@DV?$stream_output_adapter@D@__crt_stdio_output@@@2@@__crt_stdio_output@@AEAA_NXZ 0000000140077958 f i libucrt:output.obj
 0001:00076958       ?type_case_s@?$output_processor@DV?$string_output_adapter@D@__crt_stdio_output@@V?$format_validation_base@DV?$string_output_adapter@D@__crt_stdio_output@@@2@@__crt_stdio_output@@AEAA_NXZ 0000000140077958 f i libucrt:output.obj
 0001:00076958       ?type_case_s@?$output_processor@DV?$string_output_adapter@D@__crt_stdio_output@@V?$standard_base@DV?$string_output_adapter@D@__crt_stdio_output@@@2@@__crt_stdio_output@@AEAA_NXZ 0000000140077958 f i libucrt:output.obj
 0001:00076a00       ?update_locale_slow@__crt_cached_ptd_host@@AEAAXXZ 0000000140077a00 f i libucrt:output.obj
 0001:00076a78       ?validate_stream_is_ansi_if_required@?$__acrt_stdio_char_traits@D@@SA_NQEAU_iobuf@@@Z 0000000140077a78 f i libucrt:output.obj
 0001:00076b14       ?write_string@?$string_output_adapter@D@__crt_stdio_output@@QEBAXQEBDHQEAHAEAV__crt_cached_ptd_host@@@Z 0000000140077b14 f i libucrt:output.obj
 0001:00076bb8       ?write_string_impl@?$output_adapter_common@DV?$stream_output_adapter@D@__crt_stdio_output@@@__crt_stdio_output@@IEBAXQEBDHQEAHAEAV__crt_cached_ptd_host@@@Z 0000000140077bb8 f i libucrt:output.obj
 0001:00076c88       __stdio_common_vfprintf    0000000140077c88 f   libucrt:output.obj
 0001:00076dac       __stdio_common_vsprintf    0000000140077dac f   libucrt:output.obj
 0001:00077000       __stdio_common_vsprintf_s  0000000140078000 f   libucrt:output.obj
 0001:00077114       terminate                  0000000140078114 f   libucrt:terminate.obj
 0001:00077264       _beginthreadex             0000000140078264 f   libucrt:thread.obj
 0001:00077344       _endthreadex               0000000140078344 f   libucrt:thread.obj
 0001:00077350       localeconv                 0000000140078350 f   libucrt:localeconv.obj
 0001:00077390       ??$is_overflow_condition@_K@__crt_strtox@@YA_NI_K@Z 0000000140078390 f i libucrt:strtox.obj
 0001:000773c8       ??$parse_integer@KV?$c_string_character_source@D@__crt_strtox@@$00@__crt_strtox@@YAKAEAV__crt_cached_ptd_host@@V?$c_string_character_source@D@0@H_N@Z 00000001400783c8 f i libucrt:strtox.obj
 0001:000776a4       ??$parse_integer@KV?$c_string_character_source@_W@__crt_strtox@@$00@__crt_strtox@@YAKAEAV__crt_cached_ptd_host@@V?$c_string_character_source@_W@0@H_N@Z 00000001400786a4 f i libucrt:strtox.obj
 0001:00077e40       ??$parse_integer@_KV?$c_string_character_source@D@__crt_strtox@@$00@__crt_strtox@@YA_KAEAV__crt_cached_ptd_host@@V?$c_string_character_source@D@0@H_N@Z 0000000140078e40 f i libucrt:strtox.obj
 0001:0007811c       _ischartype_l              000000014007911c f i libucrt:strtox.obj
 0001:00078194       strtoll                    0000000140079194 f   libucrt:strtox.obj
 0001:00078248       strtoull                   0000000140079248 f   libucrt:strtox.obj
 0001:000782fc       wcstol                     00000001400792fc f   libucrt:strtox.obj
 0001:000783b0       ??$parse_floating_point@V?$input_adapter_character_source@V?$string_input_adapter@D@__crt_stdio_input@@@__crt_strtox@@M@__crt_strtox@@YA?AW4SLD_STATUS@@QEAU__crt_locale_pointers@@V?$input_adapter_character_source@V?$string_input_adapter@D@__crt_stdio_input@@@0@QEAM@Z 00000001400793b0 f i libucrt:input.obj
 0001:00078458       ??$parse_floating_point@V?$input_adapter_character_source@V?$string_input_adapter@D@__crt_stdio_input@@@__crt_strtox@@N@__crt_strtox@@YA?AW4SLD_STATUS@@QEAU__crt_locale_pointers@@V?$input_adapter_character_source@V?$string_input_adapter@D@__crt_stdio_input@@@0@QEAN@Z 0000000140079458 f i libucrt:input.obj
 0001:00078500       ??$parse_floating_point_from_source@V?$input_adapter_character_source@V?$string_input_adapter@D@__crt_stdio_input@@@__crt_strtox@@@__crt_strtox@@YA?AW4floating_point_parse_result@0@QEAU__crt_locale_pointers@@AEAV?$input_adapter_character_source@V?$string_input_adapter@D@__crt_stdio_input@@@0@AEAUfloating_point_string@0@@Z 0000000140079500 f i libucrt:input.obj
 0001:00078cc4       ??$parse_floating_point_possible_infinity@DV?$input_adapter_character_source@V?$string_input_adapter@D@__crt_stdio_input@@@__crt_strtox@@_K@__crt_strtox@@YA?AW4floating_point_parse_result@0@AEADAEAV?$input_adapter_character_source@V?$string_input_adapter@D@__crt_stdio_input@@@0@_K@Z 0000000140079cc4 f i libucrt:input.obj
 0001:00078e74       ??$parse_floating_point_possible_nan@DV?$input_adapter_character_source@V?$string_input_adapter@D@__crt_stdio_input@@@__crt_strtox@@_K@__crt_strtox@@YA?AW4floating_point_parse_result@0@AEADAEAV?$input_adapter_character_source@V?$string_input_adapter@D@__crt_stdio_input@@@0@_K@Z 0000000140079e74 f i libucrt:input.obj
 0001:000790d8       ??$parse_floating_point_possible_nan_is_ind@DV?$input_adapter_character_source@V?$string_input_adapter@D@__crt_stdio_input@@@__crt_strtox@@@__crt_strtox@@YA_NAEADAEAV?$input_adapter_character_source@V?$string_input_adapter@D@__crt_stdio_input@@@0@@Z 000000014007a0d8 f i libucrt:input.obj
 0001:00079154       ??$parse_floating_point_possible_nan_is_snan@DV?$input_adapter_character_source@V?$string_input_adapter@D@__crt_stdio_input@@@__crt_strtox@@@__crt_strtox@@YA_NAEADAEAV?$input_adapter_character_source@V?$string_input_adapter@D@__crt_stdio_input@@@0@@Z 000000014007a154 f i libucrt:input.obj
 0001:000791d0       ??$parse_floating_point_write_result@M@__crt_strtox@@YA?AW4SLD_STATUS@@W4floating_point_parse_result@0@AEBUfloating_point_string@0@QEAM@Z 000000014007a1d0 f i libucrt:input.obj
 0001:00079338       ??$parse_floating_point_write_result@N@__crt_strtox@@YA?AW4SLD_STATUS@@W4floating_point_parse_result@0@AEBUfloating_point_string@0@QEAN@Z 000000014007a338 f i libucrt:input.obj
 0001:00079510       ??$parse_integer@_KV?$input_adapter_character_source@V?$string_input_adapter@D@__crt_stdio_input@@@__crt_strtox@@$00@__crt_strtox@@YA_KAEAV__crt_cached_ptd_host@@V?$input_adapter_character_source@V?$string_input_adapter@D@__crt_stdio_input@@@0@H_N@Z 000000014007a510 f i libucrt:input.obj
 0001:00079944       ??$parse_integer@_KV?$input_adapter_character_source@V?$string_input_adapter@D@__crt_stdio_input@@@__crt_strtox@@@__crt_strtox@@YA_KQEAU__crt_locale_pointers@@V?$input_adapter_character_source@V?$string_input_adapter@D@__crt_stdio_input@@@0@H_N@Z 000000014007a944 f i libucrt:input.obj
 0001:00079a44       ??$process_floating_point_specifier_t@M@?$input_processor@DV?$string_input_adapter@D@__crt_stdio_input@@@__crt_stdio_input@@AEAA_NXZ 000000014007aa44 f i libucrt:input.obj
 0001:00079ae8       ??$process_floating_point_specifier_t@N@?$input_processor@DV?$string_input_adapter@D@__crt_stdio_input@@@__crt_stdio_input@@AEAA_NXZ 000000014007aae8 f i libucrt:input.obj
 0001:00079b90       ??$process_string_specifier_tchar@D@?$input_processor@DV?$string_input_adapter@D@__crt_stdio_input@@@__crt_stdio_input@@AEAA_NW4conversion_mode@1@D@Z 000000014007ab90 f i libucrt:input.obj
 0001:00079d34       ??$process_string_specifier_tchar@_W@?$input_processor@DV?$string_input_adapter@D@__crt_stdio_input@@@__crt_stdio_input@@AEAA_NW4conversion_mode@1@_W@Z 000000014007ad34 f i libucrt:input.obj
 0001:00079f14       ??$skip_whitespace@Vstring_input_adapter@__crt_stdio_input@@D@__crt_stdio_input@@YAHAEAV?$string_input_adapter@D@0@QEAU__crt_locale_pointers@@@Z 000000014007af14 f i libucrt:input.obj
 0001:00079f68       ??0_LocaleUpdate@@QEAA@QEAU__crt_locale_pointers@@@Z 000000014007af68 f i libucrt:input.obj
 0001:0007a004       ??R<lambda_1db4d925c2db10274e92824f631ccf5d>@@QEBA@XZ 000000014007b004 f i libucrt:input.obj
 0001:0007a004       ??R<lambda_bdd123a27a08a14f93fbf44b617d0736>@@QEBA@XZ 000000014007b004 f i libucrt:input.obj
 0001:0007a004       ??R<lambda_ee7c83d9f0cd4f1299194e0a8d424b67>@@QEBA@XZ 000000014007b004 f i libucrt:input.obj
 0001:0007a068       ?advance@?$format_string_parser@D@__crt_stdio_input@@QEAA_NXZ 000000014007b068 f i libucrt:input.obj
 0001:0007a230       ?as_double@floating_point_value@__crt_strtox@@QEBAAEANXZ 000000014007b230 f i libucrt:input.obj
 0001:0007a26c       ?as_float@floating_point_value@__crt_strtox@@QEBAAEAMXZ 000000014007b26c f i libucrt:input.obj
 0001:0007a2a8       ?assemble_floating_point_value@__crt_strtox@@YA?AW4SLD_STATUS@@_KH_N1AEBVfloating_point_value@1@@Z 000000014007b2a8 f i libucrt:input.obj
 0001:0007a660       ?assemble_floating_point_value_from_big_integer@__crt_strtox@@YA?AW4SLD_STATUS@@AEBUbig_integer@1@I_N1AEBVfloating_point_value@1@@Z 000000014007b660 f i libucrt:input.obj
 0001:0007a7c0       ?convert_decimal_string_to_floating_type_common@__crt_strtox@@YA?AW4SLD_STATUS@@AEBUfloating_point_string@1@AEBVfloating_point_value@1@@Z 000000014007b7c0 f i libucrt:input.obj
 0001:0007c4c0       ?convert_hexadecimal_string_to_floating_type_common@__crt_strtox@@YA?AW4SLD_STATUS@@AEBUfloating_point_string@1@AEBVfloating_point_value@1@@Z 000000014007d4c0 f i libucrt:input.obj
 0001:0007c570       ?divide@__crt_strtox@@YA_KAEAUbig_integer@1@AEBU21@@Z 000000014007d570 f i libucrt:input.obj
 0001:0007c9fc       ?length@?$format_string_parser@D@__crt_stdio_input@@QEBA_KXZ 000000014007d9fc f i libucrt:input.obj
 0001:0007cab0       ?process@?$input_processor@DV?$string_input_adapter@D@__crt_stdio_input@@@__crt_stdio_input@@QEAAHXZ 000000014007dab0 f i libucrt:input.obj
 0001:0007cba4       ?process_conversion_specifier@?$input_processor@DV?$string_input_adapter@D@__crt_stdio_input@@@__crt_stdio_input@@AEAA_NXZ 000000014007dba4 f i libucrt:input.obj
 0001:0007ccc4       ?process_floating_point_specifier@?$input_processor@DV?$string_input_adapter@D@__crt_stdio_input@@@__crt_stdio_input@@AEAA_NXZ 000000014007dcc4 f i libucrt:input.obj
 0001:0007cd34       ?process_integer_specifier@?$input_processor@DV?$string_input_adapter@D@__crt_stdio_input@@@__crt_stdio_input@@AEAA_NI_N@Z 000000014007dd34 f i libucrt:input.obj
 0001:0007cdec       ?process_literal_character_tchar@?$input_processor@DV?$string_input_adapter@D@__crt_stdio_input@@@__crt_stdio_input@@AEAA_ND@Z 000000014007ddec f i libucrt:input.obj
 0001:0007ce74       ?process_state@?$input_processor@DV?$string_input_adapter@D@__crt_stdio_input@@@__crt_stdio_input@@AEAA_NXZ 000000014007de74 f i libucrt:input.obj
 0001:0007cf2c       ?process_string_specifier@?$input_processor@DV?$string_input_adapter@D@__crt_stdio_input@@@__crt_stdio_input@@AEAA_NW4conversion_mode@2@@Z 000000014007df2c f i libucrt:input.obj
 0001:0007cfb8       ?scan_conversion_specifier@?$format_string_parser@D@__crt_stdio_input@@AEAA_NXZ 000000014007dfb8 f i libucrt:input.obj
 0001:0007d184       ?scan_optional_field_width@?$format_string_parser@D@__crt_stdio_input@@AEAA_NXZ 000000014007e184 f i libucrt:input.obj
 0001:0007d224       ?scan_optional_length_modifier@?$format_string_parser@D@__crt_stdio_input@@AEAAXXZ 000000014007e224 f i libucrt:input.obj
 0001:0007d334       ?scan_scanset_range@?$format_string_parser@D@__crt_stdio_input@@AEAA_NXZ 000000014007e334 f i libucrt:input.obj
 0001:0007d4cc       ?write_character@?$input_processor@DV?$string_input_adapter@D@__crt_stdio_input@@@__crt_stdio_input@@AEAA_NQEFA_W_KAEAPEFA_WAEA_KD@Z 000000014007e4cc f i libucrt:input.obj
 0001:0007d564       ?write_integer@?$input_processor@DV?$string_input_adapter@D@__crt_stdio_input@@@__crt_stdio_input@@AEAA_N_K@Z 000000014007e564 f i libucrt:input.obj
 0001:0007d5e0       __stdio_common_vsscanf     000000014007e5e0 f   libucrt:input.obj
 0001:0007d78c       ??$__crt_time_is_leap_year@H@@YA_NH@Z 000000014007e78c f i libucrt:asctime.obj
 0001:0007da24       asctime                    000000014007ea24 f   libucrt:asctime.obj
 0001:0007dda0       _localtime64               000000014007eda0 f   libucrt:localtime.obj
 0001:0007dde8       _time64                    000000014007ede8 f   libucrt:time.obj
 0001:0007e0cc       __acrt_initialize_thread_local_exit_callback 000000014007f0cc f   libucrt:exit.obj
 0001:0007e0d4       _c_exit                    000000014007f0d4 f   libucrt:exit.obj
 0001:0007e0e4       _cexit                     000000014007f0e4 f   libucrt:exit.obj
 0001:0007e0f4       _exit                      000000014007f0f4 f   libucrt:exit.obj
 0001:0007e100       _register_thread_local_exe_atexit_callback 000000014007f100 f   libucrt:exit.obj
 0001:0007e13c       exit                       000000014007f13c f   libucrt:exit.obj
 0001:0007e150       strcpy_s                   000000014007f150 f   libucrt:strcpy_s.obj
 0001:0007e4e0       _dupenv_s                  000000014007f4e0 f   libucrt:getenv.obj
 0001:0007e500       _wgetenv_s                 000000014007f500 f   libucrt:getenv.obj
 0001:0007e728       __acrt_stdio_flush_nolock  000000014007f728 f   libucrt:fflush.obj
 0001:0007e7b4       _fflush_nolock             000000014007f7b4 f   libucrt:fflush.obj
 0001:0007e888       _flushall                  000000014007f888 f   libucrt:fflush.obj
 0001:0007e890       fflush                     000000014007f890 f   libucrt:fflush.obj
 0001:0007e8f8       _getdrive                  000000014007f8f8 f   libucrt:drive.obj
 0001:0007e9f0       _fread_nolock_s            000000014007f9f0 f   libucrt:fread.obj
 0001:0007ec5c       fread                      000000014007fc5c f   libucrt:fread.obj
 0001:0007ec7c       fread_s                    000000014007fc7c f   libucrt:fread.obj
 0001:0007ed24       _tolower_l                 000000014007fd24 f   libucrt:tolower_toupper.obj
 0001:0007ee58       _toupper_l                 000000014007fe58 f   libucrt:tolower_toupper.obj
 0001:0007ef8c       tolower                    000000014007ff8c f   libucrt:tolower_toupper.obj
 0001:0007efb8       toupper                    000000014007ffb8 f   libucrt:tolower_toupper.obj
 0001:0007efe4       _wtol                      000000014007ffe4 f   libucrt:atox.obj
 0001:0007f094       atoi                       0000000140080094 f   libucrt:atox.obj
 0001:0007f144       __acrt_initialize_clock    0000000140080144 f   libucrt:clock.obj
 0001:0007f1a4       clock                      00000001400801a4 f   libucrt:clock.obj
 0001:0007f224       rand                       0000000140080224 f   libucrt:rand.obj
 0001:0007f250       srand                      0000000140080250 f   libucrt:rand.obj
 0001:0007f270       _aligned_free              0000000140080270 f   libucrt:align.obj
 0001:0007f2a0       _aligned_malloc            00000001400802a0 f   libucrt:align.obj
 0001:0007f330       _aligned_offset_malloc     0000000140080330 f   libucrt:align.obj
 0001:0007f400       _aligned_msize             0000000140080400 f   libucrt:align.obj
 0001:0007f470       _aligned_offset_realloc    0000000140080470 f   libucrt:align.obj
 0001:0007f6d0       _aligned_offset_recalloc   00000001400806d0 f   libucrt:align.obj
 0001:0007f9f0       _aligned_realloc           00000001400809f0 f   libucrt:align.obj
 0001:0007fbd0       _aligned_recalloc          0000000140080bd0 f   libucrt:align.obj
 0001:00080a14       __acrt_initialize_locks    0000000140081a14 f   libucrt:locks.obj
 0001:00080a5c       __acrt_lock                0000000140081a5c f   libucrt:locks.obj
 0001:00080a78       __acrt_uninitialize_locks  0000000140081a78 f   libucrt:locks.obj
 0001:00080ab0       __acrt_unlock              0000000140081ab0 f   libucrt:locks.obj
 0001:00080acc       _lock_locales              0000000140081acc f   libucrt:locks.obj
 0001:00080ae8       _unlock_locales            0000000140081ae8 f   libucrt:locks.obj
 0001:00080af8       abort                      0000000140081af8 f   libucrt:abort.obj
 0001:00080e30       setlocale                  0000000140081e30 f   libucrt:setlocale.obj
 0001:00080e7c       __acrt_errno_from_os_error 0000000140081e7c f   libucrt:errno.obj
 0001:00080f4c       __acrt_errno_map_os_error  0000000140081f4c f   libucrt:errno.obj
 0001:00080f74       __acrt_errno_map_os_error_ptd 0000000140081f74 f   libucrt:errno.obj
 0001:00080f98       __doserrno                 0000000140081f98 f   libucrt:errno.obj
 0001:00080fbc       _errno                     0000000140081fbc f   libucrt:errno.obj
 0001:00080fe0       ___lc_codepage_func        0000000140081fe0 f   libucrt:initctype.obj
 0001:00081010       ___lc_locale_name_func     0000000140082010 f   libucrt:initctype.obj
 0001:00081044       ___mb_cur_max_func         0000000140082044 f   libucrt:initctype.obj
 0001:00081074       __acrt_locale_initialize_ctype 0000000140082074 f   libucrt:initctype.obj
 0001:000816b8       __pctype_func              00000001400826b8 f   libucrt:ctype.obj
 0001:000816e8       _fputc_nolock_internal     00000001400826e8 f   libucrt:fputc.obj
 0001:00081700       realloc                    0000000140082700 f   libucrt:realloc.obj
 0001:00081710       isspace                    0000000140082710 f   libucrt:_ctype.obj
 0001:000817b8       ??$__acrt_convert_wcs_mbs_cp@D_WV<lambda_7c9dea7b4ca7285d2cdb541a38da6275>@@U__crt_win32_buffer_internal_dynamic_resizing@@@@YAHQEBDAEAV?$__crt_win32_buffer@_WU__crt_win32_buffer_internal_dynamic_resizing@@@@AEBV<lambda_7c9dea7b4ca7285d2cdb541a38da6275>@@I@Z 00000001400827b8 f i libucrt:strftime.obj
 0001:00081958       ??$__acrt_convert_wcs_mbs_cp@_WDV<lambda_f788ae46380686e8b737efdd8c720d07>@@U__crt_win32_buffer_no_resizing@@@@YAHQEB_WAEAV?$__crt_win32_buffer@DU__crt_win32_buffer_no_resizing@@@@AEBV<lambda_f788ae46380686e8b737efdd8c720d07>@@I@Z 0000000140082958 f i libucrt:strftime.obj
 0001:00081a80       strnlen                    0000000140082a80 f   libucrt:strnlen.obj
 0001:00081c10       wcsnlen                    0000000140082c10 f   libucrt:strnlen.obj
 0001:00081e20       __strncnt                  0000000140082e20 f   libucrt:strncnt.obj
 0001:00081e40       wcsncpy_s                  0000000140082e40 f   libucrt:wcsncpy_s.obj
 0001:00081f90       exp                        0000000140082f90 f   libucrt:exp.obj
 0001:000823b0       sqrt                       00000001400833b0 f   libucrt:sqrt.obj
 0001:00082470       _callnewh                  0000000140083470 f   libucrt:new_handler.obj
 0001:000824b0       __acrt_initialize_new_handler 00000001400834b0 f   libucrt:new_handler.obj
 0001:000824c0       _query_new_handler         00000001400834c0 f   libucrt:new_handler.obj
 0001:00082500       _set_new_handler           0000000140083500 f   libucrt:new_handler.obj
 0001:00082560       ?_set_new_handler@@YAP6AH_K@ZH@Z 0000000140083560 f   libucrt:new_handler.obj
 0001:0008256c       _seh_filter_exe            000000014008356c f   libucrt:exception_filter.obj
 0001:00082898       __acrt_allocate_buffer_for_argv 0000000140083898 f   libucrt:argv_parsing.obj
 0001:000828f8       _configure_narrow_argv     00000001400838f8 f   libucrt:argv_parsing.obj
 0001:00082fa8       __dcrt_get_or_create_narrow_environment_nolock 0000000140083fa8 f   libucrt:environment_initialization.obj
 0001:00082fe4       __dcrt_get_or_create_wide_environment_nolock 0000000140083fe4 f   libucrt:environment_initialization.obj
 0001:00083020       __dcrt_uninitialize_environments_nolock 0000000140084020 f   libucrt:environment_initialization.obj
 0001:00083064       _get_initial_narrow_environment 0000000140084064 f   libucrt:environment_initialization.obj
 0001:000830b4       _initialize_narrow_environment 00000001400840b4 f   libucrt:environment_initialization.obj
 0001:000833fc       _crt_atexit                00000001400843fc f   libucrt:onexit.obj
 0001:0008340c       _execute_onexit_table      000000014008440c f   libucrt:onexit.obj
 0001:00083450       _initialize_onexit_table   0000000140084450 f   libucrt:onexit.obj
 0001:00083478       _register_onexit_function  0000000140084478 f   libucrt:onexit.obj
 0001:000835ec       __acrt_initialize          00000001400845ec f   libucrt:initialization.obj
 0001:00083600       __acrt_uninitialize        0000000140084600 f   libucrt:initialization.obj
 0001:00083638       _query_app_type            0000000140084638 f   libucrt:report_runtime_error.obj
 0001:00083640       _set_app_type              0000000140084640 f   libucrt:report_runtime_error.obj
 0001:00083650       __acrt_has_user_matherr    0000000140084650 f   libucrt:matherr.obj
 0001:00083670       __acrt_initialize_user_matherr 0000000140084670 f   libucrt:matherr.obj
 0001:00083680       __acrt_invoke_user_matherr 0000000140084680 f   libucrt:matherr.obj
 0001:000836b0       __setusermatherr           00000001400846b0 f   libucrt:matherr.obj
 0001:000836d4       _initterm                  00000001400846d4 f   libucrt:initterm.obj
 0001:0008370c       _initterm_e                000000014008470c f   libucrt:initterm.obj
 0001:00083748       _get_fmode                 0000000140084748 f   libucrt:setmode.obj
 0001:00083778       _set_fmode                 0000000140084778 f   libucrt:setmode.obj
 0001:000837b8       _setmode_nolock            00000001400847b8 f   libucrt:setmode.obj
 0001:0008389c       __acrt_initialize_command_line 000000014008489c f   libucrt:argv_data.obj
 0001:000838c4       __p___argc                 00000001400848c4 f   libucrt:argv_data.obj
 0001:000838cc       __p___argv                 00000001400848cc f   libucrt:argv_data.obj
 0001:00083b3c       ?commit_locale_name@_expandlocale_locale_name_cache@@QEAAXQEB_W_K@Z 0000000140084b3c f i libucrt:wsetlocale.obj
 0001:00083bb4       __acrt_copy_locale_name    0000000140084bb4 f   libucrt:wsetlocale.obj
 0001:00083c38       __acrt_set_locale_changed  0000000140084c38 f   libucrt:wsetlocale.obj
 0001:00083c44       __acrt_uninitialize_locale 0000000140084c44 f   libucrt:wsetlocale.obj
 0001:00083c74       __lc_lctowcs               0000000140084c74 f   libucrt:wsetlocale.obj
 0001:00083d18       __lc_wcstolc               0000000140084d18 f   libucrt:wsetlocale.obj
 0001:00083e7c       _configthreadlocale        0000000140084e7c f   libucrt:wsetlocale.obj
 0001:0008442c       _wcscats                   000000014008542c f   libucrt:wsetlocale.obj
 0001:00084494       _wsetlocale                0000000140085494 f   libucrt:wsetlocale.obj
 0001:000851f0       _query_new_mode            00000001400861f0 f   libucrt:new_mode.obj
 0001:00085200       _set_new_mode              0000000140086200 f   libucrt:new_mode.obj
 0001:0008522c       __p__commode               000000014008622c f   libucrt:ncommode.obj
 0001:00085240       wcsncmp                    0000000140086240 f   libucrt:wcsncmp.obj
 0001:00085584       ?internal_get_ptd_head_slow@@YAPEAU__acrt_ptd@@XZ 0000000140086584 f   libucrt:per_thread_data.obj
 0001:000856a4       __acrt_getptd              00000001400866a4 f   libucrt:per_thread_data.obj
 0001:000856c0       __acrt_getptd_head         00000001400866c0 f   libucrt:per_thread_data.obj
 0001:00085704       __acrt_getptd_noexit       0000000140086704 f   libucrt:per_thread_data.obj
 0001:00085794       __acrt_getptd_noexit_explicit 0000000140086794 f   libucrt:per_thread_data.obj
 0001:000857f0       __acrt_initialize_ptd      00000001400867f0 f   libucrt:per_thread_data.obj
 0001:00085834       __acrt_uninitialize_ptd    0000000140086834 f   libucrt:per_thread_data.obj
 0001:00085860       _dtest_inline              0000000140086860 f i libucrt:_test.obj
 0001:000858c0       _fdtest_inline             00000001400868c0 f i libucrt:_test.obj
 0001:00085900       _ldtest_inline             0000000140086900 f i libucrt:_test.obj
 0001:00085960       _calloc_base               0000000140086960 f   libucrt:calloc_base.obj
 0001:000859e0       _free_base                 00000001400869e0 f   libucrt:free_base.obj
 0001:00085a40       _malloc_base               0000000140086a40 f   libucrt:malloc_base.obj
 0001:00085cfc       __acrt_AppPolicyGetProcessTerminationMethodInternal 0000000140086cfc f   libucrt:winapi_thunks.obj
 0001:00085d58       __acrt_AppPolicyGetThreadInitializationTypeInternal 0000000140086d58 f   libucrt:winapi_thunks.obj
 0001:00085db4       __acrt_AreFileApisANSI     0000000140086db4 f   libucrt:winapi_thunks.obj
 0001:00085e00       __acrt_CompareStringEx     0000000140086e00 f   libucrt:winapi_thunks.obj
 0001:00085ec4       __acrt_EnumSystemLocalesEx 0000000140086ec4 f   libucrt:winapi_thunks.obj
 0001:00085f68       __acrt_FlsAlloc            0000000140086f68 f   libucrt:winapi_thunks.obj
 0001:00085f70       __acrt_FlsFree             0000000140086f70 f   libucrt:winapi_thunks.obj
 0001:00085f78       __acrt_FlsGetValue         0000000140086f78 f   libucrt:winapi_thunks.obj
 0001:00085f80       __acrt_FlsGetValue2        0000000140086f80 f   libucrt:winapi_thunks.obj
 0001:00085f8c       __acrt_FlsSetValue         0000000140086f8c f   libucrt:winapi_thunks.obj
 0001:00085f94       __acrt_GetLocaleInfoEx     0000000140086f94 f   libucrt:winapi_thunks.obj
 0001:00086028       __acrt_GetUserDefaultLocaleName 0000000140087028 f   libucrt:winapi_thunks.obj
 0001:00086098       __acrt_InitializeCriticalSectionEx 0000000140087098 f   libucrt:winapi_thunks.obj
 0001:000860a0       __acrt_IsValidLocaleName   00000001400870a0 f   libucrt:winapi_thunks.obj
 0001:00086108       __acrt_LCIDToLocaleName    0000000140087108 f   libucrt:winapi_thunks.obj
 0001:00086190       __acrt_LCMapStringEx       0000000140087190 f   libucrt:winapi_thunks.obj
 0001:00086284       __acrt_LocaleNameToLCID    0000000140087284 f   libucrt:winapi_thunks.obj
 0001:000862e8       __acrt_RoInitialize        00000001400872e8 f   libucrt:winapi_thunks.obj
 0001:00086338       __acrt_RoUninitialize      0000000140087338 f   libucrt:winapi_thunks.obj
 0001:0008637c       __acrt_can_use_vista_locale_apis 000000014008737c f   libucrt:winapi_thunks.obj
 0001:00086390       __acrt_eagerly_load_locale_apis 0000000140087390 f   libucrt:winapi_thunks.obj
 0001:00086538       __acrt_initialize_winapi_thunks 0000000140087538 f   libucrt:winapi_thunks.obj
 0001:00086568       __acrt_tls2_supported      0000000140087568 f   libucrt:winapi_thunks.obj
 0001:000865ac       __acrt_uninitialize_winapi_thunks 00000001400875ac f   libucrt:winapi_thunks.obj
 0001:000865f0       _fcloseall                 00000001400875f0 f   libucrt:closeall.obj
 0001:000866a4       __acrt_stdio_free_buffer_nolock 00000001400876a4 f   libucrt:_freebuf.obj
 0001:000868f0       __acrt_initialize_lowio    00000001400878f0 f   libucrt:ioinit.obj
 0001:0008692c       __acrt_uninitialize_lowio  000000014008792c f   libucrt:ioinit.obj
 0001:0008696c       ?__acrt_stdio_allocate_stream@@YA?AV__crt_stdio_stream@@XZ 000000014008796c f   libucrt:stream.obj
 0001:000869c4       ?__acrt_stdio_free_stream@@YAXV__crt_stdio_stream@@@Z 00000001400879c4 f   libucrt:stream.obj
 0001:00086acc       ??$__acrt_stdio_parse_mode@D@@YA?AU__acrt_stdio_stream_mode@@QEBD@Z 0000000140087acc f i libucrt:openfile.obj
 0001:00086d90       _openfile                  0000000140087d90 f   libucrt:openfile.obj
 0001:00086e2c       _fileno                    0000000140087e2c f   libucrt:fileno.obj
 0001:00086ecc       _close_internal            0000000140087ecc f   libucrt:close.obj
 0001:00086f90       _close_nolock              0000000140087f90 f   libucrt:close.obj
 0001:00087028       _close_nolock_internal     0000000140088028 f   libucrt:close.obj
 0001:000872c8       _lseeki64                  00000001400882c8 f   libucrt:lseek.obj
 0001:00087364       _lseeki64_internal         0000000140088364 f   libucrt:lseek.obj
 0001:0008736c       _lseeki64_nolock           000000014008836c f   libucrt:lseek.obj
 0001:00087408       _lseeki64_nolock_internal  0000000140088408 f   libucrt:lseek.obj
 0001:0008793c       _read                      000000014008893c f   libucrt:read.obj
 0001:00087a5c       _read_nolock               0000000140088a5c f   libucrt:read.obj
 0001:000886e8       _write                     00000001400896e8 f   libucrt:write.obj
 0001:00088780       _write_internal            0000000140089780 f   libucrt:write.obj
 0001:000888a0       _write_nolock              00000001400898a0 f   libucrt:write.obj
 0001:00088d50       __acrt_stdio_flush_and_write_narrow_nolock 0000000140089d50 f   libucrt:_flsbuf.obj
 0001:00088e1c       __acrt_should_use_temporary_buffer 0000000140089e1c f   libucrt:_sftbuf.obj
 0001:00088e68       __acrt_stdio_begin_temporary_buffering_nolock 0000000140089e68 f   libucrt:_sftbuf.obj
 0001:00088f30       __acrt_stdio_end_temporary_buffering_nolock 0000000140089f30 f   libucrt:_sftbuf.obj
 0001:00088f70       __acrt_update_locale_info  0000000140089f70 f   libucrt:locale_update.obj
 0001:00088fa4       __acrt_update_locale_info_explicit 0000000140089fa4 f   libucrt:locale_update.obj
 0001:00088fdc       __acrt_update_multibyte_info 0000000140089fdc f   libucrt:locale_update.obj
 0001:00089010       __acrt_update_multibyte_info_explicit 000000014008a010 f   libucrt:locale_update.obj
 0001:00089b58       __acrt_fp_format           000000014008ab58 f   libucrt:cvt.obj
 0001:00089e40       _wctomb_internal           000000014008ae40 f   libucrt:wctomb.obj
 0001:00089ff0       _mbtowc_internal           000000014008aff0 f   libucrt:mbtowc.obj
 0001:0008a168       _mbtowc_l                  000000014008b168 f   libucrt:mbtowc.obj
 0001:0008a20c       ?__mblen_utf8@__crt_mbstring@@YAHPEBD@Z 000000014008b20c f   libucrt:mbrtoc32.obj
 0001:0008a244       ?__mbrtoc32_utf8@__crt_mbstring@@YA_KPEA_UPEBD_KPEAU_Mbstatet@@AEAV__crt_cached_ptd_host@@@Z 000000014008b244 f   libucrt:mbrtoc32.obj
 0001:0008a404       ?__c16rtomb_utf8@__crt_mbstring@@YA_KPEAD_SPEAU_Mbstatet@@AEAV__crt_cached_ptd_host@@@Z 000000014008b404 f   libucrt:c16rtomb.obj
 0001:0008a4a8       ?__mbrtowc_utf8@__crt_mbstring@@YA_KPEA_WPEBD_KPEAU_Mbstatet@@AEAV__crt_cached_ptd_host@@@Z 000000014008b4a8 f   libucrt:mbrtowc.obj
 0001:0008a4f0       ?__mbsrtowcs_utf8@__crt_mbstring@@YA_KPEA_WPEAPEBD_KPEAU_Mbstatet@@AEAV__crt_cached_ptd_host@@@Z 000000014008b4f0 f   libucrt:mbrtowc.obj
 0001:0008a6a8       _get_printf_count_output   000000014008b6a8 f   libucrt:printf_count_output.obj
 0001:0008a6c0       __acrt_get_begin_thread_init_policy 000000014008b6c0 f   libucrt:win_policies.obj
 0001:0008a700       __acrt_get_process_end_policy 000000014008b700 f   libucrt:win_policies.obj
 0001:0008a730       iswctype                   000000014008b730 f   libucrt:iswctype.obj
 0001:0008a79c       _isctype_l                 000000014008b79c f   libucrt:isctype.obj
 0001:0008a8b0       fegetround                 000000014008b8b0 f   libucrt:fegetround.obj
 0001:0008a8c4       __acrt_initialize_timeset  000000014008b8c4 f   libucrt:timeset.obj
 0001:0008a914       __daylight                 000000014008b914 f   libucrt:timeset.obj
 0001:0008a91c       __dstbias                  000000014008b91c f   libucrt:timeset.obj
 0001:0008a924       __timezone                 000000014008b924 f   libucrt:timeset.obj
 0001:0008a92c       __tzname                   000000014008b92c f   libucrt:timeset.obj
 0001:0008a934       __wide_tzname              000000014008b934 f   libucrt:timeset.obj
 0001:0008a93c       _get_daylight              000000014008b93c f   libucrt:timeset.obj
 0001:0008a96c       _get_dstbias               000000014008b96c f   libucrt:timeset.obj
 0001:0008a99c       _get_timezone              000000014008b99c f   libucrt:timeset.obj
 0001:0008ac54       __getgmtimebuf             000000014008bc54 f   libucrt:gmtime.obj
 0001:0008aca0       _gmtime64_s                000000014008bca0 f   libucrt:gmtime.obj
 0001:0008b820       __tzset                    000000014008c820 f   libucrt:tzset.obj
 0001:0008b864       _isindst                   000000014008c864 f   libucrt:tzset.obj
 0001:0008b894       __acrt_app_verifier_enabled 000000014008c894 f   libucrt:peb_access.obj
 0001:0008b8b0       __acrt_is_secure_process   000000014008c8b0 f   libucrt:peb_access.obj
 0001:0008b8d0       wcscpy_s                   000000014008c8d0 f   libucrt:wcscpy_s.obj
 0001:0008b960       _wcsnicoll                 000000014008c960 f   libucrt:wcsnicol.obj
 0001:0008bb00       _strnicoll                 000000014008cb00 f   libucrt:strnicol.obj
 0001:0008bd30       _commit                    000000014008cd30 f   libucrt:commit.obj
 0001:0008bdc4       __acrt_stdio_refill_and_read_narrow_nolock 000000014008cdc4 f   libucrt:_filbuf.obj
 0001:0008c264       __acrt_LCMapStringA        000000014008d264 f   libucrt:lcmapstringa.obj
 0001:0008c300       _expand                    000000014008d300 f   libucrt:expand.obj
 0001:0008c310       _expand_base               000000014008d310 f   libucrt:expand.obj
 0001:0008c460       _msize_base                000000014008d460 f   libucrt:msize.obj
 0001:0008c4a0       _msize                     000000014008d4a0 f   libucrt:msize.obj
 0001:0008c4f0       __acrt_get_sigabrt_handler 000000014008d4f0 f   libucrt:signal.obj
 0001:0008c520       __acrt_initialize_signal_handlers 000000014008d520 f   libucrt:signal.obj
 0001:0008c540       raise                      000000014008d540 f   libucrt:signal.obj
 0001:0008cab4       mbstowcs_s                 000000014008dab4 f   libucrt:mbstowcs.obj
 0001:0008cfb0       _wcstombs_s_l              000000014008dfb0 f   libucrt:wcstombs.obj
 0001:0008d1e4       __acrt_GetLocaleInfoA      000000014008e1e4 f   libucrt:getlocaleinfoa.obj
 0001:0008d3ac       __acrt_GetStringTypeA      000000014008e3ac f   libucrt:getstringtypea.obj
 0001:0008d540       _raise_exc                 000000014008e540 f   libucrt:fpexcept.obj
 0001:0008d570       _raise_exc_ex              000000014008e570 f   libucrt:fpexcept.obj
 0001:0008d880       _set_errno_from_matherr    000000014008e880 f   libucrt:fpexcept.obj
 0001:0008d8c0       _clrfp                     000000014008e8c0 f   libucrt:fpctrl.obj
 0001:0008d8e0       _ctrlfp                    000000014008e8e0 f   libucrt:fpctrl.obj
 0001:0008d960       _get_fpcsr                 000000014008e960 f   libucrt:fpctrl.obj
 0001:0008d960       _get_fpsr                  000000014008e960 f   libucrt:fpctrl.obj
 0001:0008d970       _set_fpcsr                 000000014008e970 f   libucrt:fpctrl.obj
 0001:0008d970       _set_fpsr                  000000014008e970 f   libucrt:fpctrl.obj
 0001:0008d980       _set_statfp                000000014008e980 f   libucrt:fpctrl.obj
 0001:0008d9a0       _statfp                    000000014008e9a0 f   libucrt:fpctrl.obj
 0001:0008d9b0       _realloc_base              000000014008e9b0 f   libucrt:realloc_base.obj
 0001:0008da2c       __acrt_MultiByteToWideChar 000000014008ea2c f   libucrt:multibytetowidechar.obj
 0001:0008dabc       __acrt_WideCharToMultiByte 000000014008eabc f   libucrt:widechartomultibyte.obj
 0001:0008dbd0       __ascii_wcsicmp            000000014008ebd0 f   libucrt:wcsicmp.obj
 0001:0008dc30       _wcsicmp                   000000014008ec30 f   libucrt:wcsicmp.obj
 0001:0008dc60       _wcsicmp_l                 000000014008ec60 f   libucrt:wcsicmp.obj
 0001:0008de30       __acrt_initialize_fma3     000000014008ee30 f   libucrt:fma3_available.obj
 0001:0008def0       _exp_special               000000014008eef0 f   libucrt:exp_special.obj
 0001:0008e0a0       _handle_error              000000014008f0a0 f   libucrt:libm_error.obj
 0001:0008e1e0       _handle_nan                000000014008f1e0 f   libucrt:libm_error.obj
 0001:0008e208       ??$__acrt_convert_wcs_mbs_cp@_WDV<lambda_d8593a27d1aa8c02be35c86a17d324c4>@@U__crt_win32_buffer_internal_dynamic_resizing@@@@YAHQEB_WAEAV?$__crt_win32_buffer@DU__crt_win32_buffer_internal_dynamic_resizing@@@@AEBV<lambda_d8593a27d1aa8c02be35c86a17d324c4>@@I@Z 000000014008f208 f i libucrt:argv_wildcards.obj
 0001:0008ead4       __acrt_expand_narrow_argv_wildcards 000000014008fad4 f   libucrt:argv_wildcards.obj
 0001:0008eadc       __acrt_GetModuleFileNameA  000000014008fadc f   libucrt:getmodulefilenamea.obj
 0001:0008f408       __acrt_initialize_multibyte 0000000140090408 f   libucrt:mbctype.obj
 0001:0008f468       __acrt_update_thread_multibyte_data 0000000140090468 f   libucrt:mbctype.obj
 0001:0008f484       _setmbcp_nolock            0000000140090484 f   libucrt:mbctype.obj
 0001:0008f7c0       _ismbblead                 00000001400907c0 f   libucrt:ismbbyte.obj
 0001:0008f7d4       __dcrt_get_narrow_environment_from_os 00000001400907d4 f   libucrt:get_environment_from_os.obj
 0001:0008f8e4       __dcrt_get_wide_environment_from_os 00000001400908e4 f   libucrt:get_environment_from_os.obj
 0001:00090214       __dcrt_set_variable_in_narrow_environment_nolock 0000000140091214 f   libucrt:setenv.obj
 0001:0009021c       __dcrt_set_variable_in_wide_environment_nolock 000000014009121c f   libucrt:setenv.obj
 0001:00090230       _recalloc_base             0000000140091230 f   libucrt:recalloc.obj
 0001:000902d0       _recalloc                  00000001400912d0 f   libucrt:recalloc.obj
 0001:000902e0       _get_heap_handle           00000001400912e0 f   libucrt:heap_handle.obj
 0001:000902f0       __acrt_initialize_heap     00000001400912f0 f   libucrt:heap_handle.obj
 0001:00090320       __acrt_uninitialize_heap   0000000140091320 f   libucrt:heap_handle.obj
 0001:00090340       __acrt_getheap             0000000140091340 f   libucrt:heap_handle.obj
 0001:00090348       __acrt_execute_initializers 0000000140091348 f   libucrt:shared_initialization.obj
 0001:000903c8       __acrt_execute_uninitializers 00000001400913c8 f   libucrt:shared_initialization.obj
 0001:00090410       wcscat_s                   0000000140091410 f   libucrt:wcscat_s.obj
 0001:000904a0       __acrt_lowio_create_handle_array 00000001400914a0 f   libucrt:osfinfo.obj
 0001:00090548       __acrt_lowio_destroy_handle_array 0000000140091548 f   libucrt:osfinfo.obj
 0001:00090598       __acrt_lowio_ensure_fh_exists 0000000140091598 f   libucrt:osfinfo.obj
 0001:00090640       __acrt_lowio_lock_fh       0000000140091640 f   libucrt:osfinfo.obj
 0001:00090668       __acrt_lowio_set_os_handle 0000000140091668 f   libucrt:osfinfo.obj
 0001:00090728       __acrt_lowio_unlock_fh     0000000140091728 f   libucrt:osfinfo.obj
 0001:00090750       _alloc_osfhnd              0000000140091750 f   libucrt:osfinfo.obj
 0001:00090890       _free_osfhnd               0000000140091890 f   libucrt:osfinfo.obj
 0001:0009094c       _get_osfhandle             000000014009194c f   libucrt:osfinfo.obj
 0001:000909c4       __acrt_initialize_fmode    00000001400919c4 f   libucrt:txtmode.obj
 0001:000909dc       __acrt_locale_free_monetary 00000001400919dc f   libucrt:initmon.obj
 0001:00090ae8       __acrt_locale_initialize_monetary 0000000140091ae8 f   libucrt:initmon.obj
 0001:00091004       __acrt_locale_free_numeric 0000000140092004 f   libucrt:initnum.obj
 0001:00091070       __acrt_locale_initialize_numeric 0000000140092070 f   libucrt:initnum.obj
 0001:000916cc       __acrt_locale_free_time    00000001400926cc f   libucrt:inittime.obj
 0001:000917d4       __acrt_locale_initialize_time 00000001400927d4 f   libucrt:inittime.obj
 0001:00091870       wcsncat_s                  0000000140092870 f   libucrt:wcsncat_s.obj
 0001:000919b0       wcscspn                    00000001400929b0 f   libucrt:wcscspn.obj
 0001:00091a10       wcspbrk                    0000000140092a10 f   libucrt:wcspbrk.obj
 0001:00091a68       __acrt_add_locale_ref      0000000140092a68 f   libucrt:locale_refcounting.obj
 0001:00091af4       __acrt_free_locale         0000000140092af4 f   libucrt:locale_refcounting.obj
 0001:00091c6c       __acrt_locale_add_lc_time_reference 0000000140092c6c f   libucrt:locale_refcounting.obj
 0001:00091c94       __acrt_locale_free_lc_time_if_unreferenced 0000000140092c94 f   libucrt:locale_refcounting.obj
 0001:00091ccc       __acrt_locale_release_lc_time_reference 0000000140092ccc f   libucrt:locale_refcounting.obj
 0001:00091cf4       __acrt_release_locale_ref  0000000140092cf4 f   libucrt:locale_refcounting.obj
 0001:00091d9c       __acrt_update_thread_locale_data 0000000140092d9c f   libucrt:locale_refcounting.obj
 0001:00091e0c       _updatetlocinfoEx_nolock   0000000140092e0c f   libucrt:locale_refcounting.obj
 0001:0009262c       __acrt_get_qualified_locale 000000014009362c f   libucrt:get_qualified_locale.obj
 0001:0009308c       __acrt_get_qualified_locale_downlevel 000000014009408c f   libucrt:getqloc_downlevel.obj
 0001:0009330c       __acrt_DownlevelLCIDToLocaleName 000000014009430c f   libucrt:lcidtoname_downlevel.obj
 0001:000933f4       __acrt_DownlevelLocaleNameToLCID 00000001400943f4 f   libucrt:lcidtoname_downlevel.obj
 0001:000934a0       __ascii_wcsnicmp           00000001400944a0 f   libucrt:wcsnicmp.obj
 0001:00093510       _wcsnicmp                  0000000140094510 f   libucrt:wcsnicmp.obj
 0001:00093540       _wcsnicmp_l                0000000140094540 f   libucrt:wcsnicmp.obj
 0001:00093760       _strnicmp                  0000000140094760 f   libucrt:strnicmp.obj
 0001:000937f0       _strnicmp_l                00000001400947f0 f   libucrt:strnicmp.obj
 0001:00093f68       _sopen_nolock              0000000140094f68 f   libucrt:open.obj
 0001:00094084       _sopen_s                   0000000140095084 f   libucrt:open.obj
 0001:000940b8       _wsopen_nolock             00000001400950b8 f   libucrt:open.obj
 0001:000944cc       _isatty                    00000001400954cc f   libucrt:isatty.obj
 0001:0009452c       _putwch_nolock             000000014009552c f   libucrt:putwch.obj
 0001:0009456c       __acrt_stdio_allocate_buffer_nolock 000000014009556c f   libucrt:_getbuf.obj
 0001:000946a8       __acrt_fp_strflt_to_string 00000001400956a8 f   libucrt:_fptostr.obj
 0001:000947b8       __acrt_fltout              00000001400957b8 f   libucrt:cfout.obj
 0001:00095a38       ?__c32rtomb_utf8@__crt_mbstring@@YA_KPEAD_UPEAU_Mbstatet@@AEAV__crt_cached_ptd_host@@@Z 0000000140096a38 f   libucrt:c32rtomb.obj
 0001:00095adc       ?reset_and_return@__crt_mbstring@@YA_K_KPEAU_Mbstatet@@@Z 0000000140096adc f   libucrt:common_utf8.obj
 0001:00095ae4       ?return_illegal_sequence@__crt_mbstring@@YA_KPEAU_Mbstatet@@AEAV__crt_cached_ptd_host@@@Z 0000000140096ae4 f   libucrt:common_utf8.obj
 0001:00095af8       __acrt_GetStringTypeW      0000000140096af8 f   libucrt:getstringtypew.obj
 0001:00095b00       __acrt_fenv_get_common_round_control 0000000140096b00 f   libucrt:_fenvutils.obj
 0001:00095b10       __acrt_fenv_get_control    0000000140096b10 f   libucrt:_fenvutils.obj
 0001:00095bf0       __acrt_fenv_get_status     0000000140096bf0 f   libucrt:_fenvutils.obj
 0001:00095c50       __acrt_fenv_set_control    0000000140096c50 f   libucrt:_fenvutils.obj
 0001:00095d80       __acrt_fenv_set_status     0000000140096d80 f   libucrt:_fenvutils.obj
 0001:00095df4       __acrt_CompareStringW      0000000140096df4 f   libucrt:comparestringw.obj
 0001:00096244       __acrt_CompareStringA      0000000140097244 f   libucrt:comparestringa.obj
 0001:000962d0       ?__wcsrtombs_utf8@__crt_mbstring@@YA_KPEADPEAPEB_W_KPEAU_Mbstatet@@AEAV__crt_cached_ptd_host@@@Z 00000001400972d0 f   libucrt:wcrtomb.obj
 0001:00096430       strncpy_s                  0000000140097430 f   libucrt:strncpy_s.obj
 0001:0009655c       _towlower_l                000000014009755c f   libucrt:towlower.obj
 0001:00096660       qsort                      0000000140097660 f   libucrt:qsort.obj
 0001:00096aa0       strpbrk                    0000000140097aa0 f   libucrt:strpbrk.obj
 0001:00096e58       _mbsdec                    0000000140097e58 f   libucrt:mbsdec.obj
 0001:00096e60       _mbsdec_l                  0000000140097e60 f   libucrt:mbsdec.obj
 0001:00096f08       __acrt_SetEnvironmentVariableA 0000000140097f08 f   libucrt:setenvironmentvariablea.obj
 0001:000971e8       _itow_s                    00000001400981e8 f   libucrt:xtoa.obj
 0001:00097210       wcscmp                     0000000140098210 f   libucrt:wcscmpc.obj
 0001:00097248       _chsize_nolock             0000000140098248 f   libucrt:chsize.obj
 0001:000972e0       _chsize_nolock_internal    00000001400982e0 f   libucrt:chsize.obj
 0001:00097470       __dcrt_lowio_ensure_console_output_initialized 0000000140098470 f   libucrt:initcon.obj
 0001:000974c4       __dcrt_terminate_console_output 00000001400984c4 f   libucrt:initcon.obj
 0001:000974e0       __dcrt_write_console       00000001400984e0 f   libucrt:initcon.obj
 0001:000975a0       _controlfp_s               00000001400985a0 f   libucrt:contrlfp.obj
 0001:00097610       fegetenv                   0000000140098610 f   libucrt:fegetenv.obj
 0001:00097630       fesetenv                   0000000140098630 f   libucrt:fesetenv.obj
 0001:000976a0       feholdexcept               00000001400986a0 f   libucrt:feholdexcept.obj
 0001:00097700       ceil                       0000000140098700 f   libucrt:ceil.obj
 0001:000977d0       log10                      00000001400987d0 f   libucrt:log10.obj
 0001:00097d7c       __acrt_LCMapStringW        0000000140098d7c f   libucrt:lcmapstringw.obj
 0001:00097e04       _guard_check_icall         0000000140098e04 f i libucrt:checkcfg.obj
 0001:00097e20       _clearfp                   0000000140098e20 f   libucrt:ieee.obj
 0001:00097e90       _control87                 0000000140098e90 f   libucrt:ieee.obj
 0001:00098140       ceil_sse41                 0000000140099140 f   libucrt:floorceil_sse41.obj
 0001:00098150       _log10_special             0000000140099150 f   libucrt:log_special.obj
 0001:0009823c       ??1?$shared_ptr@$$CBU_EXCEPTION_RECORD@@@std@@QEAA@XZ 000000014009923c f i libcpmt:excptptr.obj
 0001:0009828c       ??4?$shared_ptr@$$CBU_EXCEPTION_RECORD@@@std@@QEAAAEAV01@$$QEAV01@@Z 000000014009928c f i libcpmt:excptptr.obj
 0001:00098378       ??_G?$shared_ptr@$$CBU_EXCEPTION_RECORD@@@std@@QEAAPEAXI@Z 0000000140099378 f i libcpmt:excptptr.obj
 0001:00098904       ?__ExceptionPtrCopy@@YAXPEAXPEBX@Z 0000000140099904 f   libcpmt:excptptr.obj
 0001:00098930       ?__ExceptionPtrCreate@@YAXPEAX@Z 0000000140099930 f   libcpmt:excptptr.obj
 0001:00098940       ?__ExceptionPtrCurrentException@@YAXPEAX@Z 0000000140099940 f   libcpmt:excptptr.obj
 0001:000989c8       ?__ExceptionPtrDestroy@@YAXPEAX@Z 00000001400999c8 f   libcpmt:excptptr.obj
 0001:000989d0       ?__ExceptionPtrRethrow@@YAXPEBX@Z 00000001400999d0 f   libcpmt:excptptr.obj
 0001:00098b60       _FindPESection             0000000140099b60 f   LIBCMT:pesect.obj
 0001:00098bb0       _IsNonwritableInCurrentImage 0000000140099bb0 f   LIBCMT:pesect.obj
 0001:00098c00       _ValidateImageBase         0000000140099c00 f   LIBCMT:pesect.obj
 0001:00098c2c       __GSHandlerCheck_SEH       0000000140099c2c f   LIBCMT:gshandlerseh.obj
 0001:00098cb4       __GSHandlerCheck_EH        0000000140099cb4 f   LIBCMT:gshandlereh.obj
 0001:00098d34       __C_specific_handler_noexcept 0000000140099d34 f   libvcruntime:chandler_noexcept.obj
 0001:00098d80       strrchr                    0000000140099d80 f   libvcruntime:strrchr.obj
 0001:00098eb0       strchr                     0000000140099eb0 f   libvcruntime:strchr.obj
 0001:00098f30       wcschr                     0000000140099f30 f   libvcruntime:wcschr.obj
 0001:00098fc0       _guard_dispatch_icall_nop  0000000140099fc0 f   LIBCMT:guard_dispatch.obj
 0001:00098fe0       _guard_xfg_dispatch_icall_nop 0000000140099fe0 f   LIBCMT:guard_xfg_dispatch.obj
 0001:00099000       _guard_dispatch_icall      000000014009a000 f   libucrt:dispatchcfg.obj
 0001:00099000       _guard_dispatch_icall_$fo_default$ 000000014009a000     libucrt:dispatchcfg.obj
 0001:00099020       memcmp                     000000014009a020 f   libvcruntime:memcmp.obj
 0001:00099110       memcpy_repmovs             000000014009a110 f   libvcruntime:memcpy.obj
 0001:00099120       memcpy                     000000014009a120 f   libvcruntime:memcpy.obj
 0001:00099120       memcpy_$fo_default$        000000014009a120     libvcruntime:memcpy.obj
 0001:00099120       memmove                    000000014009a120 f   libvcruntime:memcpy.obj
 0001:000997b0       memset_repstos             000000014009a7b0 f   libvcruntime:memset.obj
 0001:000997c0       memset                     000000014009a7c0 f   libvcruntime:memset.obj
 0001:00099b70       strcmp                     000000014009ab70 f   libucrt:strcmp.obj
 0001:00099bf0       strlen                     000000014009abf0 f   libucrt:strlen.obj
 0001:00099cb0       strcat                     000000014009acb0 f   libucrt:strcat.obj
 0001:00099d50       strcpy                     000000014009ad50 f   libucrt:strcat.obj
 0001:00099d53       ___entry_from_strcat_in_strcpy 000000014009ad53     libucrt:strcat.obj
 0001:00099e20       strncmp                    000000014009ae20 f   libucrt:strncmp.obj
 0002:00000000       __imp_InitCommonControlsEx 000000014009d000     comctl32:COMCTL32.dll
 0002:00000008       \177COMCTL32_NULL_THUNK_DATA 000000014009d008     comctl32:COMCTL32.dll
 0002:00000010       __imp_WriteConsoleW        000000014009d010     kernel32:KERNEL32.dll
 0002:00000018       __imp_SetEndOfFile         000000014009d018     kernel32:KERNEL32.dll
 0002:00000020       __imp_SetStdHandle         000000014009d020     kernel32:KERNEL32.dll
 0002:00000028       __imp_GetTempPathA         000000014009d028     kernel32:KERNEL32.dll
 0002:00000030       __imp_GetTempFileNameA     000000014009d030     kernel32:KERNEL32.dll
 0002:00000038       __imp_ContinueDebugEvent   000000014009d038     kernel32:KERNEL32.dll
 0002:00000040       __imp_WaitForDebugEvent    000000014009d040     kernel32:KERNEL32.dll
 0002:00000048       __imp_DebugActiveProcess   000000014009d048     kernel32:KERNEL32.dll
 0002:00000050       __imp_CloseHandle          000000014009d050     kernel32:KERNEL32.dll
 0002:00000058       __imp_Sleep                000000014009d058     kernel32:KERNEL32.dll
 0002:00000060       __imp_ResumeThread         000000014009d060     kernel32:KERNEL32.dll
 0002:00000068       __imp_CreateProcessA       000000014009d068     kernel32:KERNEL32.dll
 0002:00000070       __imp_ReadProcessMemory    000000014009d070     kernel32:KERNEL32.dll
 0002:00000078       __imp_GetCommandLineA      000000014009d078     kernel32:KERNEL32.dll
 0002:00000080       __imp_GetFullPathNameA     000000014009d080     kernel32:KERNEL32.dll
 0002:00000088       __imp_GetLastError         000000014009d088     kernel32:KERNEL32.dll
 0002:00000090       __imp_WaitForSingleObject  000000014009d090     kernel32:KERNEL32.dll
 0002:00000098       __imp_GetCurrentProcess    000000014009d098     kernel32:KERNEL32.dll
 0002:000000a0       __imp_SetPriorityClass     000000014009d0a0     kernel32:KERNEL32.dll
 0002:000000a8       __imp_GetTickCount         000000014009d0a8     kernel32:KERNEL32.dll
 0002:000000b0       __imp_GetModuleFileNameA   000000014009d0b0     kernel32:KERNEL32.dll
 0002:000000b8       __imp_GetModuleHandleA     000000014009d0b8     kernel32:KERNEL32.dll
 0002:000000c0       __imp_GlobalAlloc          000000014009d0c0     kernel32:KERNEL32.dll
 0002:000000c8       __imp_GlobalUnlock         000000014009d0c8     kernel32:KERNEL32.dll
 0002:000000d0       __imp_GlobalLock           000000014009d0d0     kernel32:KERNEL32.dll
 0002:000000d8       __imp_GlobalFree           000000014009d0d8     kernel32:KERNEL32.dll
 0002:000000e0       __imp_MultiByteToWideChar  000000014009d0e0     kernel32:KERNEL32.dll
 0002:000000e8       __imp_CreateFileA          000000014009d0e8     kernel32:KERNEL32.dll
 0002:000000f0       __imp_SetUnhandledExceptionFilter 000000014009d0f0     kernel32:KERNEL32.dll
 0002:000000f8       __imp_InitializeCriticalSection 000000014009d0f8     kernel32:KERNEL32.dll
 0002:00000100       __imp_EnterCriticalSection 000000014009d100     kernel32:KERNEL32.dll
 0002:00000108       __imp_GetCurrentProcessId  000000014009d108     kernel32:KERNEL32.dll
 0002:00000110       __imp_ExitProcess          000000014009d110     kernel32:KERNEL32.dll
 0002:00000118       __imp_GetCurrentThreadId   000000014009d118     kernel32:KERNEL32.dll
 0002:00000120       __imp_WideCharToMultiByte  000000014009d120     kernel32:KERNEL32.dll
 0002:00000128       __imp_CreateThread         000000014009d128     kernel32:KERNEL32.dll
 0002:00000130       __imp_GetProcessHeap       000000014009d130     kernel32:KERNEL32.dll
 0002:00000138       __imp_SetEnvironmentVariableW 000000014009d138     kernel32:KERNEL32.dll
 0002:00000140       __imp_FreeEnvironmentStringsW 000000014009d140     kernel32:KERNEL32.dll
 0002:00000148       __imp_GetEnvironmentStringsW 000000014009d148     kernel32:KERNEL32.dll
 0002:00000150       __imp_GetOEMCP             000000014009d150     kernel32:KERNEL32.dll
 0002:00000158       __imp_GetACP               000000014009d158     kernel32:KERNEL32.dll
 0002:00000160       __imp_IsValidCodePage      000000014009d160     kernel32:KERNEL32.dll
 0002:00000168       __imp_HeapQueryInformation 000000014009d168     kernel32:KERNEL32.dll
 0002:00000170       __imp_HeapSize             000000014009d170     kernel32:KERNEL32.dll
 0002:00000178       __imp_HeapReAlloc          000000014009d178     kernel32:KERNEL32.dll
 0002:00000180       __imp_FlushFileBuffers     000000014009d180     kernel32:KERNEL32.dll
 0002:00000188       __imp_GetTimeZoneInformation 000000014009d188     kernel32:KERNEL32.dll
 0002:00000190       __imp_GetFileSizeEx        000000014009d190     kernel32:KERNEL32.dll
 0002:00000198       __imp_WaitForSingleObjectEx 000000014009d198     kernel32:KERNEL32.dll
 0002:000001a0       __imp_SwitchToThread       000000014009d1a0     kernel32:KERNEL32.dll
 0002:000001a8       __imp_GetExitCodeThread    000000014009d1a8     kernel32:KERNEL32.dll
 0002:000001b0       __imp_IsProcessorFeaturePresent 000000014009d1b0     kernel32:KERNEL32.dll
 0002:000001b8       __imp_GetCurrentDirectoryW 000000014009d1b8     kernel32:KERNEL32.dll
 0002:000001c0       __imp_CreateFileW          000000014009d1c0     kernel32:KERNEL32.dll
 0002:000001c8       __imp_FindClose            000000014009d1c8     kernel32:KERNEL32.dll
 0002:000001d0       __imp_FindFirstFileExW     000000014009d1d0     kernel32:KERNEL32.dll
 0002:000001d8       __imp_FindNextFileW        000000014009d1d8     kernel32:KERNEL32.dll
 0002:000001e0       __imp_AreFileApisANSI      000000014009d1e0     kernel32:KERNEL32.dll
 0002:000001e8       __imp_GetModuleHandleW     000000014009d1e8     kernel32:KERNEL32.dll
 0002:000001f0       __imp_GetProcAddress       000000014009d1f0     kernel32:KERNEL32.dll
 0002:000001f8       __imp_LocalFree            000000014009d1f8     kernel32:KERNEL32.dll
 0002:00000200       __imp_FormatMessageA       000000014009d200     kernel32:KERNEL32.dll
 0002:00000208       __imp_GetLocaleInfoEx      000000014009d208     kernel32:KERNEL32.dll
 0002:00000210       __imp_LeaveCriticalSection 000000014009d210     kernel32:KERNEL32.dll
 0002:00000218       __imp_InitializeCriticalSectionEx 000000014009d218     kernel32:KERNEL32.dll
 0002:00000220       __imp_DeleteCriticalSection 000000014009d220     kernel32:KERNEL32.dll
 0002:00000228       __imp_QueryPerformanceCounter 000000014009d228     kernel32:KERNEL32.dll
 0002:00000230       __imp_QueryPerformanceFrequency 000000014009d230     kernel32:KERNEL32.dll
 0002:00000238       __imp_ReleaseSRWLockExclusive 000000014009d238     kernel32:KERNEL32.dll
 0002:00000240       __imp_AcquireSRWLockExclusive 000000014009d240     kernel32:KERNEL32.dll
 0002:00000248       __imp_TryAcquireSRWLockExclusive 000000014009d248     kernel32:KERNEL32.dll
 0002:00000250       __imp_WakeAllConditionVariable 000000014009d250     kernel32:KERNEL32.dll
 0002:00000258       __imp_SleepConditionVariableSRW 000000014009d258     kernel32:KERNEL32.dll
 0002:00000260       __imp_EncodePointer        000000014009d260     kernel32:KERNEL32.dll
 0002:00000268       __imp_DecodePointer        000000014009d268     kernel32:KERNEL32.dll
 0002:00000270       __imp_CreateEventExW       000000014009d270     kernel32:KERNEL32.dll
 0002:00000278       __imp_CreateSemaphoreExW   000000014009d278     kernel32:KERNEL32.dll
 0002:00000280       __imp_FlushProcessWriteBuffers 000000014009d280     kernel32:KERNEL32.dll
 0002:00000288       __imp_GetSystemTimeAsFileTime 000000014009d288     kernel32:KERNEL32.dll
 0002:00000290       __imp_GetTickCount64       000000014009d290     kernel32:KERNEL32.dll
 0002:00000298       __imp_FreeLibraryWhenCallbackReturns 000000014009d298     kernel32:KERNEL32.dll
 0002:000002a0       __imp_CreateThreadpoolTimer 000000014009d2a0     kernel32:KERNEL32.dll
 0002:000002a8       __imp_SetThreadpoolTimer   000000014009d2a8     kernel32:KERNEL32.dll
 0002:000002b0       __imp_WaitForThreadpoolTimerCallbacks 000000014009d2b0     kernel32:KERNEL32.dll
 0002:000002b8       __imp_CloseThreadpoolTimer 000000014009d2b8     kernel32:KERNEL32.dll
 0002:000002c0       __imp_CreateThreadpoolWait 000000014009d2c0     kernel32:KERNEL32.dll
 0002:000002c8       __imp_SetThreadpoolWait    000000014009d2c8     kernel32:KERNEL32.dll
 0002:000002d0       __imp_CloseThreadpoolWait  000000014009d2d0     kernel32:KERNEL32.dll
 0002:000002d8       __imp_GetStringTypeW       000000014009d2d8     kernel32:KERNEL32.dll
 0002:000002e0       __imp_GetCPInfo            000000014009d2e0     kernel32:KERNEL32.dll
 0002:000002e8       __imp_GetCurrentThread     000000014009d2e8     kernel32:KERNEL32.dll
 0002:000002f0       __imp_GetThreadTimes       000000014009d2f0     kernel32:KERNEL32.dll
 0002:000002f8       __imp_FreeLibrary          000000014009d2f8     kernel32:KERNEL32.dll
 0002:00000300       __imp_FreeLibraryAndExitThread 000000014009d300     kernel32:KERNEL32.dll
 0002:00000308       __imp_GetModuleFileNameW   000000014009d308     kernel32:KERNEL32.dll
 0002:00000310       __imp_LoadLibraryExW       000000014009d310     kernel32:KERNEL32.dll
 0002:00000318       __imp_InterlockedPopEntrySList 000000014009d318     kernel32:KERNEL32.dll
 0002:00000320       __imp_InterlockedPushEntrySList 000000014009d320     kernel32:KERNEL32.dll
 0002:00000328       __imp_InterlockedFlushSList 000000014009d328     kernel32:KERNEL32.dll
 0002:00000330       __imp_QueryDepthSList      000000014009d330     kernel32:KERNEL32.dll
 0002:00000338       __imp_SetLastError         000000014009d338     kernel32:KERNEL32.dll
 0002:00000340       __imp_LoadLibraryW         000000014009d340     kernel32:KERNEL32.dll
 0002:00000348       __imp_SetEvent             000000014009d348     kernel32:KERNEL32.dll
 0002:00000350       __imp_SignalObjectAndWait  000000014009d350     kernel32:KERNEL32.dll
 0002:00000358       __imp_SetThreadPriority    000000014009d358     kernel32:KERNEL32.dll
 0002:00000360       __imp_GetThreadPriority    000000014009d360     kernel32:KERNEL32.dll
 0002:00000368       __imp_TlsAlloc             000000014009d368     kernel32:KERNEL32.dll
 0002:00000370       __imp_TlsGetValue          000000014009d370     kernel32:KERNEL32.dll
 0002:00000378       __imp_TlsSetValue          000000014009d378     kernel32:KERNEL32.dll
 0002:00000380       __imp_TlsFree              000000014009d380     kernel32:KERNEL32.dll
 0002:00000388       __imp_GetCurrentProcessorNumberEx 000000014009d388     kernel32:KERNEL32.dll
 0002:00000390       __imp_GetLogicalProcessorInformationEx 000000014009d390     kernel32:KERNEL32.dll
 0002:00000398       __imp_GetNumaHighestNodeNumber 000000014009d398     kernel32:KERNEL32.dll
 0002:000003a0       __imp_GetThreadGroupAffinity 000000014009d3a0     kernel32:KERNEL32.dll
 0002:000003a8       __imp_SetThreadGroupAffinity 000000014009d3a8     kernel32:KERNEL32.dll
 0002:000003b0       __imp_DuplicateHandle      000000014009d3b0     kernel32:KERNEL32.dll
 0002:000003b8       __imp_ReleaseSemaphore     000000014009d3b8     kernel32:KERNEL32.dll
 0002:000003c0       __imp_InitializeSListHead  000000014009d3c0     kernel32:KERNEL32.dll
 0002:000003c8       __imp_VerSetConditionMask  000000014009d3c8     kernel32:KERNEL32.dll
 0002:000003d0       __imp_VirtualFree          000000014009d3d0     kernel32:KERNEL32.dll
 0002:000003d8       __imp_GetProcessAffinityMask 000000014009d3d8     kernel32:KERNEL32.dll
 0002:000003e0       __imp_VerifyVersionInfoW   000000014009d3e0     kernel32:KERNEL32.dll
 0002:000003e8       __imp_RtlCaptureContext    000000014009d3e8     kernel32:KERNEL32.dll
 0002:000003f0       __imp_RtlLookupFunctionEntry 000000014009d3f0     kernel32:KERNEL32.dll
 0002:000003f8       __imp_RtlVirtualUnwind     000000014009d3f8     kernel32:KERNEL32.dll
 0002:00000400       __imp_IsDebuggerPresent    000000014009d400     kernel32:KERNEL32.dll
 0002:00000408       __imp_UnhandledExceptionFilter 000000014009d408     kernel32:KERNEL32.dll
 0002:00000410       __imp_GetStartupInfoW      000000014009d410     kernel32:KERNEL32.dll
 0002:00000418       __imp_TerminateProcess     000000014009d418     kernel32:KERNEL32.dll
 0002:00000420       __imp_RtlPcToFileHeader    000000014009d420     kernel32:KERNEL32.dll
 0002:00000428       __imp_RaiseException       000000014009d428     kernel32:KERNEL32.dll
 0002:00000430       __imp_RtlUnwindEx          000000014009d430     kernel32:KERNEL32.dll
 0002:00000438       __imp_InitializeCriticalSectionAndSpinCount 000000014009d438     kernel32:KERNEL32.dll
 0002:00000440       __imp_ReadFile             000000014009d440     kernel32:KERNEL32.dll
 0002:00000448       __imp_ExitThread           000000014009d448     kernel32:KERNEL32.dll
 0002:00000450       __imp_GetModuleHandleExW   000000014009d450     kernel32:KERNEL32.dll
 0002:00000458       __imp_GetStdHandle         000000014009d458     kernel32:KERNEL32.dll
 0002:00000460       __imp_WriteFile            000000014009d460     kernel32:KERNEL32.dll
 0002:00000468       __imp_GetCommandLineW      000000014009d468     kernel32:KERNEL32.dll
 0002:00000470       __imp_HeapAlloc            000000014009d470     kernel32:KERNEL32.dll
 0002:00000478       __imp_HeapFree             000000014009d478     kernel32:KERNEL32.dll
 0002:00000480       __imp_FlsAlloc             000000014009d480     kernel32:KERNEL32.dll
 0002:00000488       __imp_FlsGetValue          000000014009d488     kernel32:KERNEL32.dll
 0002:00000490       __imp_FlsSetValue          000000014009d490     kernel32:KERNEL32.dll
 0002:00000498       __imp_FlsFree              000000014009d498     kernel32:KERNEL32.dll
 0002:000004a0       __imp_VirtualProtect       000000014009d4a0     kernel32:KERNEL32.dll
 0002:000004a8       __imp_CompareStringW       000000014009d4a8     kernel32:KERNEL32.dll
 0002:000004b0       __imp_LCMapStringW         000000014009d4b0     kernel32:KERNEL32.dll
 0002:000004b8       __imp_GetLocaleInfoW       000000014009d4b8     kernel32:KERNEL32.dll
 0002:000004c0       __imp_IsValidLocale        000000014009d4c0     kernel32:KERNEL32.dll
 0002:000004c8       __imp_GetUserDefaultLCID   000000014009d4c8     kernel32:KERNEL32.dll
 0002:000004d0       __imp_EnumSystemLocalesW   000000014009d4d0     kernel32:KERNEL32.dll
 0002:000004d8       __imp_GetFileType          000000014009d4d8     kernel32:KERNEL32.dll
 0002:000004e0       __imp_SetFilePointerEx     000000014009d4e0     kernel32:KERNEL32.dll
 0002:000004e8       __imp_GetConsoleMode       000000014009d4e8     kernel32:KERNEL32.dll
 0002:000004f0       __imp_ReadConsoleW         000000014009d4f0     kernel32:KERNEL32.dll
 0002:000004f8       __imp_GetConsoleOutputCP   000000014009d4f8     kernel32:KERNEL32.dll
 0002:00000500       \177KERNEL32_NULL_THUNK_DATA 000000014009d500     kernel32:KERNEL32.dll
 0002:00000508       __imp_GetDesktopWindow     000000014009d508     user32:USER32.dll
 0002:00000510       __imp_GetWindowRect        000000014009d510     user32:USER32.dll
 0002:00000518       __imp_SetWindowTextA       000000014009d518     user32:USER32.dll
 0002:00000520       __imp_GetSystemMetrics     000000014009d520     user32:USER32.dll
 0002:00000528       __imp_DialogBoxParamA      000000014009d528     user32:USER32.dll
 0002:00000530       __imp_SystemParametersInfoA 000000014009d530     user32:USER32.dll
 0002:00000538       __imp_SetFocus             000000014009d538     user32:USER32.dll
 0002:00000540       __imp_GetDlgItem           000000014009d540     user32:USER32.dll
 0002:00000548       __imp_EndDialog            000000014009d548     user32:USER32.dll
 0002:00000550       __imp_DialogBoxIndirectParamA 000000014009d550     user32:USER32.dll
 0002:00000558       __imp_SetWindowPos         000000014009d558     user32:USER32.dll
 0002:00000560       __imp_SendMessageA         000000014009d560     user32:USER32.dll
 0002:00000568       \177USER32_NULL_THUNK_DATA 000000014009d568     user32:USER32.dll
 0002:00000570       __imp_UnDecorateSymbolName 000000014009d570     Dbghelp:dbghelp.dll
 0002:00000578       __imp_MiniDumpWriteDump    000000014009d578     Dbghelp:dbghelp.dll
 0002:00000580       \177dbghelp_NULL_THUNK_DATA 000000014009d580     Dbghelp:dbghelp.dll
 0002:00000588       __guard_check_icall_fptr   000000014009d588     LIBCMT:guard_support.obj
 0002:00000590       __guard_xfg_check_icall_fptr 000000014009d590     LIBCMT:guard_support.obj
 0002:00000598       __guard_dispatch_icall_fptr 000000014009d598     LIBCMT:guard_support.obj
 0002:000005a0       __guard_xfg_dispatch_icall_fptr 000000014009d5a0     LIBCMT:guard_support.obj
 0002:000005a8       __guard_xfg_table_dispatch_icall_fptr 000000014009d5a8     LIBCMT:guard_support.obj
 0002:000005b0       __castguard_check_failure_os_handled_fptr 000000014009d5b0     LIBCMT:guard_support.obj
 0002:000005b8       __guard_memcpy_fptr        000000014009d5b8     libvcruntime:softmemtag.obj
 0002:000005c0       __xc_a                     000000014009d5c0     LIBCMT:initializers.obj
 0002:00000638       __xc_z                     000000014009d638     LIBCMT:initializers.obj
 0002:00000640       __xi_a                     000000014009d640     LIBCMT:initializers.obj
 0002:00000660       __acrt_stdio_initializer   000000014009d660     libucrt:stdio_initializer.obj
 0002:00000668       __acrt_clock_initializer   000000014009d668     libucrt:clock_initializer.obj
 0002:00000670       __acrt_timeset_initializer 000000014009d670     libucrt:timeset_initializer.obj
 0002:00000678       __acrt_tran_fma3_initializer 000000014009d678     libucrt:fma3_initializer.obj
 0002:00000680       __acrt_multibyte_initializer 000000014009d680     libucrt:multibyte_initializer.obj
 0002:00000688       __acrt_fmode_initializer   000000014009d688     libucrt:fmode_initializer.obj
 0002:00000690       __xi_z                     000000014009d690     LIBCMT:initializers.obj
 0002:00000698       __xp_a                     000000014009d698     LIBCMT:initializers.obj
 0002:000006a8       __acrt_locale_terminator   000000014009d6a8     libucrt:locale_initializer.obj
 0002:000006b0       __dcrt_console_output_terminator 000000014009d6b0     libucrt:console_output_initializer.obj
 0002:000006b8       __acrt_stdio_terminator    000000014009d6b8     libucrt:stdio_initializer.obj
 0002:000006c0       __xp_z                     000000014009d6c0     LIBCMT:initializers.obj
 0002:000006c8       __xt_a                     000000014009d6c8     LIBCMT:initializers.obj
 0002:000006d0       __xt_z                     000000014009d6d0     LIBCMT:initializers.obj
 0002:000006e0       ??_C@_0BC@EOODALEL@Unknown?5exception@ 000000014009d6e0     Crinkler.obj
 0002:000006f8       ??_C@_0P@GHFPNOJB@bad?5allocation@ 000000014009d6f8     Crinkler.obj
 0002:00000708       ??_C@_0BF@KINCDENJ@bad?5array?5new?5length@ 000000014009d708     Crinkler.obj
 0002:00000720       ??_C@_0BB@GCADKGJO@map?1set?5too?5long@ 000000014009d720     Crinkler.obj
 0002:00000738       ??_C@_0BA@JFNIOLAK@string?5too?5long@ 000000014009d738     Crinkler.obj
 0002:00000748       ??_C@_08EPJLHIJG@bad?5cast@ 000000014009d748     Crinkler.obj
 0002:00000758       ??_7ProgressBar@@6B@       000000014009d758     Crinkler.obj
 0002:00000788       ??_7ConsoleProgressBar@@6B@ 000000014009d788     Crinkler.obj
 0002:000007b8       ??_7WindowProgressBar@@6B@ 000000014009d7b8     Crinkler.obj
 0002:000007e8       ??_7CompositeProgressBar@@6B@ 000000014009d7e8     Crinkler.obj
 0002:00000818       ??_C@_03MPPIHBHJ@OFF@      000000014009d818     Crinkler.obj
 0002:00000820       ??_C@_07MIDFMCAP@NOTHING@  000000014009d820     Crinkler.obj
 0002:00000828       ??_C@_05LMAHGIIA@PARTS@    000000014009d828     Crinkler.obj
 0002:00000830       ??_C@_08KMKOKDGA@SECTIONS@ 000000014009d830     Crinkler.obj
 0002:0000083c       ??_C@_06FAOOKADE@MODELS@   000000014009d83c     Crinkler.obj
 0002:00000844       ??_C@_03NIFPGLBG@ALL@      000000014009d844     Crinkler.obj
 0002:00000848       ??_C@_00CNPNBAHC@@         000000014009d848     Crinkler.obj
 0002:00000850       ??_7_UnrealizedChore@details@Concurrency@@6B@ 000000014009d850     Crinkler.obj
 0002:00000860       ?_Grapheme_Break_property_data@std@@3U?$_Unicode_property_data@W4_Grapheme_Break_property_values@std@@$0FFL@$0A@@1@B 000000014009d860     Crinkler.obj
 0002:00002890       ?_Extended_Pictographic_property_data@std@@3U?$_Unicode_property_data@W4_Extended_Pictographic_property_values@std@@$0EO@$00@1@B 000000014009f890     Crinkler.obj
 0002:00002a70       ?_Width_estimate_intervals_v2@std@@3QB_UB 000000014009fa70     Crinkler.obj
 0002:00002d98       ??_C@_0BA@ELKIONDK@bad?5locale?5name@ 000000014009fd98     Crinkler.obj
 0002:00002da8       ??_C@_05LAPONLG@false@     000000014009fda8     Crinkler.obj
 0002:00002db0       ??_C@_04LOAJBDKD@true@     000000014009fdb0     Crinkler.obj
 0002:00002db8       ??_7format_error@std@@6B@  000000014009fdb8     Crinkler.obj
 0002:00002dd0       ??$__DIGIT_TABLE@D@std@@3QBDB 000000014009fdd0     Crinkler.obj
 0002:00002ea0       ?__POW10_OFFSET@std@@3QBGB 000000014009fea0     Crinkler.obj
 0002:00002f20       ?__POW10_OFFSET_2@std@@3QBGB 000000014009ff20     Crinkler.obj
 0002:00002fb0       ?__MIN_BLOCK_2@std@@3QBEB  000000014009ffb0     Crinkler.obj
 0002:00003000       ?__FLOAT_POW5_INV_SPLIT@std@@3QB_KB 00000001400a0000     Crinkler.obj
 0002:00003100       ?__FLOAT_POW5_SPLIT@std@@3QB_KB 00000001400a0100     Crinkler.obj
 0002:00003278       ?_Charconv_digits@std@@3QBDB 00000001400a0278     Crinkler.obj
 0002:000032a0       ??_C@_0EO@IIGPOHCI@?6label?5name?5?5?5?5?5?5?5?5?5?5?5?5?5?5?5?5?5?5?5?5@ 00000001400a02a0     Crinkler.obj
 0002:000032f0       ??_C@_09GCOFNFBD@?6?$CF?938?438s@ 00000001400a02f0     Crinkler.obj
 0002:00003300       ??_C@_0L@EJPFMDN@?5?5?$CF?936?436s@ 00000001400a0300     Crinkler.obj
 0002:00003310       ??_C@_0N@IFGPEODL@?5?5?5?5?$CF?934?434s@ 00000001400a0310     Crinkler.obj
 0002:00003320       ??_C@_0P@MKLNNCLH@?5?5?5?5?5?5?$CF?932?432s@ 00000001400a0320     Crinkler.obj
 0002:00003330       ??_C@_0BG@KFLHGOHD@?5?$CF9d?5?$CF8?42f?5?$CF9d?5?$CF8?42f?6@ 00000001400a0330     Crinkler.obj
 0002:00003348       ??_C@_0BD@KKHBGNDD@?5?$CF9d?5?5?5?5?5?5?5?5?5?5?$CF9d?6@ 00000001400a0348     Crinkler.obj
 0002:00003360       ??_C@_0DD@LEHFPLCL@Input?5file?5is?5not?5a?5Crinkler?5co@ 00000001400a0360     Crinkler.obj
 0002:00003398       ??_C@_0DC@IODJPMBD@No?5functions?5were?5imported?5from@ 00000001400a0398     Crinkler.obj
 0002:000033d0       ??_C@_0BG@DDBEBGFF@Unsupported?5file?5type@ 00000001400a03d0     Crinkler.obj
 0002:000033e8       ??_C@_06HOGKBANE@__imp_@   00000001400a03e8     Crinkler.obj
 0002:000033f0       ??_C@_06EGGDDPIF@msvcrt@   00000001400a03f0     Crinkler.obj
 0002:000033f8       ??_C@_07OKPPBOMK@runtime@  00000001400a03f8     Crinkler.obj
 0002:00003400       ??_C@_0P@IFCHICC@mainCRTStartup@ 00000001400a0400     Crinkler.obj
 0002:00003410       ??_C@_0BC@EOMPAEPF@WinMainCRTStartup@ 00000001400a0410     Crinkler.obj
 0002:00003428       ??_C@_0DG@PPIGIGJC@Cannot?5find?5entry?5point?5?8?$CFs?8?4?5S@ 00000001400a0428     Crinkler.obj
 0002:00003460       ??_C@_0DE@MIMMHEBG@Entry?5point?5not?5at?5start?5of?5sec@ 00000001400a0460     Crinkler.obj
 0002:000034a0       ??_C@_0EF@MFKDHEAK@Cannot?5create?5integer?5symbol?5?8?$CF@ 00000001400a04a0     Crinkler.obj
 0002:000034f0       ??_C@_0FA@JCIGHBGI@Uninitialized?5hunk?5?8?$CFs?8?5forced?5@ 00000001400a04f0     Crinkler.obj
 0002:00003540       ??_C@_0DI@CNEFPJKN@Cannot?5find?5symbol?5?8?$CFs?8?5to?5be?5e@ 00000001400a0540     Crinkler.obj
 0002:00003578       ??_C@_0BG@CEHDACLH@__imp__LoadLibraryA?$EA4@ 00000001400a0578     Crinkler.obj
 0002:00003590       ??_C@_0BG@OOEFHEAN@__imp__MessageBoxA?$EA16@ 00000001400a0590     Crinkler.obj
 0002:000035a8       ??_C@_0BG@HEPCMGPN@__DynamicInitializers@ 00000001400a05a8     Crinkler.obj
 0002:000035c0       ??_C@_0BA@FDKAKDDE@Crinkler?5import@ 00000001400a05c0     Crinkler.obj
 0002:000035d0       ??_C@_0DC@FIIPFMOE@DLL?5fallback?5cannot?5be?5used?5wit@ 00000001400a05d0     Crinkler.obj
 0002:00003604       ??_C@_06FEMFHOOG@models@   00000001400a0604     Crinkler.obj
 0002:00003610       ??_C@_07OPDAKGAH@_Models@  00000001400a0610     Crinkler.obj
 0002:00003618       ??_C@_0BL@IFJFKOOO@Optimizing?5hash?5table?5size@ 00000001400a0618     Crinkler.obj
 0002:00003638       ??_C@_0BE@GNEDJFBJ@Reestimating?5models@ 00000001400a0638     Crinkler.obj
 0002:00003650       ??_C@_0BC@BCDNBDNA@Estimating?5models@ 00000001400a0650     Crinkler.obj
 0002:00003668       ??_C@_0CC@KFFHMKOA@?6Estimated?5compressed?5size?3?5?$CF?42@ 00000001400a0668     Crinkler.obj
 0002:00003690       ??_C@_0N@HMPKBJOB@Reestimating@ 00000001400a0690     Crinkler.obj
 0002:000036a0       ??_C@_0L@EHLCPIHK@Estimating@ 00000001400a06a0     Crinkler.obj
 0002:000036b0       ??_C@_0BB@HJPGHLBC@?$CFs?5models?5for?5?$CFs@ 00000001400a06b0     Crinkler.obj
 0002:000036c8       ??_C@_08IBBAJKND@Models?3?5@ 00000001400a06c8     Crinkler.obj
 0002:000036d8       ??_C@_0CH@DNLMFIDK@Estimated?5compressed?5size?5of?5?$CFs@ 00000001400a06d8     Crinkler.obj
 0002:00003708       ??_C@_0N@MGHBILEJ@_SaturatePtr@ 00000001400a0708     Crinkler.obj
 0002:00003718       ??_C@_0BE@NNIAIJGH@_SaturateAdjust1Ptr@ 00000001400a0718     Crinkler.obj
 0002:00003730       ??_C@_0BE@JKCAPDLH@_SaturateAdjust2Ptr@ 00000001400a0730     Crinkler.obj
 0002:00003748       ??_C@_0O@OJGJCEJN@_UnpackedData@ 00000001400a0748     Crinkler.obj
 0002:00003758       ??_C@_0L@FFEALDGL@_ImageBase@ 00000001400a0758     Crinkler.obj
 0002:00003768       ??_C@_0BC@PHINPHPA@_SubsystemTypePtr@ 00000001400a0768     Crinkler.obj
 0002:00003780       ??_C@_0BC@HOOJKFJG@_LinkerVersionPtr@ 00000001400a0780     Crinkler.obj
 0002:00003798       ??_C@_0BE@OLEHLOAM@_CharacteristicsPtr@ 00000001400a0798     Crinkler.obj
 0002:000037b0       ??_C@_0BI@GHKIELLA@_VirtualSizeHighBytePtr@ 00000001400a07b0     Crinkler.obj
 0002:000037c8       ??_C@_0L@JGPOMPEN@_ModelMask@ 00000001400a07c8     Crinkler.obj
 0002:000037d8       ??_C@_0O@JBGLDBBJ@_BaseProbPtr0@ 00000001400a07d8     Crinkler.obj
 0002:000037e8       ??_C@_0O@IIHAAAFI@_BaseProbPtr1@ 00000001400a07e8     Crinkler.obj
 0002:000037f8       ??_C@_0BA@LINMPMMD@_BoostFactorPtr@ 00000001400a07f8     Crinkler.obj
 0002:00003808       ??_C@_0BG@DHCAILAC@_DepackEndPositionPtr@ 00000001400a0808     Crinkler.obj
 0002:00003820       ??_C@_0P@OPAMMGEP@_HashTableSize@ 00000001400a0820     Crinkler.obj
 0002:00003830       ??_C@_0N@LHGLKDGG@_VirtualSize@ 00000001400a0830     Crinkler.obj
 0002:00003840       ??_C@_0N@CJIELOOC@_BaseProbPtr@ 00000001400a0840     Crinkler.obj
 0002:00003850       ??_C@_0O@JDOFCFPM@_ModelSkipPtr@ 00000001400a0850     Crinkler.obj
 0002:00003860       ??_C@_0BD@ILPGCFPF@_ExportTableRVAPtr@ 00000001400a0860     Crinkler.obj
 0002:00003878       ??_C@_0BM@MAJEAMPE@_NumberOfDataDirectoriesPtr@ 00000001400a0878     Crinkler.obj
 0002:00003898       ??_C@_0N@ICHFCMMK@_SpareNopPtr@ 00000001400a0898     Crinkler.obj
 0002:000038b0       ??_C@_0N@MEMPKFID@?$CFs?5size?3?5?$CFd?6@ 00000001400a08b0     Crinkler.obj
 0002:00003910       ??_C@_0BO@CHPKKLLL@Part?5?8?$CFs?8?5is?5larger?5than?564k?4@ 00000001400a0910     Crinkler.obj
 0002:00003930       ??_C@_02GMLFBBN@wb@        00000001400a0930     Crinkler.obj
 0002:00003938       ??_C@_0BN@MCNEOMMD@Cannot?5open?5?8?$CFs?8?5for?5writing@ 00000001400a0938     Crinkler.obj
 0002:00003960       ??_C@_0FI@NJAHGNDF@File?5compressed?5using?5a?5pre?91?44@ 00000001400a0960     Crinkler.obj
 0002:000039b8       ??_C@_0DO@FOPHLFC@File?5compressed?5or?5recompressed@ 00000001400a09b8     Crinkler.obj
 0002:00003a00       ??_C@_0EI@DEFEKIEP@Only?5files?5compressed?5using?5Cri@ 00000001400a0a00     Crinkler.obj
 0002:00003a48       ??_C@_06NKLGLLAF@Part?$CFd@ 00000001400a0a48     Crinkler.obj
 0002:00003a50       ??_C@_04BCJPDBDA@Code@     00000001400a0a50     Crinkler.obj
 0002:00003a58       ??_C@_04DICKPMGH@Data@     00000001400a0a58     Crinkler.obj
 0002:00003a60       ??_C@_0BI@OKGMBMBC@Original?5file?5size?3?5?$CFd?6@ 00000001400a0a60     Crinkler.obj
 0002:00003a78       ??_C@_03IPHJCBHH@YES@      00000001400a0a78     Crinkler.obj
 0002:00003a7c       ??_C@_02NFLNFON@NO@        00000001400a0a7c     Crinkler.obj
 0002:00003a80       ??_C@_0BK@PBNIFJCJ@Original?5Tiny?5Header?3?5?$CFs?6@ 00000001400a0a80     Crinkler.obj
 0002:00003aa0       ??_C@_0BL@POODLHIC@Original?5Virtual?5size?3?5?$CFd?6@ 00000001400a0aa0     Crinkler.obj
 0002:00003ac0       ??_C@_07PCJELJIA@CONSOLE@  00000001400a0ac0     Crinkler.obj
 0002:00003ac8       ??_C@_07LHJOABLP@WINDOWS@  00000001400a0ac8     Crinkler.obj
 0002:00003ad0       ??_C@_0BN@INIKNHFJ@Original?5Subsystem?5type?3?5?$CFs?6@ 00000001400a0ad0     Crinkler.obj
 0002:00003af0       ??_C@_0CC@JOKGDBN@Original?5Large?5address?5aware?3?5?$CF@ 00000001400a0af0     Crinkler.obj
 0002:00003b18       ??_C@_07HIMJODOE@INSTANT@  00000001400a0b18     Crinkler.obj
 0002:00003b20       ??_C@_09JMLMCKLI@FAST?1SLOW@ 00000001400a0b20     Crinkler.obj
 0002:00003b30       ??_C@_0BD@HHJOLBIO@FAST?1SLOW?1VERYSLOW@ 00000001400a0b30     Crinkler.obj
 0002:00003b48       ??_C@_0BP@PHKHPGPG@Original?5Compression?5mode?3?5?$CFs?6@ 00000001400a0b48     Crinkler.obj
 0002:00003b68       ??_C@_0CA@OGCPPCPK@Original?5Saturate?5counters?3?5?$CFs?6@ 00000001400a0b68     Crinkler.obj
 0002:00003b88       ??_C@_0BI@LBFLFGMO@Original?5Hash?5size?3?5?$CFd?6@ 00000001400a0b88     Crinkler.obj
 0002:00003ba0       ??_C@_0BA@NNKFBPCH@Total?5size?3?5?$CFd?6@ 00000001400a0ba0     Crinkler.obj
 0002:00003bb0       ??_C@_01EEMJAFIK@?6@       00000001400a0bb0     Crinkler.obj
 0002:00003bb8       ??_C@_0CI@KPJIGMFP@Failed?5to?5write?5to?5temporary?5fi@ 00000001400a0bb8     Crinkler.obj
 0002:00003be0       ??_C@_0EI@NCGMDOCI@Program?5was?5been?5unresponsive?5f@ 00000001400a0be0     Crinkler.obj
 0002:00003c28       ??_C@_0BP@LNKNKJE@Failed?5to?5read?5process?5memory?6@ 00000001400a0c28     Crinkler.obj
 0002:00003c48       ??_C@_0DA@NFHCLMBL@Call?5transformation?5code?5succes@ 00000001400a0c48     Crinkler.obj
 0002:00003c78       ??_C@_0DC@MHPCDMEN@Call?5transformation?5code?5does?5n@ 00000001400a0c78     Crinkler.obj
 0002:00003cb0       ??_C@_0CD@ICCCFOGO@Import?5code?5successfully?5patche@ 00000001400a0cb0     Crinkler.obj
 0002:00003cd8       ??_C@_0CF@NLLOGFPK@Import?5code?5does?5not?5need?5patch@ 00000001400a0cd8     Crinkler.obj
 0002:00003d00       ??_C@_0CG@HODDPGIK@Cannot?5find?5old?5import?5code?5to?5@ 00000001400a0d00     Crinkler.obj
 0002:00003d28       ??_C@_06OENKJGA@Header@    00000001400a0d28     Crinkler.obj
 0002:00003d30       ??_C@_0BA@MLAJHKNA@crinkler?5header@ 00000001400a0d30     Crinkler.obj
 0002:00003d40       ??_C@_07LFLIHBIB@_header@  00000001400a0d40     Crinkler.obj
 0002:00003d48       ??_C@_0N@JCFBFJEN@_DepackEntry@ 00000001400a0d48     Crinkler.obj
 0002:00003d58       ??_C@_06IENGEGME@linked@   00000001400a0d58     Crinkler.obj
 0002:00003d60       ??_C@_0BC@MDEKNPLM@Original?5Exports?3@ 00000001400a0d60     Crinkler.obj
 0002:00003d74       ??_C@_06LFKKDFDG@?5NONE?6@ 00000001400a0d74     Crinkler.obj
 0002:00003d80       ??_C@_0BD@POLNKHED@Resulting?5Exports?3@ 00000001400a0d80     Crinkler.obj
 0002:00003d98       ??_C@_0BD@DOBHADI@?6Recompressing?4?4?4?6@ 00000001400a0d98     Crinkler.obj
 0002:00003db0       ??_C@_0CA@LJCOCBA@Real?5compressed?5total?5size?3?5?$CFd?6@ 00000001400a0db0     Crinkler.obj
 0002:00003dd0       ??_C@_0DM@LILMGLD@Real?5compressed?5total?5size?3?5?$CFd?6@ 00000001400a0dd0     Crinkler.obj
 0002:00003e10       ??_C@_08KJPILKIK@HashHunk@ 00000001400a0e10     Crinkler.obj
 0002:00003e20       ??_C@_0BC@PJLJMEGM@?6Output?5file?3?5?$CFs?6@ 00000001400a0e20     Crinkler.obj
 0002:00003e38       ??_C@_0BG@GMCEEDPD@Final?5file?5size?3?5?$CFd?6?6@ 00000001400a0e38     Crinkler.obj
 0002:00003e50       ??_C@_07JBHCGDOG@CRT$XCU@  00000001400a0e50     Crinkler.obj
 0002:00003e58       ??_C@_0BK@HIDPJJNF@dynamic?5initializer?5calls@ 00000001400a0e58     Crinkler.obj
 0002:00003e74       ??_C@_01LKDEMHDF@s@        00000001400a0e74     Crinkler.obj
 0002:00003e78       ??_C@_0CF@POMNDHLE@?6Included?5?$CFd?5dynamic?5initialize@ 00000001400a0e78     Crinkler.obj
 0002:00003ea0       ??_C@_0BE@NPKLNCDJ@Part?5?8?$CFs?8?5is?5empty?4@ 00000001400a0ea0     Crinkler.obj
 0002:00003eb4       ??_C@_03DKEJHHJP@?$CFs?3@  00000001400a0eb4     Crinkler.obj
 0002:00003eb8       ??_C@_0CA@POHDLCKM@?6Uncompressed?5size?5of?5?$CF?9?$CKs?5?$CF10d@ 00000001400a0eb8     Crinkler.obj
 0002:00003ee0       ??_C@_0EN@EJMEEKAJ@Part?5?8?$CFs?8?5is?5larger?5than?564k?4?5S@ 00000001400a0ee0     Crinkler.obj
 0002:00003f30       ??_C@_02JDPG@rb@           00000001400a0f30     Crinkler.obj
 0002:00003f38       ??_C@_0CI@HJBACJIM@Forced?5alignment?5of?5?$CFd?5code?5hun@ 00000001400a0f38     Crinkler.obj
 0002:00003f60       ??_C@_0BJ@EIILJABG@?5?$CIincluding?5entry?5point?$CJ@ 00000001400a0f60     Crinkler.obj
 0002:00003f7c       ??_C@_02MIICKFIN@?4?6@     00000001400a0f7c     Crinkler.obj
 0002:00003f80       ??_C@_07PFJDOKIE@_Import@  00000001400a0f80     Crinkler.obj
 0002:00003f88       ??_C@_0N@FBKGGDDM@___ImageBase@ 00000001400a0f88     Crinkler.obj
 0002:00003f98       ??_C@_0O@KPKOFKBN@_HashShiftPtr@ 00000001400a0f98     Crinkler.obj
 0002:00003fa8       ??_C@_0BC@IAIHMGGJ@_MaxNameLengthPtr@ 00000001400a0fa8     Crinkler.obj
 0002:00003fc0       ??_C@_0BF@CBKPDHJG@?6Truncating?5floats?3?6@ 00000001400a0fc0     Crinkler.obj
 0002:00003fd8       ??_C@_0BG@LKKDCDLE@?6Read?5reuse?5file?3?5?$CFs?6@ 00000001400a0fd8     Crinkler.obj
 0002:00003ff0       ??_C@_0BK@PFFKFBHM@?6Selected?5reuse?5mode?3?5?$CFs?6@ 00000001400a0ff0     Crinkler.obj
 0002:00004010       ??_C@_0BF@KCEFILFM@Total?5text?5size?3?5?$CFd?6@ 00000001400a1010     Crinkler.obj
 0002:00004028       ??_C@_04OJAHODMC@Text@     00000001400a1028     Crinkler.obj
 0002:00004030       ??_C@_0O@HNBJOJF@_HeaderHashes@ 00000001400a1030     Crinkler.obj
 0002:00004040       ??_C@_0CJ@NLPNCFIN@?6File?5size?5with?5reuse?5configura@ 00000001400a1040     Crinkler.obj
 0002:00004070       ??_C@_0BI@FCFMOAJL@Writing?5reuse?5file?3?5?$CFs?6@ 00000001400a1070     Crinkler.obj
 0002:00004088       ??_C@_0BM@FCHBMHDD@Overwriting?5reuse?5file?3?5?$CFs?6@ 00000001400a1088     Crinkler.obj
 0002:000040a8       ??_C@_0P@PNPOMFP@File?5size?3?5?$CFd?6@ 00000001400a10a8     Crinkler.obj
 0002:000040b8       ??_C@_0CD@PDAEFAGN@Reverting?5to?5reuse?5configuratio@ 00000001400a10b8     Crinkler.obj
 0002:000040e0       ??_C@_0BJ@DPGLFJGN@Updating?5reuse?5file?3?5?$CFs?6@ 00000001400a10e0     Crinkler.obj
 0002:00004100       ??_C@_0BI@BGOMJCBO@Keeping?5reuse?5file?3?5?$CFs?6@ 00000001400a1100     Crinkler.obj
 0002:00004118       ??_C@_0BE@DENNAEKC@Final?5file?5size?3?5?$CFd@ 00000001400a1118     Crinkler.obj
 0002:00004130       ??_C@_0BE@PMPKMAM@?5?$CIprevious?5size?5?$CFd?$CJ@ 00000001400a1130     Crinkler.obj
 0002:00004148       ??_C@_0N@FCELNGHN@?5?$CIno?5change?$CJ@ 00000001400a1148     Crinkler.obj
 0002:00004158       ??_C@_02PHMGELLB@?6?6@     00000001400a1158     Crinkler.obj
 0002:00004160       ??_C@_0FD@EJBLHGJD@Output?5file?5too?5big?4?5Crinkler?5d@ 00000001400a1160     Crinkler.obj
 0002:000041b8       ??_C@_0CD@DKJMFEJL@Ideal?5compressed?5size?5of?5?$CFs?3?5?$CF?4@ 00000001400a11b8     Crinkler.obj
 0002:000041e0       ??_C@_0CD@IJLCADMF@Ideal?5compressed?5total?5size?3?5?$CF?4@ 00000001400a11e0     Crinkler.obj
 0002:00004208       ??_C@_0BA@IJGCHEFD@compressed?5data@ 00000001400a1208     Crinkler.obj
 0002:00004218       ??_C@_0M@CPCNJFIA@_PackedData@ 00000001400a1218     Crinkler.obj
 0002:00004228       ??_C@_0L@NIOIKHIB@_HashTable@ 00000001400a1228     Crinkler.obj
 0002:00004234       ??_C@_05FPBGKCKL@final@    00000001400a1234     Crinkler.obj
 0002:00004240       ??_C@_0N@EKLEAHGF@_ExportTable@ 00000001400a1240     Crinkler.obj
 0002:00004250       ??_C@_0CA@EOADLFNL@Unmatched?5?8?$HN?8?5in?5format?5string?4@ 00000001400a1250     Crinkler.obj
 0002:00004270       ??_C@_0BH@MCHHCMKF@Invalid?5format?5string?4@ 00000001400a1270     Crinkler.obj
 0002:00004288       ??_C@_0BK@NMCHMIGI@Unknown?5format?5specifier?4@ 00000001400a1288     Crinkler.obj
 0002:000042a8       ??_C@_0BO@FFAGMLDI@Missing?5?8?$HN?8?5in?5format?5string?4@ 00000001400a12a8     Crinkler.obj
 0002:000042c8       ??_C@_0DB@GIGELLBG@Can?5not?5switch?5from?5manual?5to?5a@ 00000001400a12c8     Crinkler.obj
 0002:00004300       ??_C@_0BL@KNEDAEPA@invalid?5fill?5character?5?8?$HL?8@ 00000001400a1300     Crinkler.obj
 0002:00004320       ??_C@_0DH@FFGBOAOP@Format?5specifier?5requires?5numer@ 00000001400a1320     Crinkler.obj
 0002:00004358       ??_C@_0BC@JOAOKPFE@Number?5is?5too?5big@ 00000001400a1358     Crinkler.obj
 0002:00004370       ??_C@_0BM@ONFDPAFF@Invalid?5type?5specification?4@ 00000001400a1370     Crinkler.obj
 0002:00004390       ??_C@_0CE@OLPMMFCN@Invalid?5presentation?5type?5speci@ 00000001400a1390     Crinkler.obj
 0002:000043b8       ??_C@_0CD@PLBGEFIO@Invalid?5presentation?5type?5for?5b@ 00000001400a13b8     Crinkler.obj
 0002:000043e0       ??_C@_0CD@IFHOEGFC@Invalid?5presentation?5type?5for?5c@ 00000001400a13e0     Crinkler.obj
 0002:00004408       ??_C@_0CG@PIIJGCKO@Invalid?5presentation?5type?5for?5i@ 00000001400a1408     Crinkler.obj
 0002:00004430       ??_C@_0CN@EEOMCCM@Invalid?5presentation?5type?5for?5f@ 00000001400a1430     Crinkler.obj
 0002:00004460       ??_C@_0CF@MMFFCGKF@Invalid?5presentation?5type?5for?5s@ 00000001400a1460     Crinkler.obj
 0002:00004488       ??_C@_0CG@LHDOJLDP@Invalid?5presentation?5type?5for?5p@ 00000001400a1488     Crinkler.obj
 0002:000044b0       ??_C@_0DM@LDJDLGDF@Hash?1sign?5modifier?5requires?5an?5@ 00000001400a14b0     Crinkler.obj
 0002:000044f0       ??_C@_0EC@JCIMBFLB@Zero?5modifier?5requires?5an?5arith@ 00000001400a14f0     Crinkler.obj
 0002:00004538       ??_C@_0P@IHBBLECK@?5?1SUBSYSTEM?3?$HL?$HN@ 00000001400a1538     Crinkler.obj
 0002:00004548       ??_C@_0BE@HCHGHOKI@?5?1LARGEADDRESSAWARE@ 00000001400a1548     Crinkler.obj
 0002:00004560       ??_C@_0L@PKNMFOCD@?5?1ENTRY?3?$HL?$HN@ 00000001400a1560     Crinkler.obj
 0002:00004570       ??_C@_0N@HIOJGKBK@?5?1TINYHEADER@ 00000001400a1570     Crinkler.obj
 0002:00004580       ??_C@_0N@PHHPMIID@?5?1TINYIMPORT@ 00000001400a1580     Crinkler.obj
 0002:00004590       ??_C@_0O@DFNHPAEP@?5?1COMPMODE?3?$HL?$HN@ 00000001400a1590     Crinkler.obj
 0002:000045a0       ??_C@_0L@OEDOMGG@?5?1SATURATE@ 00000001400a15a0     Crinkler.obj
 0002:000045b0       ??_C@_0O@LHBFLLN@?5?1HASHSIZE?3?$HL?$HN@ 00000001400a15b0     Crinkler.obj
 0002:000045c0       ??_C@_0P@IPMLCJOA@?5?1HASHTRIES?3?$HL?$HN@ 00000001400a15c0     Crinkler.obj
 0002:000045d0       ??_C@_0BA@BLPNPONO@?5?1ORDERTRIES?3?$HL?$HN@ 00000001400a15d0     Crinkler.obj
 0002:000045e0       ??_C@_0L@NOPIEJBM@?5?1RANGE?3?$HL?$HN@ 00000001400a15e0     Crinkler.obj
 0002:000045f0       ??_C@_0BD@HKGPACGO@?5?1REPLACEDLL?3?$HL?$HN?$DN?$HL?$HN@ 00000001400a15f0     Crinkler.obj
 0002:00004608       ??_C@_0BE@OINDMCPO@?5?1FALLBACKDLL?3?$HL?$HN?$DN?$HL?$HN@ 00000001400a1608     Crinkler.obj
 0002:00004620       ??_C@_0P@ICOBEDKN@?5?1UNSAFEIMPORT@ 00000001400a1620     Crinkler.obj
 0002:00004630       ??_C@_0BC@KBCEAEFB@?5?1TRANSFORM?3CALLS@ 00000001400a1630     Crinkler.obj
 0002:00004648       ??_C@_0BE@NCIFDFHO@?5?1TRUNCATEFLOATS?3?$HL?$HN@ 00000001400a1648     Crinkler.obj
 0002:00004660       ??_C@_0BF@FFKAOPNO@?5?1OVERRIDEALIGNMENTS@ 00000001400a1660     Crinkler.obj
 0002:00004678       ??_C@_03IDBILICM@?3?$HL?$HN@ 00000001400a1678     Crinkler.obj
 0002:00004680       ??_C@_0O@LKIDOONL@?5?1UNALIGNCODE@ 00000001400a1680     Crinkler.obj
 0002:00004690       ??_C@_0BB@FDEOEGKP@?5?1NOINITIALIZERS@ 00000001400a1690     Crinkler.obj
 0002:000046a8       ??_C@_0BF@PLFJOCBF@?5?1EXPORT?3?$HL?$HN?$DN0x?$HL?308X?$HN@ 00000001400a16a8     Crinkler.obj
 0002:000046c0       ??_C@_0M@OHFBIJN@?5?1EXPORT?3?$HL?$HN@ 00000001400a16c0     Crinkler.obj
 0002:000046d0       ??_C@_0P@JHMLJGDB@?5?1EXPORT?3?$HL?$HN?$DN?$HL?$HN@ 00000001400a16d0     Crinkler.obj
 0002:000046e0       ??_C@_03OJHLLCGB@inf@      00000001400a16e0     Crinkler.obj
 0002:000046e8       ??_C@_08OFCDMILK@nan?$CIind?$CJ@ 00000001400a16e8     Crinkler.obj
 0002:000046f4       ??_C@_03LHCJEHON@nan@      00000001400a16f4     Crinkler.obj
 0002:000046f8       ??_C@_09IPFBKMDL@nan?$CIsnan?$CJ@ 00000001400a16f8     Crinkler.obj
 0002:00004708       ??_C@_0BN@CAABEHAA@Missing?5precision?5specifier?4@ 00000001400a1708     Crinkler.obj
 0002:00004728       ??_C@_0BJ@FNNNKMGD@Invalid?5fill?5?$CItoo?5long?$CJ?4@ 00000001400a1728     Crinkler.obj
 0002:00004a18       ??_C@_0CM@EFKJINMJ@Format?5specifier?5requires?5numer@ 00000001400a1a18     Crinkler.obj
 0002:00004a48       ??_C@_0DB@FGJJGOLD@Can?5not?5switch?5from?5automatic?5t@ 00000001400a1a48     Crinkler.obj
 0002:00004a7c       ??_C@_05JHILFKJA@0e?$CL00@ 00000001400a1a7c     Crinkler.obj
 0002:00004ae8       ??_C@_05EJCIBGJD@_Step@    00000001400a1ae8     Crinkler.obj
 0002:00004af0       ??_7?$_Fmt_iterator_buffer@V?$back_insert_iterator@V?$vector@DV?$allocator@D@std@@@std@@@std@@DU_Fmt_buffer_traits@2@@std@@6B@ 00000001400a1af0     Crinkler.obj
 0002:00004af8       ??_C@_0CO@ILLNLEBH@Precision?5not?5allowed?5for?5this?5@ 00000001400a1af8     Crinkler.obj
 0002:00004b28       ?_Adjustment@?CB@???$__to_chars@D@std@@YA?AU?$pair@PEADW4errc@std@@@1@QEAD0U__floating_decimal_32@1@W4chars_format@1@II@Z@4QBEB 00000001400a1b28     Crinkler.obj
 0002:00004b50       ?_Max_shifted_mantissa@?DC@???$__to_chars@D@std@@YA?AU?$pair@PEADW4errc@std@@@1@QEAD0U__floating_decimal_32@1@W4chars_format@1@II@Z@4QBIB 00000001400a1b50     Crinkler.obj
 0002:00004b80       ?_Adjustment@?CB@???$__to_chars@D@std@@YA?AU?$pair@PEADW4errc@std@@@1@QEAD0U__floating_decimal_64@1@W4chars_format@1@N@Z@4QBEB 00000001400a1b80     Crinkler.obj
 0002:00004cc0       ?_Max_shifted_mantissa@?DC@???$__to_chars@D@std@@YA?AU?$pair@PEADW4errc@std@@@1@QEAD0U__floating_decimal_64@1@W4chars_format@1@N@Z@4QB_KB 00000001400a1cc0     Crinkler.obj
 0002:00004d78       ??_C@_0BA@FOIKENOD@vector?5too?5long@ 00000001400a1d78     Crinkler.obj
 0002:00004d90       ??_C@_0BE@JHBJMIJI@Argument?5not?5found?4@ 00000001400a1d90     Crinkler.obj
 0002:00004da8       ??_C@_0BI@KLAHEKGE@String?5pointer?5is?5null?4@ 00000001400a1da8     Crinkler.obj
 0002:00004dc0       ??_C@_0CC@OGKFJOLL@integral?5cannot?5be?5stored?5in?5ch@ 00000001400a1dc0     Crinkler.obj
 0002:00004de4       ??_C@_02HDBOMKFI@0b@       00000001400a1de4     Crinkler.obj
 0002:00004de8       ??_C@_02OGJKOOPK@0B@       00000001400a1de8     Crinkler.obj
 0002:00004dec       ??_C@_02MDDDDAID@0x@       00000001400a1dec     Crinkler.obj
 0002:00004df0       ??_C@_02FGLHBECB@0X@       00000001400a1df0     Crinkler.obj
 0002:00004df4       ??_C@_01GBGANLPD@0@        00000001400a1df4     Crinkler.obj
 0002:00004df8       ??_C@_0BD@GHJPJCGO@Number?5is?5too?5big?4@ 00000001400a1df8     Crinkler.obj
 0002:00004e10       ??_C@_0BJ@FLMOJPKL@Width?5is?5not?5an?5integer?4@ 00000001400a1e10     Crinkler.obj
 0002:00004e30       ??_C@_0BA@INGMONDA@Negative?5width?4@ 00000001400a1e30     Crinkler.obj
 0002:00004e40       ??_C@_0BN@DNNEEKIC@Precision?5is?5not?5an?5integer?4@ 00000001400a1e40     Crinkler.obj
 0002:00004e60       ??_C@_0BE@DEGOCOHL@Negative?5precision?4@ 00000001400a1e60     Crinkler.obj
 0002:00004e74       __real@3a000000            00000001400a1e74     Crinkler.obj
 0002:00004e78       __real@3f800000            00000001400a1e78     Crinkler.obj
 0002:00004e80       __real@3ff0000000000000    00000001400a1e80     Crinkler.obj
 0002:00004e90       __xmm@000000000000000f0000000000000000 00000001400a1e90     Crinkler.obj
 0002:00004ea0       __xmm@000000000000000f0000000000000001 00000001400a1ea0     Crinkler.obj
 0002:00004eb0       __xmm@000000000000000f0000000000000006 00000001400a1eb0     Crinkler.obj
 0002:00004ec0       __xmm@7fffffff7fffffff7fffffff7fffffff 00000001400a1ec0     Crinkler.obj
 0002:00004ed0       __xmm@7fffffffffffffff7fffffffffffffff 00000001400a1ed0     Crinkler.obj
 0002:00004ee0       ??_C@_07KCLLBNKA@Exports@  00000001400a1ee0     Export.obj
 0002:00004ee8       ??_C@_06NOPGBFOL@EXPORT@   00000001400a1ee8     Export.obj
 0002:00004ef0       ??_C@_07FLMNHPPG@exports@  00000001400a1ef0     Export.obj
 0002:00004ef8       ??_C@_0BB@OIHPIFOC@_ExportAddresses@ 00000001400a1ef8     Export.obj
 0002:00004f10       ??_C@_0N@KDNDLIJG@_ExportNames@ 00000001400a1f10     Export.obj
 0002:00004f20       ??_C@_0BA@JDHIBPDI@_ExportOrdinals@ 00000001400a1f20     Export.obj
 0002:00004f30       ??_C@_0N@JKOCNDDI@_ExportName_@ 00000001400a1f30     Export.obj
 0002:00004f40       ??_C@_0P@ILNLDLO@?5?5?$CFs?5?$DN?50x?$CF08X?6@ 00000001400a1f40     Export.obj
 0002:00004f50       ??_C@_05LDOEBFOB@?5?5?$CFs?6@ 00000001400a1f50     Export.obj
 0002:00004f58       ??_C@_0M@OJMEEIGH@?5?5?$CFs?5?9?$DO?5?$CFs?6@ 00000001400a1f58     Export.obj
 0002:00004f70       __xmm@000000000000000f000000000000000c 00000001400a1f70     Export.obj
 0002:00004f80       __xmm@000000000000000f000000000000000f 00000001400a1f80     Export.obj
 0002:00004f90       __xmm@000000000000001f0000000000000010 00000001400a1f90     Export.obj
 0002:00004fa0       ??_C@_0LD@IEFAPPNG@?6?$DM?$CBDOCTYPE?5HTML?5PUBLIC?5?$CC?9?1?1W3C?1@ 00000001400a1fa0     HtmlReport.obj
 0002:00005060       ??_C@_0BMDJ@OJJJKILH@?6if?5?$CIINITIAL_THEME?5?$DN?$DN?5?8LIGHT?8?5?$HM@ 00000001400a2060     HtmlReport.obj
 0002:00006ca0       ??_C@_0JKE@NKOJOOPE@?6?$DMstyle?5type?$DN?8text?1css?8?$DO?6body?$HL?6@ 00000001400a3ca0     HtmlReport.obj
 0002:00007650       ??_C@_0CPN@EKFJPDNO@?6?$DMa?5id?$DN?8state_1?8?5href?$DN?8?$CD?8?5oncli@ 00000001400a4650     HtmlReport.obj
 0002:00007950       ??_C@_0JB@KJGHGDDO@?6?$DM?1table?$DO?6?$DMp?$DO?$DMa?5href?$DN?8http?3?1?1cr@ 00000001400a4950     HtmlReport.obj
 0002:000079f0       ??_C@_03NKBOLEBK@0?41@     00000001400a49f0     HtmlReport.obj
 0002:000079f4       ??_C@_03LOHCHBBO@0?45@     00000001400a49f4     HtmlReport.obj
 0002:000079f8       ??_C@_01HIHLOKLC@1@        00000001400a49f8     HtmlReport.obj
 0002:000079fc       ??_C@_01FDFGLJHB@2@        00000001400a49fc     HtmlReport.obj
 0002:00007a00       ??_C@_01EKENIIDA@3@        00000001400a4a00     HtmlReport.obj
 0002:00007a04       ??_C@_01BMBHCPLG@5@        00000001400a4a04     HtmlReport.obj
 0002:00007a08       ??_C@_01COCBENDE@7@        00000001400a4a08     HtmlReport.obj
 0002:00007a0c       ??_C@_01LAKCGALK@9@        00000001400a4a0c     HtmlReport.obj
 0002:00007a10       ??_C@_02MIGHPNDL@12@       00000001400a4a10     HtmlReport.obj
 0002:00007a18       ??_C@_08MCGACOPD@a?5lot?5of@ 00000001400a4a18     HtmlReport.obj
 0002:00007a24       ??_C@_04MLLDKFCD@DARK@     00000001400a4a24     HtmlReport.obj
 0002:00007a2c       ??_C@_05MFNJIKNP@LIGHT@    00000001400a4a2c     HtmlReport.obj
 0002:00007a34       ??_C@_04LMMJFDCN@AUTO@     00000001400a4a34     HtmlReport.obj
 0002:00007a40       ??_C@_07DCLBNMLN@generic@  00000001400a4a40     HtmlReport.obj
 0002:00007a48       ??_7_System_error_category@std@@6B@ 00000001400a4a48     HtmlReport.obj
 0002:00007a78       ??_C@_06FHFOAHML@system@   00000001400a4a78     HtmlReport.obj
 0002:00007a80       ?_Unknown_error@?6??message@_System_error_category@std@@UEBA?AV?$basic_string@DU?$char_traits@D@std@@V?$allocator@D@2@@3@H@Z@4QBDB 00000001400a4a80     HtmlReport.obj
 0002:00007a90       ??_C@_0BN@OOLJICIM@?$DMtd?5byte?9spacing?$DO?$CGnbsp?$DL?$DM?1td?$DO@ 00000001400a4a90     HtmlReport.obj
 0002:00007ab0       ??_C@_0DH@NFCKPLKJ@?$DMtd?5class?$DN?8sc?$HL?$HN?8?5name?$DN?8byte?8?5by@ 00000001400a4ab0     HtmlReport.obj
 0002:00007ae8       ??_C@_0DD@BPAGOJOB@?$DMtd?5class?$DN?8sc?$HL?$HN?8?5name?$DN?8byte?8?5by@ 00000001400a4ae8     HtmlReport.obj
 0002:00007b20       ??_C@_0BA@JEHJMEOJ@?$DMtd?$DO?$CGnbsp?$DL?$DM?1td?$DO@ 00000001400a4b20     HtmlReport.obj
 0002:00007b30       ??_C@_0BG@JOBHPHPA@?$DMtd?$DO?$CGnbsp?$DL?$CGnbsp?$DL?$DM?1td?$DO@ 00000001400a4b30     HtmlReport.obj
 0002:00007b48       ??_C@_04KNINFIGH@?$DM?1a?$DO@ 00000001400a4b48     HtmlReport.obj
 0002:00007b50       ??_C@_04CDCBNPCK@?$CC?$CJ?8?$DO@ 00000001400a4b50     HtmlReport.obj
 0002:00007b58       ??_C@_0BN@FPCCAHJI@?8?5onclick?$DN?8recursiveExpand?$CI?$CC@ 00000001400a4b58     HtmlReport.obj
 0002:00007b78       ??_C@_0L@LNIEBLFF@?$DMa?5href?$DN?8?$CD@ 00000001400a4b78     HtmlReport.obj
 0002:00007b88       ??_C@_09BBJECIDC@?$HL?$HN?$CL0x?$HL?3X?$HN@ 00000001400a4b88     HtmlReport.obj
 0002:00007b98       ??_C@_09NHPLCBLF@?$HL?$HN?90x?$HL?3X?$HN@ 00000001400a4b98     HtmlReport.obj
 0002:00007ba4       ??_C@_02EMFKHFLK@?$CFX@    00000001400a4ba4     HtmlReport.obj
 0002:00007ba8       ??_C@_02MCILKGOH@?$HL?$HN@ 00000001400a4ba8     HtmlReport.obj
 0002:00007bb0       ??_C@_0DE@BJNIMJMD@?$DMtitle?$DO?$HL?$HN?3?5?$HL?$HN?5?9?5Crinkler?5compre@ 00000001400a4bb0     HtmlReport.obj
 0002:00007be8       ??_C@_0DC@GBCAGNMB@?$DMlink?5rel?$DN?8icon?8?5href?$DN?8data?3ima@ 00000001400a4be8     HtmlReport.obj
 0002:00007c20       ??_C@_0CA@BCKLLODE@?$DMscript?5type?$DN?8text?1javascript?8?$DO@ 00000001400a4c20     HtmlReport.obj
 0002:00007c40       ??_C@_0BG@JMGGIEGC@const?5CODEBASE?5?$DN?5?$HL?$HN?$DL?6@ 00000001400a4c40     HtmlReport.obj
 0002:00007c58       ??_C@_0BL@CNCFKJHF@const?5BIT_PRECISION?5?$DN?5?$HL?$HN?$DL?6@ 00000001400a4c58     HtmlReport.obj
 0002:00007c78       ??_C@_0BN@LHEHKEKN@const?5INITIAL_THEME?5?$DN?5?8?$HL?$HN?8?$DL?6@ 00000001400a4c78     HtmlReport.obj
 0002:00007c98       ??_C@_0BD@JBELMNMA@const?5sizefill?5?$DN?5?$FL@ 00000001400a4c98     HtmlReport.obj
 0002:00007cac       ??_C@_01IHBHIGKO@?0@       00000001400a4cac     HtmlReport.obj
 0002:00007cb0       ??_C@_04OMLPCBHH@?$HL?$HN?$HL?$HN@ 00000001400a4cb0     HtmlReport.obj
 0002:00007cb8       ??_C@_03DFANBFGH@?$FN?$DL?6@ 00000001400a4cb8     HtmlReport.obj
 0002:00007cc0       ??_C@_09LJLKNN@?$DM?1script?$DO@ 00000001400a4cc0     HtmlReport.obj
 0002:00007cd0       ??_C@_0O@PHIMDEIL@Crinkler?53?40a@ 00000001400a4cd0     HtmlReport.obj
 0002:00007ce0       ??_C@_0DI@JKCAKALK@?$DMp?$DO?$DMb?$DOReport?5for?5file?5?$HL?$HN?5genera@ 00000001400a4ce0     HtmlReport.obj
 0002:00007d18       ??_C@_0P@PAANNPDA@?$DMp?$DO?$DMb?$DOOptions?3@ 00000001400a4d18     HtmlReport.obj
 0002:00007d28       ??_C@_08FKEIAKLO@?$DM?1b?$DO?$DM?1p?$DO@ 00000001400a4d28     HtmlReport.obj
 0002:00007d38       ??_C@_0CD@EBPKMEH@?$DMp?$DO?$DMb?$DOOutput?5file?5size?3?5?$HL?$HN?$DM?1b?$DO?$DM@ 00000001400a4d38     HtmlReport.obj
 0002:00007d60       ??_C@_0EO@HFODHDHN@?$DMp?$DO?$DMtable?$DO?$DMtr?$DO?$DMtd?5rowspan?$DN?82?8?$DO?$DM@ 00000001400a4d60     HtmlReport.obj
 0002:00007db0       ??_C@_0EL@LJMEEPHM@?$DMtd?5class?$DN?8sc?$HL?$HN?8?5style?$DN?8backgro@ 00000001400a4db0     HtmlReport.obj
 0002:00007e00       ??_C@_0BL@COBPAOIL@Less?5than?5?$HL?$HN?5bits?5per?5byte@ 00000001400a4e00     HtmlReport.obj
 0002:00007e20       ??_C@_0BL@GKCNMOHK@More?5than?5?$HL?$HN?5bits?5per?5byte@ 00000001400a4e20     HtmlReport.obj
 0002:00007e40       ??_C@_0CA@FNPEEKJ@Between?5?$HL?$HN?5and?5?$HL?$HN?5bits?5per?5byte@ 00000001400a4e40     HtmlReport.obj
 0002:00007e60       ??_C@_0CA@KMIBAPHP@?8?$DO?$CGnbsp?$DL?$CGnbsp?$DL?$CGnbsp?$DL?$CGnbsp?$DL?$DM?1td?$DO@ 00000001400a4e60     HtmlReport.obj
 0002:00007e80       ??_C@_0CP@LADILKBG@?$DM?1tr?$DO?6?$DMtr?$DO?$DMtd?5colspan?$DN?82?8?5align@ 00000001400a4e80     HtmlReport.obj
 0002:00007eb0       ??_C@_0CH@NBIJDDAD@?$DMtd?5colspan?$DN?82?8?5align?$DN?8center?8?$DO@ 00000001400a4eb0     HtmlReport.obj
 0002:00007ed8       ??_C@_0BM@OOGBFKFJ@?$DMtd?$DO?$DM?1td?$DO?$DM?1tr?$DO?$DM?1table?$DO?$DM?1p?$DO?6@ 00000001400a4ed8     HtmlReport.obj
 0002:00007ef8       ??_C@_0BJ@FGLFLAKG@?$DMstyle?5type?$DN?8text?1css?8?$DO?6@ 00000001400a4ef8     HtmlReport.obj
 0002:00007f20       ??_C@_0EA@LOPGEDHL@?4sc?$HL?$HN?5?$HL?$HL?5color?3?5?$CD?$HL?306X?$HN?$DL?5?$HN?$HN?6?4li@ 00000001400a4f20     HtmlReport.obj
 0002:00007f60       ??_C@_09KBAHDLGC@?$DM?1style?$DO?6@ 00000001400a4f60     HtmlReport.obj
 0002:00007f70       ??_C@_0BA@HCMGKG@part_symbol_row@ 00000001400a4f70     HtmlReport.obj
 0002:00007f80       ??_C@_01JLIPDDHJ@?3@       00000001400a4f80     HtmlReport.obj
 0002:00007f88       ??_C@_0BD@IKLPMKPF@section_symbol_row@ 00000001400a4f88     HtmlReport.obj
 0002:00007fa0       ??_C@_0BC@KPNHDKPL@public_symbol_row@ 00000001400a4fa0     HtmlReport.obj
 0002:00007fb8       ??_C@_0BD@FCCCJELP@private_symbol_row@ 00000001400a4fb8     HtmlReport.obj
 0002:00007fd0       ??_C@_0ED@GLANJAJK@?$DMtr?$DO?$DMtd?5nowrap?5colspan?$DN?85?8?$DO?$DMdiv@ 00000001400a4fd0     HtmlReport.obj
 0002:00008014       ??_C@_05HPMBBINO@?$HL?$HN_?$HL?$HN@ 00000001400a5014     HtmlReport.obj
 0002:00008020       ??_C@_0DH@DODAPPEP@?$DMtr?5class?$DN?8?$HL?$HN_expandable?8?5oncli@ 00000001400a5020     HtmlReport.obj
 0002:00008058       ??_C@_0CF@JEHLFPBO@?$DMtr?5class?$DN?8?$HL?$HN?8?5style?$DN?8display?3n@ 00000001400a5058     HtmlReport.obj
 0002:00008080       ??_C@_0BA@BJHKAOOC@?$DMtr?5class?$DN?8?$HL?$HN?8?$DO@ 00000001400a5080     HtmlReport.obj
 0002:00008090       ??_C@_07IFDINNEA@?$DM?1span?$DO@ 00000001400a5090     HtmlReport.obj
 0002:00008098       ??_C@_02HMHJGNPF@?8?$DO@   00000001400a5098     HtmlReport.obj
 0002:000080a0       ??_C@_0L@ENKBEJOD@?$DMspan?5id?$DN?8@ 00000001400a50a0     HtmlReport.obj
 0002:000080b0       ??_C@_07LEMCJFAN@?$DMa?5id?$DN?8@ 00000001400a50b0     HtmlReport.obj
 0002:000080b8       ??_C@_06ODLOODK@?$CGnbsp?$DL@ 00000001400a50b8     HtmlReport.obj
 0002:000080c0       ??_C@_01JOAMLHOP@?9@       00000001400a50c0     HtmlReport.obj
 0002:000080d0       ??_C@_0EK@MPIGPFDP@?$DMth?5nowrap?5class?$DN?8c1?8?$DO?$HL0?$HN?$HL1?308X@ 00000001400a50d0     HtmlReport.obj
 0002:00008120       ??_C@_0BO@BAFCHEFC@?$DMth?5nowrap?5class?$DN?8c3?8?$DO?$HL?$HN?$DM?1th?$DO@ 00000001400a5120     HtmlReport.obj
 0002:00008140       ??_C@_0EE@FJPIPPFP@?$DMth?5nowrap?5class?$DN?8c4?8?$DO?$HL?3?42f?$HN?$DM?1t@ 00000001400a5140     HtmlReport.obj
 0002:00008190       ??_C@_0ED@ENNALMDA@?$DMth?5nowrap?5class?$DN?8c4?8?$DO?$CGnbsp?$DL?$DM?1t@ 00000001400a5190     HtmlReport.obj
 0002:000081e0       ??_C@_0GE@PNKOMJMJ@?$DMth?5nowrap?5class?$DN?8c3?8?$DO?$CGnbsp?$DL?$DM?1t@ 00000001400a51e0     HtmlReport.obj
 0002:00008244       ??_C@_05IMPJLBNH@?$DM?1tr?$DO@ 00000001400a5244     HtmlReport.obj
 0002:00008250       ??_C@_0BJ@EEDKFDKK@?$DM?1table?$DO?$DM?1div?$DO?$DM?1td?$DO?$DM?1tr?$DO@ 00000001400a5250     HtmlReport.obj
 0002:00008270       ??_C@_0EB@OABELCBE@?$DMtr?$DO?$DMtd?5nowrap?5colspan?$DN?85?8?$DO?$DMdiv@ 00000001400a5270     HtmlReport.obj
 0002:000082b8       ??_C@_0DE@JEIFIKMJ@?$DMtr?$DO?$DMtd?5nowrap?5colspan?$DN?85?8?$DO?$DMtab@ 00000001400a52b8     HtmlReport.obj
 0002:000082f0       ??_C@_0BO@MFOOJLAK@?$DMtr?5name?$DN?8byte?8?5byte?$DN?8?$HL?$HN?$DL?$HL?$HN?8?$DO@ 00000001400a52f0     HtmlReport.obj
 0002:00008310       ??_C@_0DD@DAPFLBAL@?$DMtd?5nowrap?5class?$DN?8address?8?$DO?$CGnbs@ 00000001400a5310     HtmlReport.obj
 0002:00008348       ??_C@_0DO@MBOEJFHP@?$DMtd?5nowrap?5colspan?$DN4?5class?$DN?8hex@ 00000001400a5348     HtmlReport.obj
 0002:00008388       ??_C@_0BL@HJFCKOHI@?$DMtd?5nowrap?5class?$DN?8sc?$HL?$HN?8?$DO?$HL?$HN@ 00000001400a5388     HtmlReport.obj
 0002:000083a8       ??_C@_0BI@EJINHDDI@?$DM?1td?$DO?$DM?1tr?$DO?$DM?1table?$DO?$DM?1tr?$DO@ 00000001400a53a8     HtmlReport.obj
 0002:000083c0       ??_C@_0DH@DODKODLC@?$DMtr?$DO?$DMtd?5nowrap?5class?$DN?8address?8?$DO@ 00000001400a53c0     HtmlReport.obj
 0002:000083f8       ??_C@_0CG@NJFONKHD@?$DMtd?5class?$DN?8sc?$HL?$HN?8?5colspan?$DN?8?$HL?$HN?8?$DO?$HL@ 00000001400a53f8     HtmlReport.obj
 0002:00008420       ??_C@_0BI@IJIGDMON@?$DM?1tr?$DO?$DM?1table?$DO?$DM?1td?$DO?$DM?1tr?$DO@ 00000001400a5420     HtmlReport.obj
 0002:00008438       ??_C@_06MAIPDONP@?$DM?1div?$DO@ 00000001400a5438     HtmlReport.obj
 0002:00008440       ??_C@_0BF@DKEGEOLP@?$DM?1table?$DO?$HL?$HN?$DM?1td?$DO?$DM?1tr?$DO@ 00000001400a5440     HtmlReport.obj
 0002:00008458       ??_C@_0BN@CBFFAIMI@Cannot?5open?5file?5for?5writing@ 00000001400a5458     HtmlReport.obj
 0002:00008478       ??_C@_0BI@CFPLBAOH@invalid?5string?5position@ 00000001400a5478     HtmlReport.obj
 0002:00008490       ??_7?$_Fmt_iterator_buffer@V?$back_insert_iterator@V?$basic_string@DU?$char_traits@D@std@@V?$allocator@D@2@@std@@@std@@DU_Fmt_buffer_traits@2@@std@@6B@ 00000001400a5490     HtmlReport.obj
 0002:00008498       __real@3b800000            00000001400a5498     HtmlReport.obj
 0002:0000849c       __real@42c80000            00000001400a549c     HtmlReport.obj
 0002:000084a0       ??_C@_06DJFHFKB@__RTC_@    00000001400a54a0     Hunk.obj
 0002:000084a8       ??_C@_0DI@KKLFJPNN@Disable?5?8Basic?5Runtime?5Checks?8?5@ 00000001400a54a8     Hunk.obj
 0002:000084e0       ??_C@_0BC@IBCJPMOM@__security_cookie@ 00000001400a54e0     Hunk.obj
 0002:000084f8       ??_C@_0DJ@PKOCGDPL@Disable?5?8Buffer?5Security?5Check?8@ 00000001400a54f8     Hunk.obj
 0002:00008538       ??_C@_0BD@IDIIECKB@_crt_debugger_hook@ 00000001400a5538     Hunk.obj
 0002:00008550       ??_C@_0BN@EPFFOKHI@Define?5your?5own?5entry?5point?4@ 00000001400a5550     Hunk.obj
 0002:00008570       ??_C@_06DCDKBOGN@__ftol@   00000001400a5570     Hunk.obj
 0002:00008580       ??_C@_0HE@NMINBAG@Suppress?5_ftol?5calls?5with?5the?5?1@ 00000001400a5580     Hunk.obj
 0002:000085f4       ??_C@_05DNADIBKB@__Cxx@    00000001400a55f4     Hunk.obj
 0002:00008600       ??_C@_0BG@IPKNANKA@Don?8t?5use?5exceptions?4@ 00000001400a5600     Hunk.obj
 0002:00008618       ??_C@_0BI@CGHOEJPD@__imp_?$DP?$DP1exception?$EAstd?$EA@ 00000001400a5618     Hunk.obj
 0002:00008630       ??_C@_0P@CEGKDJBK@Don?8t?5use?5STL?4@ 00000001400a5630     Hunk.obj
 0002:00008640       ??_C@_08GDBMFOGK@__alloca@ 00000001400a5640     Hunk.obj
 0002:00008650       ??_C@_08CEHLGEBN@__chkstk@ 00000001400a5650     Hunk.obj
 0002:00008660       ??_C@_0FI@JKGMJPKK@Avoid?5declaring?5large?5arrays?5or@ 00000001400a5660     Hunk.obj
 0002:000086b8       ??_C@_02LMMGGCAJ@?3?5@     00000001400a56b8     Hunk.obj
 0002:000086c0       ??_C@_0CF@JMLMFMKL@Cannot?5find?5symbol?5?8?$CFs?8?4?6?5?$CK?5HIN@ 00000001400a56c0     Hunk.obj
 0002:000086e8       ??_C@_0BI@LMOJBKB@Cannot?5find?5symbol?5?8?$CFs?8@ 00000001400a56e8     Hunk.obj
 0002:00008700       ??_C@_0M@OGNBNEEM@?$CFs?5sections@ 00000001400a5700     Hunk.obj
 0002:0000870c       ??_C@_06CIPIPFKB@?4dummy@  00000001400a570c     Hunk.obj
 0002:00008714       ??_C@_03ELJPOBCB@tf_@      00000001400a5714     Hunk.obj
 0002:00008718       ??_C@_02JDNIPIGD@NA@       00000001400a5718     Hunk.obj
 0002:0000871c       ??_C@_05CNONOOAN@tf?$CFd_@ 00000001400a571c     Hunk.obj
 0002:00008728       ??_C@_0M@IJPGLJFH@__real?$EA?$CF16X@ 00000001400a5728     Hunk.obj
 0002:00008734       ??_C@_04BANGNJGK@?$EA3NA@  00000001400a5734     Hunk.obj
 0002:00008740       ??_C@_0L@LEINBDPJ@__real?$EA?$CF8X@ 00000001400a5740     Hunk.obj
 0002:0000874c       ??_C@_04BCJAGHDD@?$EA3MA@  00000001400a574c     Hunk.obj
 0002:00008758       ??_C@_0DM@GLGIKEKA@?$CFs?$FL?$CFd?$FN?3?5?$CFf?5?$CI0x?$CF?48X?$CF?48X?564?5bits?$CJ@ 00000001400a5758     Hunk.obj
 0002:00008798       ??_C@_0DE@CPBAGIEP@?$CFs?$FL?$CFd?$FN?3?5?$CFf?5?$CI0x?$CF?48X?532?5bits?$CJ?5?9?$DO?5@ 00000001400a5798     Hunk.obj
 0002:000087cc       ??_C@_05CBJPDLOK@align@    00000001400a57cc     Hunk.obj
 0002:000087d4       ??_C@_05NJJHCOAI@?$CFd_?$CFd@ 00000001400a57d4     Hunk.obj
 0002:000087e0       ??_C@_0ED@KIJAKNE@Alignment?5label?5?8?$CFs?8?5outside?5le@ 00000001400a57e0     Hunk.obj
 0002:00008828       ??_C@_0CO@JEOJGHOD@More?5than?5one?5alignment?5label?5i@ 00000001400a5828     Hunk.obj
 0002:00008858       ??_C@_0DA@LMFIEOPJ@Alignment?5of?5section?5?8?$CFs?8?5overr@ 00000001400a5858     Hunk.obj
 0002:00008888       ??_C@_05GAKFMAOJ@?5?$CL?5?$CFd@ 00000001400a5888     Hunk.obj
 0002:00008890       ??_C@_05OPOFDFEJ@?5?9?5?$CFd@ 00000001400a5890     Hunk.obj
 0002:00008898       ??_C@_0DJ@BDDGBENG@Alignment?5of?5section?5?8?$CFs?8?5overr@ 00000001400a5898     Hunk.obj
 0002:00008908       ??_C@_0CE@FLAJPMKA@Import?5?8?$CFs?8?5cannot?5be?5found?5in?5@ 00000001400a5908     ImportHandler.obj
 0002:00008930       ??_C@_08PNLNEKOB@kernel32@ 00000001400a5930     ImportHandler.obj
 0002:0000893c       ??_C@_06KMMDPPA@user32@    00000001400a593c     ImportHandler.obj
 0002:00008948       ??_C@_0BM@MGJPOFFD@Could?5not?5find?5?8?$CFs?8?5in?5?8?$CFs?8@ 00000001400a5948     ImportHandler.obj
 0002:00008964       ??_C@_01LFCBOECM@?4@       00000001400a5964     ImportHandler.obj
 0002:00008970       ??_C@_0EF@ODLJMPNK@Import?5?8?$CFs?8?5from?5?8?$CFs?8?5uses?5forw@ 00000001400a5970     ImportHandler.obj
 0002:000089b8       ??_C@_0CN@CLANFMML@?6?9Imports?9?9?9?9?9?9?9?9?9?9?9?9?9?9?9?9?9?9?9?9?9?9@ 00000001400a59b8     ImportHandler.obj
 0002:000089e8       ??_C@_0P@FMEPPHNH@ImportListHunk@ 00000001400a59e8     ImportHandler.obj
 0002:000089f8       ??_C@_0BE@CKOBAAGC@Cyclic?5DLL?5fallback@ 00000001400a59f8     ImportHandler.obj
 0002:00008a0c       ??_C@_03OFAPEBGM@?$CFs?6@  00000001400a5a0c     ImportHandler.obj
 0002:00008a10       ??_C@_0BF@EFOAIGPG@?5?5ordinal?5range?5?$HL?6?5?5@ 00000001400a5a10     ImportHandler.obj
 0002:00008a28       ??_C@_0BO@NHPKOMKC@?5?5?$CFs?5?$CIordinal?5?$CFd?0?5hash?5?$CF08X?$CJ?6@ 00000001400a5a28     ImportHandler.obj
 0002:00008a48       ??_C@_0BF@INBHFGBP@?5?5?5?5?$CFs?5?$CIordinal?5?$CFd?$CJ?6@ 00000001400a5a48     ImportHandler.obj
 0002:00008a60       ??_C@_04POOIJLFB@?5?5?$HN?6@ 00000001400a5a60     ImportHandler.obj
 0002:00008a68       ??_C@_0CP@CAGGDINB@No?5functions?5were?5imported?5from@ 00000001400a5a68     ImportHandler.obj
 0002:00008a98       ??_C@_0DC@ENPNKFEL@No?5functions?5were?5imported?5from@ 00000001400a5a98     ImportHandler.obj
 0002:00008ad0       ??_C@_0M@JHDMMMGK@_ImportList@ 00000001400a5ad0     ImportHandler.obj
 0002:00008ae0       ??_C@_0BA@EEJPNIEJ@crinkler?5import@ 00000001400a5ae0     ImportHandler.obj
 0002:00008af0       ??_C@_04IEKGFKDD@?4bss@    00000001400a5af0     ImportHandler.obj
 0002:00008af8       ??_C@_0N@EABLCPMK@DLLNamesHunk@ 00000001400a5af8     ImportHandler.obj
 0002:00008b08       ??_C@_05LDKNOBJL@?4data@   00000001400a5b08     ImportHandler.obj
 0002:00008b10       ??_C@_09DIMPOJCJ@_DLLNames@ 00000001400a5b10     ImportHandler.obj
 0002:00008b20       ??_C@_0DJ@BAPKNBKF@Kernel32?5needs?5to?5be?5linked?5for@ 00000001400a5b20     ImportHandler.obj
 0002:00008b60       ??_C@_0CM@KNMIMJFD@Could?5not?5find?5collision?9free?5h@ 00000001400a5b60     ImportHandler.obj
 0002:00008b90       ??_C@_0BA@KLDDALIO@_HashMultiplier@ 00000001400a5b90     ImportHandler.obj
 0002:00008ba0       ??_C@_0BD@JLCPCPCI@?5?5?$CFs?5?$CIordinal?5?$CFd?$CJ?6@ 00000001400a5ba0     ImportHandler.obj
 0002:00008bc0       ??_C@_0BGP@BIBPFOA@?6Note?3?5Programs?5linked?5using?5th@ 00000001400a5bc0     ImportHandler.obj
 0002:00008df0       ??_C@_0BG@EOMJEIFA@vector?$DMbool?$DO?5too?5long@ 00000001400a5df0     ImportHandler.obj
 0002:00008e10       __xmm@000000000000000f0000000000000008 00000001400a5e10     ImportHandler.obj
 0002:00008e20       ??_C@_0FN@LHLFECAA@Link?9time?5code?5generation?5is?5no@ 00000001400a5e20     LTCGLoader.obj
 0002:00008e80       ??_7Transform@@6B@         00000001400a5e80     main.obj
 0002:00008e98       ??_7IdentityTransform@@6B@ 00000001400a5e98     main.obj
 0002:00008eb0       ??_7CmdParam@@6B@          00000001400a5eb0     main.obj
 0002:00008ec8       ??_7CallTransform@@6B@     00000001400a5ec8     main.obj
 0002:00008ee0       ??_C@_01KDCPPGHE@r@        00000001400a5ee0     main.obj
 0002:00008ee4       ??_C@_01KICIPPFI@?2@       00000001400a5ee4     main.obj
 0002:00008ee8       ??_C@_01ICJEACDI@?$DL@     00000001400a5ee8     main.obj
 0002:00008ef0       ??_C@_08KPFCJPKF@SYSTEM32@ 00000001400a5ef0     main.obj
 0002:00008f00       ??_C@_08MEDCHDM@SYSWOW64@  00000001400a5f00     main.obj
 0002:00008f0c       ??_C@_04HGBGCCEA@?4DLL@    00000001400a5f0c     main.obj
 0002:00008f14       ??_C@_04HBHDLLBA@PATH@     00000001400a5f14     main.obj
 0002:00008f20       ??_C@_0BF@MOPLNHCG@Cannot?5find?5DLL?5?8?$CFs?8@ 00000001400a5f20     main.obj
 0002:00008f40       ??_C@_0HI@KGGMDAPG@Missing?5export?5table?5in?5?8?$CFs?8?6?6I@ 00000001400a5f40     main.obj
 0002:00008fb8       ??_C@_0CD@PMIBFDPD@Launching?5default?5linker?5at?5?8?$CFs@ 00000001400a5fb8     main.obj
 0002:00008fe0       ??_C@_0CP@FFMLIGOI@Failed?5to?5launch?5default?5linker@ 00000001400a5fe0     main.obj
 0002:00009010       ??_C@_0CI@HMJCGCDA@Cannot?5find?5default?5linker?5?8?$CFs?8@ 00000001400a6010     main.obj
 0002:00009038       ??_C@_0L@FCHOOCIF@size?5in?5mb@ 00000001400a6038     main.obj
 0002:00009048       ??_C@_0CA@LDLACMBJ@number?5of?5megabytes?5for?5hashing@ 00000001400a6048     main.obj
 0002:00009068       ??_C@_08BNDHEBJM@HASHSIZE@ 00000001400a6068     main.obj
 0002:00009078       ??_C@_0BI@CICDDLBO@number?5of?5hashing?5tries@ 00000001400a6078     main.obj
 0002:00009090       ??_C@_09CAKLIIOD@HASHTRIES@ 00000001400a6090     main.obj
 0002:000090a0       ??_C@_0CD@NCCNPDGM@number?5of?5section?5reordering?5tr@ 00000001400a60a0     main.obj
 0002:000090c8       ??_C@_0L@OOHHBDBC@ORDERTRIES@ 00000001400a60c8     main.obj
 0002:000090d4       ??_C@_04MLOLHOPP@bits@     00000001400a60d4     main.obj
 0002:000090e0       ??_C@_0BB@BKBGAGED@truncates?5floats@ 00000001400a60e0     main.obj
 0002:000090f8       ??_C@_0P@LCDKPBJ@TRUNCATEFLOATS@ 00000001400a60f8     main.obj
 0002:00009108       ??_C@_0CP@GJFGKOMD@override?5section?5alignments?5usi@ 00000001400a6108     main.obj
 0002:00009138       ??_C@_0BD@DPAHOGMI@OVERRIDEALIGNMENTS@ 00000001400a6138     main.obj
 0002:00009150       ??_C@_0CG@CFCOMBPD@force?5alignment?5of?5code?5section@ 00000001400a6150     main.obj
 0002:00009178       ??_C@_0M@EJIHLHGL@UNALIGNCODE@ 00000001400a6178     main.obj
 0002:00009188       ??_C@_0CK@BKBAGIBO@Do?5not?5implicitly?5link?5to?5runti@ 00000001400a6188     main.obj
 0002:000091b8       ??_C@_0N@LIIALNB@NODEFAULTLIB@ 00000001400a61b8     main.obj
 0002:000091c8       ??_C@_06OJHAJCPM@symbol@   00000001400a61c8     main.obj
 0002:000091d0       ??_C@_0BH@LKAIGBLI@name?5of?5the?5entrypoint@ 00000001400a61d0     main.obj
 0002:000091e8       ??_C@_05LGEFKHJN@ENTRY@    00000001400a61e8     main.obj
 0002:000091f0       ??_C@_07INJEBCIE@out?4exe@ 00000001400a61f0     main.obj
 0002:000091f8       ??_C@_08BABJIOEM@filename@ 00000001400a61f8     main.obj
 0002:00009208       ??_C@_0BA@GMKDMLLC@output?5filename@ 00000001400a6208     main.obj
 0002:00009218       ??_C@_03KJGMBMID@OUT@      00000001400a6218     main.obj
 0002:00009220       ??_C@_0BF@EDFELLKN@report?5html?5filename@ 00000001400a6220     main.obj
 0002:00009238       ??_C@_06MDMHKGOO@REPORT@   00000001400a6238     main.obj
 0002:00009240       ??_C@_0BM@HEIKDOEA@select?5initial?5report?5theme@ 00000001400a6240     main.obj
 0002:00009260       ??_C@_0M@CNMJGPJK@REPORTTHEME@ 00000001400a6260     main.obj
 0002:00009270       ??_C@_0BE@BOAJNIMO@reuse?5html?5filename@ 00000001400a6270     main.obj
 0002:00009284       ??_C@_05IAEPPEKA@REUSE@    00000001400a6284     main.obj
 0002:00009290       ??_C@_0BC@MDKBPKAJ@select?5reuse?5mode@ 00000001400a6290     main.obj
 0002:000092a8       ??_C@_09PMHGFICM@REUSEMODE@ 00000001400a62a8     main.obj
 0002:000092b8       ??_C@_0CD@BGPCBHGE@Show?5a?5dialog?5to?5select?5reuse?5m@ 00000001400a62b8     main.obj
 0002:000092e0       ??_C@_08CMEFNML@REUSEGUI@  00000001400a62e0     main.obj
 0002:000092ec       ??_C@_04PCJFHION@help@     00000001400a62ec     main.obj
 0002:000092f4       ??_C@_01OGPIMHDM@?$DP@     00000001400a62f4     main.obj
 0002:000092f8       ??_C@_0BB@NLHGIGJH@enables?5Crinkler@ 00000001400a62f8     main.obj
 0002:00009310       ??_C@_08NBGIFLO@CRINKLER@  00000001400a6310     main.obj
 0002:00009320       ??_C@_0BL@KDMHAFCC@recompress?5a?5Crinkler?5file@ 00000001400a6320     main.obj
 0002:00009340       ??_C@_0L@ODLMLPAF@RECOMPRESS@ 00000001400a6340     main.obj
 0002:00009350       ??_C@_0BK@BICCGAJK@crash?5if?5a?5DLL?5is?5missing@ 00000001400a6350     main.obj
 0002:00009370       ??_C@_0N@EJHDPEHI@UNSAFEIMPORT@ 00000001400a6370     main.obj
 0002:00009380       ??_C@_0BO@DEOBMNFN@show?5a?5graphical?5progress?5bar@ 00000001400a6380     main.obj
 0002:000093a0       ??_C@_0M@PEFHCMCO@PROGRESSGUI@ 00000001400a63a0     main.obj
 0002:000093b0       ??_C@_0BA@NPLEEBJB@use?5tiny?5header@ 00000001400a63b0     main.obj
 0002:000093c0       ??_C@_0L@MFMBJCAI@TINYHEADER@ 00000001400a63c0     main.obj
 0002:000093d0       ??_C@_0BA@FACCODAI@use?5tiny?5import@ 00000001400a63d0     main.obj
 0002:000093e0       ??_C@_0L@EKFHDAJB@TINYIMPORT@ 00000001400a63e0     main.obj
 0002:000093f0       ??_C@_0BB@FPDDHNCG@select?5subsystem@ 00000001400a63f0     main.obj
 0002:00009408       ??_C@_09CMMNJCPD@SUBSYSTEM@ 00000001400a6408     main.obj
 0002:00009418       ??_C@_0BL@GKHMNPCB@use?5separate?5part?5for?5text@ 00000001400a6418     main.obj
 0002:00009438       ??_C@_08HKEEEIIO@TEXTPART@ 00000001400a6438     main.obj
 0002:00009448       ??_C@_0BL@LPDGJFAG@allow?5addresses?5beyond?52gb@ 00000001400a6448     main.obj
 0002:00009468       ??_C@_0BC@GFFPJKLJ@LARGEADDRESSAWARE@ 00000001400a6468     main.obj
 0002:0000947c       ??_C@_06IOJAGNKJ@NORMAL@   00000001400a647c     main.obj
 0002:00009488       ??_C@_0M@MJCADJFN@BELOWNORMAL@ 00000001400a6488     main.obj
 0002:00009494       ??_C@_04IMMGDCFE@IDLE@     00000001400a6494     main.obj
 0002:000094a0       ??_C@_0BA@OOKOELKN@select?5priority@ 00000001400a64a0     main.obj
 0002:000094b0       ??_C@_08PHDJDNOC@PRIORITY@ 00000001400a64b0     main.obj
 0002:000094c0       ??_C@_08MGEFONHF@VERYSLOW@ 00000001400a64c0     main.obj
 0002:000094cc       ??_C@_04BJJAFLBC@SLOW@     00000001400a64cc     main.obj
 0002:000094d4       ??_C@_04HNOLJCOK@FAST@     00000001400a64d4     main.obj
 0002:000094e0       ??_C@_0BB@JFOBKLLA@compression?5mode@ 00000001400a64e0     main.obj
 0002:000094f8       ??_C@_08LOIPFCFD@COMPMODE@ 00000001400a64f8     main.obj
 0002:00009508       ??_C@_07MENJGFFE@IMPORTS@  00000001400a6508     main.obj
 0002:00009510       ??_C@_06EDNDDPFA@LABELS@   00000001400a6510     main.obj
 0002:00009518       ??_C@_05IJDJACGD@print@    00000001400a6518     main.obj
 0002:00009520       ??_C@_05ECKPOFCN@PRINT@    00000001400a6520     main.obj
 0002:00009528       ??_C@_05JLLGMKNB@CALLS@    00000001400a6528     main.obj
 0002:00009530       ??_C@_0BH@JCEMALDI@select?5transformations@ 00000001400a6530     main.obj
 0002:00009548       ??_C@_09LFBMEAFB@TRANSFORM@ 00000001400a6548     main.obj
 0002:00009558       ??_C@_0CP@CCJMKAEL@saturate?5counters?5?$CIfor?5highly?5r@ 00000001400a6558     main.obj
 0002:00009588       ??_C@_08LLAHJOKO@SATURATE@ 00000001400a6588     main.obj
 0002:00009594       ??_C@_04EACGPHON@dirs@     00000001400a6594     main.obj
 0002:000095a0       ??_C@_0CH@KGGELHMF@adds?5a?5path?5to?5the?5library?5sear@ 00000001400a65a0     main.obj
 0002:000095c8       ??_C@_07DPECNPAL@LIBPATH@  00000001400a65c8     main.obj
 0002:000095d0       ??_C@_07EBPJLM@dllname@    00000001400a65d0     main.obj
 0002:000095d8       ??_C@_0CB@PGGCGOFL@use?5range?5importing?5for?5this?5dl@ 00000001400a65d8     main.obj
 0002:000095fc       ??_C@_05OJPIIJFC@RANGE@    00000001400a65fc     main.obj
 0002:00009608       ??_C@_0O@HGBBJMIA@oldDLL?$DNnewDLL@ 00000001400a6608     main.obj
 0002:00009618       ??_C@_0BL@ILMDFAPN@replace?5a?5dll?5with?5another@ 00000001400a6618     main.obj
 0002:00009638       ??_C@_0L@KMABKDH@REPLACEDLL@ 00000001400a6638     main.obj
 0002:00009648       ??_C@_0BC@CPKOELLF@firstDLL?$DNotherDLL@ 00000001400a6648     main.obj
 0002:00009660       ??_C@_0CP@LAEPPGIA@try?5opening?5another?5dll?5if?5the?5@ 00000001400a6660     main.obj
 0002:00009690       ??_C@_0M@OOIDOLJC@FALLBACKDLL@ 00000001400a6690     main.obj
 0002:000096a0       ??_C@_0BB@CCMAINCA@name?$DNvalue?1label@ 00000001400a66a0     main.obj
 0002:000096b8       ??_C@_0BF@JPNNMKBM@export?5value?5by?5name@ 00000001400a66b8     main.obj
 0002:000096d0       ??_C@_0BP@BBKNDHHC@remove?5exports?5from?5executable@ 00000001400a66d0     main.obj
 0002:000096f0       ??_C@_0N@HHNEGJKM@STRIPEXPORTS@ 00000001400a66f0     main.obj
 0002:00009700       ??_C@_0CA@LGJAJNGP@do?5not?5run?5dynamic?5initializers@ 00000001400a6700     main.obj
 0002:00009720       ??_C@_0P@PKAEJKEI@NOINITIALIZERS@ 00000001400a6720     main.obj
 0002:00009730       ??_C@_0BC@MJACHCBK@list?5of?5filenames@ 00000001400a6730     main.obj
 0002:00009744       ??_C@_05PENKCLCM@FILES@    00000001400a6744     main.obj
 0002:00009750       ??_C@_0EP@GNCMEIJJ@Crinkler?53?40a?5?$CIMay?5?59?52026?$CJ?5?$CIc?$CJ@ 00000001400a6750     main.obj
 0002:000097a0       ??_C@_02GLHBANAM@?1?$DP@   00000001400a67a0     main.obj
 0002:000097a8       ??_C@_09LGMDKBDL@?1CRINKLER@ 00000001400a67a8     main.obj
 0002:000097b8       ??_C@_0N@EFOANEIK@CRINKLER?4EXE@ 00000001400a67b8     main.obj
 0002:000097c8       ??_C@_0M@JJELIMAP@?1RECOMPRESS@ 00000001400a67c8     main.obj
 0002:000097d8       ??_C@_07EKNIKJFJ@?$CKdummy?$CK@ 00000001400a67d8     main.obj
 0002:000097e0       ??_C@_0DH@OCOFFDMA@Crinkler?5recompression?5takes?5ex@ 00000001400a67e0     main.obj
 0002:00009818       ??_C@_0M@BKKINIEH@Source?3?5?$CFs?6@ 00000001400a6818     main.obj
 0002:00009828       ??_C@_0M@DPALJIHE@Target?3?5?$CFs?6@ 00000001400a6828     main.obj
 0002:00009838       ??_C@_0CJ@CMMFFNNK@Subsystem?5type?3?5Inherited?5from?5@ 00000001400a6838     main.obj
 0002:00009868       ??_C@_0BE@FFGCEKON@Subsystem?5type?3?5?$CFs?6@ 00000001400a6868     main.obj
 0002:00009880       ??_C@_0CO@FNGBFOEK@Large?5address?5aware?3?5Inherited?5@ 00000001400a6880     main.obj
 0002:000098b0       ??_C@_0BJ@ENJHDKLP@Large?5address?5aware?3?5?$CFs?6@ 00000001400a68b0     main.obj
 0002:000098d0       ??_C@_0DC@COMOFJIP@Compression?5mode?3?5Models?5inheri@ 00000001400a68d0     main.obj
 0002:00009908       ??_C@_0BG@PJLAKKFL@Compression?5mode?3?5?$CFs?6@ 00000001400a6908     main.obj
 0002:00009920       ??_C@_0CM@GHLEEMDO@Saturate?5counters?3?5Inherited?5fr@ 00000001400a6920     main.obj
 0002:00009950       ??_C@_0BH@EOEGDKPD@Saturate?5counters?3?5?$CFs?6@ 00000001400a6950     main.obj
 0002:00009968       ??_C@_0CE@FEDGELOP@Hash?5size?3?5Inherited?5from?5origi@ 00000001400a6968     main.obj
 0002:00009990       ??_C@_0BC@IDEHGKPJ@Hash?5size?3?5?$CFd?5MB?6@ 00000001400a6990     main.obj
 0002:000099a8       ??_C@_0BA@CANCPPLG@Hash?5tries?3?5?$CFd?6@ 00000001400a69a8     main.obj
 0002:000099b8       ??_C@_04OKGDLNCL@NONE@     00000001400a69b8     main.obj
 0002:000099c0       ??_C@_0M@KJLMAEAB@Report?3?5?$CFs?6@ 00000001400a69c0     main.obj
 0002:000099d0       ??_C@_0BC@HJDDFONI@Report?5theme?3?5?$CFs?6@ 00000001400a69d0     main.obj
 0002:000099e8       ??_C@_0P@EFMGCAGH@Replace?5DLLs?3?5@ 00000001400a69e8     main.obj
 0002:000099f8       ??_C@_02KEGNLNML@?0?5@     00000001400a69f8     main.obj
 0002:00009a00       ??_C@_08DHHJCFN@?$CFs?5?9?$DO?5?$CFs@ 00000001400a6a00     main.obj
 0002:00009a10       ??_C@_0EK@JCGIPFDA@In?5recompression?0?5a?5DLL?5can?5onl@ 00000001400a6a10     main.obj
 0002:00009a60       ??_C@_09HBHJDGGP@Exports?3?5@ 00000001400a6a60     main.obj
 0002:00009a70       ??_C@_0M@EKKKJBFI@Strip?5away?6@ 00000001400a6a70     main.obj
 0002:00009a80       ??_C@_0BE@OOHGPPMD@Keep?5from?5original?6@ 00000001400a6a80     main.obj
 0002:00009a98       ??_C@_0BH@CMDCKGDH@Strip?5and?5replace?5by?3?6@ 00000001400a6a98     main.obj
 0002:00009ab0       ??_C@_0BJ@ECIKKGFA@Keep?5and?5supplement?5by?3?6@ 00000001400a6ab0     main.obj
 0002:00009ad0       ??_C@_0DN@EMGFAOFL@Export?5stripping?5can?5only?5be?5pe@ 00000001400a6ad0     main.obj
 0002:00009b10       ??_C@_0CP@NFGOFBDF@Transforms?5are?5not?5supported?5wi@ 00000001400a6b10     main.obj
 0002:00009b40       ??_C@_0BF@LDGAIPPM@Tiny?5compressor?3?5?$CFs?6@ 00000001400a6b40     main.obj
 0002:00009b58       ??_C@_0BB@EBNBECOF@Tiny?5import?3?5?$CFs?6@ 00000001400a6b58     main.obj
 0002:00009b70       ??_C@_0BB@LIEGOFBN@Order?5tries?3?5?$CFd?6@ 00000001400a6b70     main.obj
 0002:00009b88       ??_C@_0BA@HODJNJO@Reuse?5mode?3?5?$CFs?6@ 00000001400a6b88     main.obj
 0002:00009b98       ??_C@_0BA@FPPMAEFG@Reuse?5file?3?5?$CFs?6@ 00000001400a6b98     main.obj
 0002:00009ba8       ??_C@_0CF@NFOCDHEA@Reuse?5mode?3?5OFF?5?$CIno?5file?5specif@ 00000001400a6ba8     main.obj
 0002:00009bd0       ??_C@_0BA@JIMHENII@Transforms?3?5?$CFs?6@ 00000001400a6bd0     main.obj
 0002:00009be0       ??_C@_0BA@HPIDNEIO@Fallback?5DLLs?3?5@ 00000001400a6be0     main.obj
 0002:00009bf0       ??_C@_0N@GEJOHKAJ@Range?5DLLs?3?5@ 00000001400a6bf0     main.obj
 0002:00009c00       ??_C@_02DKCKIIND@?$CFs@    00000001400a6c00     main.obj
 0002:00009c08       ??_C@_08PDNNMGIM@Exports?3@ 00000001400a6c08     main.obj
 0002:00009c14       ??_C@_02KCAFKDJ@?$DP?3@    00000001400a6c14     main.obj
 0002:00009c18       ??_C@_03LCHNFMKO@LIB@      00000001400a6c18     main.obj
 0002:00009c20       ??_C@_0BH@GJNDOEMB@Cannot?5open?5file?5?8?$CFs?8?6@ 00000001400a6c20     main.obj
 0002:00009c38       ??_C@_0P@EGIKPAOL@Loading?5?$CFs?4?4?4?6@ 00000001400a6c38     main.obj
 0002:00009c48       ??_C@_0N@MGJADCGC@Linking?4?4?4?6?6@ 00000001400a6c48     main.obj
 0002:00009c58       ??_C@_0BG@MNCKNEOD@time?5spent?3?5?$CFdm?$CF02ds?6@ 00000001400a6c58     main.obj
 0002:00009c70       __xmm@00000000000000070000000000000000 00000001400a6c70     main.obj
 0002:00009c80       ??_C@_0O@MGDGCKO@Uninitialized@ 00000001400a6c80     PartList.obj
 0002:00009c90       ??_C@_0BD@CPABHKEA@ContinuationJump?$CFd@ 00000001400a6c90     PartList.obj
 0002:00009ca8       ??_C@_0CB@PLFDACII@Virtual?5size?5overflows?52GB?5limi@ 00000001400a6ca8     PartList.obj
 0002:00009e50       ??_C@_0BC@KBDMBKEH@deque?$DMT?$DO?5too?5long@ 00000001400a6e50     PartList.obj
 0002:00009e68       ??_C@_0BC@FINGIOCM@Ignore?5reuse?5file@ 00000001400a6e68     Reuse.obj
 0002:00009e80       ??_C@_0CA@KAPEKFEK@Ignore?5and?5overwrite?5reuse?5file@ 00000001400a6e80     Reuse.obj
 0002:00009ea0       ??_C@_0M@MCLNDAGE@Reuse?5parts@ 00000001400a6ea0     Reuse.obj
 0002:00009eb0       ??_C@_0BJ@IIPADPLN@Reuse?5parts?5and?5sections@ 00000001400a6eb0     Reuse.obj
 0002:00009ed0       ??_C@_0CB@ONBDBFNA@Reuse?5parts?0?5sections?5and?5model@ 00000001400a6ed0     Reuse.obj
 0002:00009ef8       ??_C@_0BB@PJEKKFC@Reuse?5everything@ 00000001400a6ef8     Reuse.obj
 0002:00009f10       ??_C@_08CIGKLNEF@?5?$CFx?3?$CFd?$CFn@ 00000001400a6f10     Reuse.obj
 0002:00009f20       ??_C@_0BC@JPHNLAJO@?$CD?5Hash?5table?5size@ 00000001400a6f20     Reuse.obj
 0002:00009f38       ??_C@_0BI@HOLKOAP@Duplicate?5hash?5size?3?5?$CFs@ 00000001400a6f38     Reuse.obj
 0002:00009f50       ??_C@_0BD@HOEEIGEP@Duplicate?5part?3?5?$CFs@ 00000001400a6f50     Reuse.obj
 0002:00009f68       ??_C@_08NDACJNEH@sections@ 00000001400a6f68     Reuse.obj
 0002:00009f78       ??_C@_0BL@IKFBKLJI@Unknown?5reuse?5file?5tag?3?5?$CFs@ 00000001400a6f78     Reuse.obj
 0002:00009f98       ??_C@_0BE@MMABNDBL@Unexpected?5line?3?5?$CFs@ 00000001400a6f98     Reuse.obj
 0002:00009fb0       ??_C@_0BF@KMNJBAFP@Duplicate?5models?3?5?$CFs@ 00000001400a6fb0     Reuse.obj
 0002:00009fc8       ??_C@_03EBJOKFHF@?5?$CFd@  00000001400a6fc8     Reuse.obj
 0002:00009fd0       ??_C@_0CG@IFGIKMDG@The?5?8Uninitialized?8?5part?5must?5b@ 00000001400a6fd0     Reuse.obj
 0002:00009ff8       ??_C@_0DD@KIGGGHEG@Models?5missing?5for?5part?5?8?$CFs?8?0?5u@ 00000001400a6ff8     Reuse.obj
 0002:0000a030       ??_C@_0CH@CAONMNLN@Models?5specified?5for?5unknown?5pa@ 00000001400a7030     Reuse.obj
 0002:0000a058       ??_C@_01NOFIACDB@w@        00000001400a7058     Reuse.obj
 0002:0000a060       ??_C@_09KDBLPMKP@?6?$CD?5?$CFs?5?$CFs?6@ 00000001400a7060     Reuse.obj
 0002:0000a06c       ??_C@_04EINJHBMM@?6?$CFs?6@ 00000001400a706c     Reuse.obj
 0002:0000a074       ??_C@_03PMGGPEJJ@?$CFd?6@  00000001400a7074     Reuse.obj
 0002:0000a078       ??_C@_0BP@FCAAMCLB@Reused?5section?5not?5present?3?5?$CFs@ 00000001400a7078     Reuse.obj
 0002:0000a098       ??_C@_0DE@KJMHJGCK@Section?5not?5present?5in?5reuse?5fi@ 00000001400a7098     Reuse.obj
 0002:0000a0d0       ??_C@_0BC@NJLKOCOK@Select?5Reuse?5Mode@ 00000001400a70d0     Reuse.obj
 0002:0000a1a8       ??_C@_0BL@GOIGLPKN@unordered_map?1set?5too?5long@ 00000001400a71a8     Reuse.obj
 0002:0000a1c8       ??_C@_0BK@OGNNAFAB@invalid?5hash?5bucket?5count@ 00000001400a71c8     Reuse.obj
 0002:0000a1e4       __real@5f000000            00000001400a71e4     Reuse.obj
 0002:0000a1e8       ??_C@_0BG@PGNNGALE@?6?$CFs?3?5warning?5LNK?3?5?$CFs?6@ 00000001400a71e8     Log.obj
 0002:0000a200       ??_C@_0BF@DBAAIJEK@?6?$CFs?3?5error?5LNK?3?5?$CFs?6?6@ 00000001400a7200     Log.obj
 0002:0000a218       ??_C@_0BD@IMHGKAID@?6?$CFs?3?5error?5LNK?3?5?$CFs@ 00000001400a7218     Log.obj
 0002:0000a230       ??_C@_0BC@BADGLCAK@dump?$CF04d_mini?4dmp@ 00000001400a7230     MiniDump.obj
 0002:0000a248       ??_C@_0BC@HOCFIICJ@dump?$CF04d_full?4dmp@ 00000001400a7248     MiniDump.obj
 0002:0000a260       ??_C@_0DP@BPGMONP@?6Oops?$CB?5Crinkler?5has?5crashed?4?6Du@ 00000001400a7260     MiniDump.obj
 0002:0000a2a0       ??_C@_01DCLJPIOD@?$CB@     00000001400a72a0     NameMangling.obj
 0002:0000a2f4       ??_C@_04OEDFLLKD@?$CC?$CFs?$CC@ 00000001400a72f4     CmdLineInterface.obj
 0002:0000a300       ??_C@_0CD@CJFHIBAM@Error?3?5argument?5must?5be?5non?9emp@ 00000001400a7300     CmdLineInterface.obj
 0002:0000a328       ??_C@_0DN@MLEPENIK@Error?3?5error?5parsing?5token?3?5?8?$CFs@ 00000001400a7328     CmdLineInterface.obj
 0002:0000a370       ??_C@_0EJ@NOFPAEKE@Error?3?5error?5parsing?5token?3?5?8?$CFs@ 00000001400a7370     CmdLineInterface.obj
 0002:0000a3c0       ??_C@_0DI@LNODHCJL@Error?3?5parameter?5cannot?5be?5defi@ 00000001400a73c0     CmdLineInterface.obj
 0002:0000a3f8       ??_C@_0CE@NAAODADD@Error?3?5cannot?5parse?5token?5?8?$CFs?8?3@ 00000001400a73f8     CmdLineInterface.obj
 0002:0000a420       ??_C@_0CA@IJDPKHAC@Ignoring?5unknown?5argument?5?8?$CFs?8?6@ 00000001400a7420     CmdLineInterface.obj
 0002:0000a440       ??_C@_04LOAOMKLI@?$CFs?6?6@ 00000001400a7440     CmdLineInterface.obj
 0002:0000a448       ??_C@_0O@IGHNBNGC@?5?5?5options?3?6?6@ 00000001400a7448     CmdLineInterface.obj
 0002:0000a458       ??_C@_09BKMLAGIN@?5?5?5?5?5?5?$CFs?6@ 00000001400a7458     CmdLineInterface.obj
 0002:0000a468       ??_C@_07LFFNHEBN@?$CFs?$FL?3?$CFs?$FN@ 00000001400a7468     CmdParam.obj
 0002:0000a470       ??_C@_05CCMOGDN@?$CFs?3?$CFs@ 00000001400a7470     CmdParam.obj
 0002:0000a478       ??_C@_08FEPILOB@?1?$CF?924s?$CFs@ 00000001400a7478     CmdParam.obj
 0002:0000a488       ??_7CmdParamFlags@@6B@     00000001400a7488     CmdParamFlags.obj
 0002:0000a4a0       ??_C@_01HCONENDN@?$HL@     00000001400a74a0     CmdParamFlags.obj
 0002:0000a4a4       ??_C@_01DNKMNLPK@?$HM@     00000001400a74a4     CmdParamFlags.obj
 0002:0000a4a8       ??_C@_0BE@LHFMHEMF@unknown?5argument?5?$CFs@ 00000001400a74a8     CmdParamFlags.obj
 0002:0000a4c0       ??_7CmdParamInt@@6B@       00000001400a74c0     CmdParamInt.obj
 0002:0000a4d8       ??_C@_04PEOOHEKN@?$CFd?$CFc@ 00000001400a74d8     CmdParamInt.obj
 0002:0000a4e0       ??_C@_0DA@BNKHLCAG@argument?5is?5not?5within?5the?5lega@ 00000001400a74e0     CmdParamInt.obj
 0002:0000a510       ??_C@_0BK@HJCFFFKP@expected?5integer?5argument@ 00000001400a7510     CmdParamInt.obj
 0002:0000a530       ??_7CmdParamMultiAssign@@6B@ 00000001400a7530     CmdParamMultiAssign.obj
 0002:0000a548       ??_C@_0BN@MOMEBLFE@identifier?5must?5be?5non?5empty@ 00000001400a7548     CmdParamMultiAssign.obj
 0002:0000a568       ??_C@_0BP@BLCEBHPL@argument?5must?5be?5an?5assignment@ 00000001400a7568     CmdParamMultiAssign.obj
 0002:0000a588       ??_C@_0CN@CDCELBAI@argument?5must?5contain?5exactly?5o@ 00000001400a7588     CmdParamMultiAssign.obj
 0002:0000a5b8       ??_7CmdParamString@@6B@    00000001400a75b8     CmdParamString.obj
 0002:0000a5d0       ??_7CmdParamSwitch@@6B@    00000001400a75d0     CmdParamSwitch.obj
 0002:0000a5e8       ??_7HunkLoader@@6B@        00000001400a75e8     CoffLibraryLoader.obj
 0002:0000a600       ??_7CoffObjectLoader@@6B@  00000001400a7600     CoffLibraryLoader.obj
 0002:0000a618       ??_C@_05LJNAGFEK@?$CFs?$HM?$CFd@ 00000001400a7618     CoffLibraryLoader.obj
 0002:0000a620       ??_C@_09LGGENLMM@stub_for_@ 00000001400a7620     CoffLibraryLoader.obj
 0002:0000a630       __xmm@000000000000000f0000000000000009 00000001400a7630     CoffLibraryLoader.obj
 0002:0000a640       ??_C@_0BA@OBIGDAID@c?$FL?$CFs?$FN?$CBconstants@ 00000001400a7640     CoffObjectLoader.obj
 0002:0000a650       ??_C@_0N@EKICPMOH@h?$FL?$CFs?$FN?$CI?$CFd?$CJ?$CB?$CFs@ 00000001400a7650     CoffObjectLoader.obj
 0002:0000a660       ??_C@_0N@PGOCCEEK@l?$FL?$CFs?$CI?$CFd?$CJ?$FN?$CB?$CFs@ 00000001400a7660     CoffObjectLoader.obj
 0002:0000a670       ??_C@_08FJCEIGBA@u?$FL?$CFs?$FN?$CB?$CFs@ 00000001400a7670     CoffObjectLoader.obj
 0002:0000a680       ??_7MultiLoader@@6B@       00000001400a7680     MultiLoader.obj
 0002:0000a698       ??_7CoffLibraryLoader@@6B@ 00000001400a7698     MultiLoader.obj
 0002:0000a6b0       ??_7LTCGLoader@@6B@        00000001400a76b0     MultiLoader.obj
 0002:0000a6c8       ??_C@_0L@OBDLOJAH@?5?5?$CFs?3?5?$CF?42f@ 00000001400a76c8     EmpiricalHunkSorter.obj
 0002:0000a6d8       ??_C@_0BP@NOOIOFJD@?5?5Iteration?3?5?$CF5d?5?5Size?3?5?$CF5?42f?6@ 00000001400a76d8     EmpiricalHunkSorter.obj
 0002:0000a6f8       ??_C@_0BB@HOMGCPO@?5?5Iteration?3?5?$CF5d@ 00000001400a76f8     EmpiricalHunkSorter.obj
 0002:0000a710       ??_C@_0P@FOEICEFD@?5?5Size?3?5?$CF5?42f?6@ 00000001400a7710     EmpiricalHunkSorter.obj
 0002:0000a720       ??_C@_0BK@NNAEOHAJ@?6?6Reordering?5sections?4?4?4?6@ 00000001400a7720     EmpiricalHunkSorter.obj
 0002:0000a740       ??_C@_0BE@DIGLOIJK@Reordering?5sections@ 00000001400a7740     EmpiricalHunkSorter.obj
 0002:0000a758       ??_C@_0BG@EFLFEGCA@Time?5spent?3?5?$CFdm?$CF02ds?6@ 00000001400a7758     EmpiricalHunkSorter.obj
 0002:0000a860       ??_C@_0BB@JECAAK@call?5detransform@ 00000001400a7860     CallTransform.obj
 0002:0000a878       ??_C@_0BD@JCJENKGJ@call?5detransformer@ 00000001400a7878     CallTransform.obj
 0002:0000a890       ??_C@_0L@FLDFHIOH@_CallTrans@ 00000001400a7890     CallTransform.obj
 0002:0000a8a0       ??_C@_0BI@FBALKNOI@?6Calls?5transformed?3?5?$CFd?6@ 00000001400a78a0     CallTransform.obj
 0002:0000a8b8       ??_C@_0P@DHLDHFFF@_CallTransSize@ 00000001400a78b8     CallTransform.obj
 0002:0000a8c8       ??_C@_0CL@DLNPOEHI@No?5calls?5?9?5call?5transformation?5@ 00000001400a78c8     CallTransform.obj
 0002:0000a8f4       ??_C@_04KHMCCJKM@Stub@     00000001400a78f4     Transform.obj
 0002:0000a900       ??_C@_08PHGBCJAH@?6?$HM?9?9?5?$CFs?5@ 00000001400a7900     ConsoleProgressBar.obj
 0002:0000a90c       ??_C@_02KHLKFPFD@?$HM?6@   00000001400a790c     ConsoleProgressBar.obj
 0002:0000a910       ??_C@_0M@PIHHDJKD@?5?$CF3dm?$CF02ds?6@ 00000001400a7910     ConsoleProgressBar.obj
 0002:0000a920       ??_C@_09DMMGBKDP@?$CFd?$CF?$CF?5?9?5?$CFs@ 00000001400a7920     WindowProgressBar.obj
 0002:0000a930       ??_C@_09PLNDHFIO@?$CF3dm?$CF02ds@ 00000001400a7930     WindowProgressBar.obj
 0002:0000a93c       ??_C@_01CLKCMJKC@?5@       00000001400a793c     Compressor:ModelList.obj
 0002:0000a940       ??_C@_09IEIKHJKM@?$CFs?$CF02X?3?$CFd@ 00000001400a7940     Compressor:ModelList.obj
 0002:0000a950       ??_C@_0CO@LGBKBLBJ@Models?3?5?$CF08X?5?5?5Boost?3?5?$CFd?5?5BaseP@ 00000001400a7950     Compressor:ModelList.obj
 0002:0000a990       __xmm@711705110d0b071303171d1f25292b2f 00000001400a7990     Compressor:CompressionStream.obj
 0002:0000a9a0       ??_C@_07NFANNNEC@UNKNOWN@  00000001400a79a0     Compressor:Compressor.obj
 0002:0000a9b0       ??_7?$_Func_impl_no_alloc@P6A_JXZ_J$$V@std@@6B@ 00000001400a79b0     Compressor:CompressionStateEvaluator.obj
 0002:0000a9e0       __xmm@007fffff007fffff007fffff007fffff 00000001400a79e0     Compressor:CompressionStateEvaluator.obj
 0002:0000a9f0       __xmm@3e230a963e230a963e230a963e230a96 00000001400a79f0     Compressor:CompressionStateEvaluator.obj
 0002:0000aa00       __xmm@3f8000003f8000003f8000003f800000 00000001400a7a00     Compressor:CompressionStateEvaluator.obj
 0002:0000aa10       __xmm@3fb620733fb620733fb620733fb62073 00000001400a7a10     Compressor:CompressionStateEvaluator.obj
 0002:0000aa20       __xmm@45800000458000004580000045800000 00000001400a7a20     Compressor:CompressionStateEvaluator.obj
 0002:0000aa30       __xmm@bf15038cbf15038cbf15038cbf15038c 00000001400a7a30     Compressor:CompressionStateEvaluator.obj
 0002:0000cf70       __xmm@ffffffffffffffffffffffffffffffff 00000001400a9f70     libcpmt:vector_algorithms.obj
 0002:0000cf80       __ymm@0000001f0000001f0000001f0000001f0000001f0000001f0000001f0000001f 00000001400a9f80     libcpmt:vector_algorithms.obj
 0002:0000cfa8       ??_7exception@std@@6B@     00000001400a9fa8     libcpmt:xthrow.obj
 0002:0000cfc0       ??_7bad_alloc@std@@6B@     00000001400a9fc0     libcpmt:xthrow.obj
 0002:0000cfd8       ??_7bad_function_call@std@@6B@ 00000001400a9fd8     libcpmt:xthrow.obj
 0002:0000cfe8       ??_C@_0BC@DPJNKNAF@bad?5function?5call@ 00000001400a9fe8     libcpmt:xthrow.obj
 0002:0000d008       ??_7logic_error@std@@6B@   00000001400aa008     libcpmt:xthrow.obj
 0002:0000d020       ??_7invalid_argument@std@@6B@ 00000001400aa020     libcpmt:xthrow.obj
 0002:0000d038       ??_7length_error@std@@6B@  00000001400aa038     libcpmt:xthrow.obj
 0002:0000d050       ??_7out_of_range@std@@6B@  00000001400aa050     libcpmt:xthrow.obj
 0002:0000d068       ??_7runtime_error@std@@6B@ 00000001400aa068     libcpmt:xthrow.obj
 0002:0000d0d0       ??_C@_0BI@NGCEHDD@device?5or?5resource?5busy@ 00000001400aa0d0     libcpmt:thread0.obj
 0002:0000d0e8       ??_C@_0BB@FCMFBGOM@invalid?5argument@ 00000001400aa0e8     libcpmt:thread0.obj
 0002:0000d100       ??_C@_0BA@ENLPPKBN@no?5such?5process@ 00000001400aa100     libcpmt:thread0.obj
 0002:0000d110       ??_C@_0BC@ENOOLCNF@not?5enough?5memory@ 00000001400aa110     libcpmt:thread0.obj
 0002:0000d128       ??_C@_0BI@OHIEJAAB@operation?5not?5permitted@ 00000001400aa128     libcpmt:thread0.obj
 0002:0000d140       ??_C@_0BO@BJBOMOEJ@resource?5deadlock?5would?5occur@ 00000001400aa140     libcpmt:thread0.obj
 0002:0000d160       ??_C@_0BP@LKNGHENJ@resource?5unavailable?5try?5again@ 00000001400aa160     libcpmt:thread0.obj
 0002:0000d188       ??_7bad_array_new_length@std@@6B@ 00000001400aa188     libcpmt:thread0.obj
 0002:0000d1a0       ??_7_System_error@std@@6B@ 00000001400aa1a0     libcpmt:thread0.obj
 0002:0000d1b8       ??_7system_error@std@@6B@  00000001400aa1b8     libcpmt:thread0.obj
 0002:0000d1d0       ??_7_Generic_error_category@std@@6B@ 00000001400aa1d0     libcpmt:thread0.obj
 0002:0000d208       ??_7_Facet_base@std@@6B@   00000001400aa208     libcpmt:locale0.obj
 0002:0000d228       ??_7_Locimp@locale@std@@6B@ 00000001400aa228     libcpmt:locale0.obj
 0002:0000d240       ??_C@_01NBENCBCI@?$CK@     00000001400aa240     libcpmt:locale0.obj
 0002:0000d244       ??_C@_01GFHCPBMG@C@        00000001400aa244     libcpmt:locale0.obj
 0002:0000d250       ?__DOUBLE_POW5_INV_SPLIT@std@@3QAY01$$CB_KA 00000001400aa250     libcpmt:xcharconv_ryu_tables.obj
 0002:0000e490       ?__DOUBLE_POW5_SPLIT@std@@3QAY01$$CB_KA 00000001400ab490     libcpmt:xcharconv_ryu_tables.obj
 0002:0000f8f0       ?__POW10_SPLIT@std@@3QAY02$$CB_KA 00000001400ac8f0     libcpmt:xcharconv_ryu_tables.obj
 0002:00016bb0       ?__POW10_SPLIT_2@std@@3QAY02$$CB_KA 00000001400b3bb0     libcpmt:xcharconv_ryu_tables.obj
 0002:00029170       ?_Special_X_table@?$_General_precision_tables_2@M@std@@2QBIB 00000001400c6170     libcpmt:xcharconv_tables_float.obj
 0002:00029270       ?_Ordinary_X_table@?$_General_precision_tables_2@M@std@@2QBIB 00000001400c6270     libcpmt:xcharconv_tables_float.obj
 0002:00029320       ?_Special_X_table@?$_General_precision_tables_2@N@std@@2QB_KB 00000001400c6320     libcpmt:xcharconv_tables_double.obj
 0002:00029940       ?_Ordinary_X_table@?$_General_precision_tables_2@N@std@@2QB_KB 00000001400c6940     libcpmt:xcharconv_tables_double.obj
 0002:0002a310       ?nothrow@std@@3Unothrow_t@1@B 00000001400c7310     libcpmt:nothrow.obj
 0002:0002a318       ??_C@_1BK@MGMFAEKH@?$AAk?$AAe?$AAr?$AAn?$AAe?$AAl?$AA3?$AA2?$AA?4?$AAd?$AAl?$AAl@ 00000001400c7318     libcpmt:filesystem.obj
 0002:0002a338       ??_C@_0O@NNMIPI@GetTempPath2W@ 00000001400c7338     libcpmt:filesystem.obj
 0002:0002a450       ??_C@_1CM@BFAMBNFD@?$AA?$CB?$AAx?$AA?9?$AAs?$AAy?$AAs?$AA?9?$AAd?$AAe?$AAf?$AAa?$AAu?$AAl?$AAt?$AA?9@ 00000001400c7450     libcpmt:syserror_import_lib.obj
 0002:0002ac10       ??_C@_07IPNMCAN@success@   00000001400c7c10     libcpmt:syserror.obj
 0002:0002ac18       ??_C@_0BN@LKKBCCDB@address?5family?5not?5supported@ 00000001400c7c18     libcpmt:syserror.obj
 0002:0002ac38       ??_C@_0P@LDMLAFHI@address?5in?5use@ 00000001400c7c38     libcpmt:syserror.obj
 0002:0002ac48       ??_C@_0BG@DHPCNBJB@address?5not?5available@ 00000001400c7c48     libcpmt:syserror.obj
 0002:0002ac60       ??_C@_0BC@DFIBIBIL@already?5connected@ 00000001400c7c60     libcpmt:syserror.obj
 0002:0002ac78       ??_C@_0BH@CAKOHOMI@argument?5list?5too?5long@ 00000001400c7c78     libcpmt:syserror.obj
 0002:0002ac90       ??_C@_0BH@CGIMPKIM@argument?5out?5of?5domain@ 00000001400c7c90     libcpmt:syserror.obj
 0002:0002aca8       ??_C@_0M@KGHGGJGL@bad?5address@ 00000001400c7ca8     libcpmt:syserror.obj
 0002:0002acb8       ??_C@_0BE@MPJPGCEO@bad?5file?5descriptor@ 00000001400c7cb8     libcpmt:syserror.obj
 0002:0002acd0       ??_C@_0M@PMMIEFCP@bad?5message@ 00000001400c7cd0     libcpmt:syserror.obj
 0002:0002ace0       ??_C@_0M@KPHOFDBE@broken?5pipe@ 00000001400c7ce0     libcpmt:syserror.obj
 0002:0002acf0       ??_C@_0BD@MGNDDEGM@connection?5aborted@ 00000001400c7cf0     libcpmt:syserror.obj
 0002:0002ad08       ??_C@_0BP@KAIHPOGN@connection?5already?5in?5progress@ 00000001400c7d08     libcpmt:syserror.obj
 0002:0002ad28       ??_C@_0BD@PJLIIJEL@connection?5refused@ 00000001400c7d28     libcpmt:syserror.obj
 0002:0002ad40       ??_C@_0BB@IECNJNOI@connection?5reset@ 00000001400c7d40     libcpmt:syserror.obj
 0002:0002ad58       ??_C@_0BC@PPHBOELF@cross?5device?5link@ 00000001400c7d58     libcpmt:syserror.obj
 0002:0002ad70       ??_C@_0BN@KDMIFEIP@destination?5address?5required@ 00000001400c7d70     libcpmt:syserror.obj
 0002:0002ad90       ??_C@_0BE@JIDOCPHM@directory?5not?5empty@ 00000001400c7d90     libcpmt:syserror.obj
 0002:0002ada8       ??_C@_0BI@BNCLIGPB@executable?5format?5error@ 00000001400c7da8     libcpmt:syserror.obj
 0002:0002adc0       ??_C@_0M@MIDIAGJP@file?5exists@ 00000001400c7dc0     libcpmt:syserror.obj
 0002:0002add0       ??_C@_0P@DNAJLBJK@file?5too?5large@ 00000001400c7dd0     libcpmt:syserror.obj
 0002:0002ade0       ??_C@_0BC@EJHOMAAK@filename?5too?5long@ 00000001400c7de0     libcpmt:syserror.obj
 0002:0002adf8       ??_C@_0BH@KEFGLDAF@function?5not?5supported@ 00000001400c7df8     libcpmt:syserror.obj
 0002:0002ae10       ??_C@_0BB@DHFDFGDM@host?5unreachable@ 00000001400c7e10     libcpmt:syserror.obj
 0002:0002ae28       ??_C@_0BD@JPHBMONG@identifier?5removed@ 00000001400c7e28     libcpmt:syserror.obj
 0002:0002ae40       ??_C@_0BG@CDNPAGJK@illegal?5byte?5sequence@ 00000001400c7e40     libcpmt:syserror.obj
 0002:0002ae58       ??_C@_0CD@BNPLBMNA@inappropriate?5io?5control?5operat@ 00000001400c7e58     libcpmt:syserror.obj
 0002:0002ae80       ??_C@_0M@EGEKIIMP@interrupted@ 00000001400c7e80     libcpmt:syserror.obj
 0002:0002ae90       ??_C@_0N@OHAFKDEK@invalid?5seek@ 00000001400c7e90     libcpmt:syserror.obj
 0002:0002aea0       ??_C@_08GLNPIFBN@io?5error@ 00000001400c7ea0     libcpmt:syserror.obj
 0002:0002aeb0       ??_C@_0P@FLLDBIDK@is?5a?5directory@ 00000001400c7eb0     libcpmt:syserror.obj
 0002:0002aec0       ??_C@_0N@IFLPBIOP@message?5size@ 00000001400c7ec0     libcpmt:syserror.obj
 0002:0002aed0       ??_C@_0N@KIIEAAIO@network?5down@ 00000001400c7ed0     libcpmt:syserror.obj
 0002:0002aee0       ??_C@_0O@FNPDBHEE@network?5reset@ 00000001400c7ee0     libcpmt:syserror.obj
 0002:0002aef0       ??_C@_0BE@IFNCKGE@network?5unreachable@ 00000001400c7ef0     libcpmt:syserror.obj
 0002:0002af08       ??_C@_0BA@PFFCAOFK@no?5buffer?5space@ 00000001400c7f08     libcpmt:syserror.obj
 0002:0002af18       ??_C@_0BB@IEPBLJHK@no?5child?5process@ 00000001400c7f18     libcpmt:syserror.obj
 0002:0002af30       ??_C@_07PLECNNKG@no?5link@ 00000001400c7f30     libcpmt:syserror.obj
 0002:0002af38       ??_C@_0BC@NJECKMKE@no?5lock?5available@ 00000001400c7f38     libcpmt:syserror.obj
 0002:0002af50       ??_C@_0BF@PBGGPKKE@no?5message?5available@ 00000001400c7f50     libcpmt:syserror.obj
 0002:0002af68       ??_C@_0L@EDOLMPAK@no?5message@ 00000001400c7f68     libcpmt:syserror.obj
 0002:0002af78       ??_C@_0BD@EAMBFIDF@no?5protocol?5option@ 00000001400c7f78     libcpmt:syserror.obj
 0002:0002af90       ??_C@_0BD@IJDJKDEA@no?5space?5on?5device@ 00000001400c7f90     libcpmt:syserror.obj
 0002:0002afa8       ??_C@_0BE@MKFDAFMP@no?5stream?5resources@ 00000001400c7fa8     libcpmt:syserror.obj
 0002:0002afc0       ??_C@_0BK@IMCPHCBI@no?5such?5device?5or?5address@ 00000001400c7fc0     libcpmt:syserror.obj
 0002:0002afe0       ??_C@_0P@FDINDDOK@no?5such?5device@ 00000001400c7fe0     libcpmt:syserror.obj
 0002:0002aff0       ??_C@_0BK@NDOCBPGE@no?5such?5file?5or?5directory@ 00000001400c7ff0     libcpmt:syserror.obj
 0002:0002b010       ??_C@_0BA@DOCPFFJG@not?5a?5directory@ 00000001400c8010     libcpmt:syserror.obj
 0002:0002b020       ??_C@_0N@POEIPGGF@not?5a?5socket@ 00000001400c8020     libcpmt:syserror.obj
 0002:0002b030       ??_C@_0N@LGAPMMPI@not?5a?5stream@ 00000001400c8030     libcpmt:syserror.obj
 0002:0002b040       ??_C@_0O@GLMIBBEG@not?5connected@ 00000001400c8040     libcpmt:syserror.obj
 0002:0002b050       ??_C@_0O@NHEDABJP@not?5supported@ 00000001400c8050     libcpmt:syserror.obj
 0002:0002b060       ??_C@_0BD@MOLBPMEA@operation?5canceled@ 00000001400c8060     libcpmt:syserror.obj
 0002:0002b078       ??_C@_0BG@KDKHOPCO@operation?5in?5progress@ 00000001400c8078     libcpmt:syserror.obj
 0002:0002b090       ??_C@_0BI@LNEGIFLN@operation?5not?5supported@ 00000001400c8090     libcpmt:syserror.obj
 0002:0002b0a8       ??_C@_0BG@OEMDKMEE@operation?5would?5block@ 00000001400c80a8     libcpmt:syserror.obj
 0002:0002b0c0       ??_C@_0L@BLPOFLNJ@owner?5dead@ 00000001400c80c0     libcpmt:syserror.obj
 0002:0002b0d0       ??_C@_0BC@CIJDGCDI@permission?5denied@ 00000001400c80d0     libcpmt:syserror.obj
 0002:0002b0e8       ??_C@_0P@FNPOCJBE@protocol?5error@ 00000001400c80e8     libcpmt:syserror.obj
 0002:0002b0f8       ??_C@_0BH@JPPPLHJB@protocol?5not?5supported@ 00000001400c80f8     libcpmt:syserror.obj
 0002:0002b110       ??_C@_0BG@EICBIHDP@read?5only?5file?5system@ 00000001400c8110     libcpmt:syserror.obj
 0002:0002b128       ??_C@_0BE@GOIPJJHG@result?5out?5of?5range@ 00000001400c8128     libcpmt:syserror.obj
 0002:0002b140       ??_C@_0BG@MPLKFPAE@state?5not?5recoverable@ 00000001400c8140     libcpmt:syserror.obj
 0002:0002b158       ??_C@_0P@DIIFGFCG@stream?5timeout@ 00000001400c8158     libcpmt:syserror.obj
 0002:0002b168       ??_C@_0P@IPFDMIFL@text?5file?5busy@ 00000001400c8168     libcpmt:syserror.obj
 0002:0002b178       ??_C@_09KJPPMAOI@timed?5out@ 00000001400c8178     libcpmt:syserror.obj
 0002:0002b188       ??_C@_0BO@HACHBEKI@too?5many?5files?5open?5in?5system@ 00000001400c8188     libcpmt:syserror.obj
 0002:0002b1a8       ??_C@_0BE@GHAFMPAH@too?5many?5files?5open@ 00000001400c81a8     libcpmt:syserror.obj
 0002:0002b1c0       ??_C@_0P@HCOMKFCC@too?5many?5links@ 00000001400c81c0     libcpmt:syserror.obj
 0002:0002b1d0       ??_C@_0BO@EFGOJEF@too?5many?5symbolic?5link?5levels@ 00000001400c81d0     libcpmt:syserror.obj
 0002:0002b1f0       ??_C@_0BA@KGKGOOJA@value?5too?5large@ 00000001400c81f0     libcpmt:syserror.obj
 0002:0002b200       ??_C@_0BE@MIEJDDNH@wrong?5protocol?5type@ 00000001400c8200     libcpmt:syserror.obj
 0002:0002b218       ??_C@_0O@BFJCFAAK@unknown?5error@ 00000001400c8218     libcpmt:syserror.obj
 0002:0002b230       ??_7bad_cast@std@@6B@      00000001400c8230     libcpmt:locale.obj
 0002:0002b248       ??_7?$numpunct@D@std@@6B@  00000001400c8248     libcpmt:locale.obj
 0002:0002b288       ??_C@_0BP@FPNJPEJC@GetSystemTimePreciseAsFileTime@ 00000001400c8288     libcpmt:winapisupp.obj
 0002:0002b2a8       ??_C@_11LOCGONAA@@         00000001400c82a8     libcpmt:wlocale.obj
 0002:0002b2ac       ??_C@_13IMODFHAA@?$AA?9@   00000001400c82ac     libcpmt:wlocale.obj
 0002:0002b350       ?s_bucketSizes@SubAllocator@details@Concurrency@@0QBHB 00000001400c8350     libconcrt:SubAllocator.obj
 0002:0002b4d0       ?GranularityShift@SubAllocator@details@Concurrency@@0HB 00000001400c84d0     libconcrt:SubAllocator.obj
 0002:0002b4d4       ?MaxAllocationSize@SubAllocator@details@Concurrency@@0HB 00000001400c84d4     libconcrt:SubAllocator.obj
 0002:0002b4e0       ??_7improper_lock@Concurrency@@6B@ 00000001400c84e0     libconcrt:rtlocks.obj
 0002:0002b4f0       ??_C@_0BD@BAGHDICJ@Lock?5already?5taken@ 00000001400c84f0     libconcrt:rtlocks.obj
 0002:0002b510       ??_7scheduler_resource_allocation_error@Concurrency@@6B@ 00000001400c8510     libconcrt:utils.obj
 0002:0002b528       ??_7_Interruption_exception@details@Concurrency@@6B@ 00000001400c8528     libconcrt:Chores.obj
 0002:0002b540       ??_7missing_wait@Concurrency@@6B@ 00000001400c8540     libconcrt:Chores.obj
 0002:0002b558       ??_7_RefCounter@details@Concurrency@@6B@ 00000001400c8558     libconcrt:Chores.obj
 0002:0002b570       ??_7CancellationTokenRegistration_TaskProc@details@Concurrency@@6B@ 00000001400c8570     libconcrt:Chores.obj
 0002:0002b590       ??_7invalid_multiple_scheduling@Concurrency@@6B@ 00000001400c8590     libconcrt:TaskCollection.obj
 0002:0002b5a8       ??_7?$_MallocaArrayHolder@PEAVevent@Concurrency@@@details@Concurrency@@6B@ 00000001400c85a8     libconcrt:TaskCollection.obj
 0002:0002b5b8       ??_7Context@Concurrency@@6B@ 00000001400c85b8     libconcrt:ContextBase.obj
 0002:0002b5f0       ??_7ContextBase@details@Concurrency@@6B@ 00000001400c85f0     libconcrt:ContextBase.obj
 0002:0002b680       ?ConcRT_ProviderGuid@Concurrency@@3U_GUID@@B 00000001400c8680     libconcrt:Trace.obj
 0002:0002b690       ?ConcRTEventGuid@Concurrency@@3U_GUID@@B 00000001400c8690     libconcrt:Trace.obj
 0002:0002b6a0       ?SchedulerEventGuid@Concurrency@@3U_GUID@@B 00000001400c86a0     libconcrt:Trace.obj
 0002:0002b6b0       ?ScheduleGroupEventGuid@Concurrency@@3U_GUID@@B 00000001400c86b0     libconcrt:Trace.obj
 0002:0002b6c0       ?ContextEventGuid@Concurrency@@3U_GUID@@B 00000001400c86c0     libconcrt:Trace.obj
 0002:0002b6d0       ?ChoreEventGuid@Concurrency@@3U_GUID@@B 00000001400c86d0     libconcrt:Trace.obj
 0002:0002b6e0       ?VirtualProcessorEventGuid@Concurrency@@3U_GUID@@B 00000001400c86e0     libconcrt:Trace.obj
 0002:0002b6f0       ?LockEventGuid@Concurrency@@3U_GUID@@B 00000001400c86f0     libconcrt:Trace.obj
 0002:0002b700       ?ResourceManagerEventGuid@Concurrency@@3U_GUID@@B 00000001400c8700     libconcrt:Trace.obj
 0002:0002b710       ?PPLParallelInvokeEventGuid@Concurrency@@3U_GUID@@B 00000001400c8710     libconcrt:Trace.obj
 0002:0002b720       ?PPLParallelForEventGuid@Concurrency@@3U_GUID@@B 00000001400c8720     libconcrt:Trace.obj
 0002:0002b730       ?PPLParallelForeachEventGuid@Concurrency@@3U_GUID@@B 00000001400c8730     libconcrt:Trace.obj
 0002:0002b740       ?AgentEventGuid@Concurrency@@3U_GUID@@B 00000001400c8740     libconcrt:Trace.obj
 0002:0002b750       ??_C@_1BK@JHLNAEJL@?$AAa?$AAd?$AAv?$AAa?$AAp?$AAi?$AA3?$AA2?$AA?4?$AAd?$AAl?$AAl@ 00000001400c8750     libconcrt:Trace.obj
 0002:0002b770       ??_C@_0BE@FKJMGMF@RegisterTraceGuidsW@ 00000001400c8770     libconcrt:Trace.obj
 0002:0002b788       ??_C@_0BF@OFMMALCC@UnregisterTraceGuids@ 00000001400c8788     libconcrt:Trace.obj
 0002:0002b7a0       ??_C@_0L@EOLEDHLE@TraceEvent@ 00000001400c87a0     libconcrt:Trace.obj
 0002:0002b7b0       ??_C@_0BF@OFCGPMKL@GetTraceLoggerHandle@ 00000001400c87b0     libconcrt:Trace.obj
 0002:0002b7c8       ??_C@_0BE@JCHMKLLJ@GetTraceEnableLevel@ 00000001400c87c8     libconcrt:Trace.obj
 0002:0002b7e0       ??_C@_0BE@DNOHFPHI@GetTraceEnableFlags@ 00000001400c87e0     libconcrt:Trace.obj
 0002:0002b814       ?s_maxExternalAllocators@SchedulerBase@details@Concurrency@@0HB 00000001400c8814     libconcrt:SchedulerBase.obj
 0002:0002b818       ?s_allocatorFreePoolLimit@SchedulerBase@details@Concurrency@@0HB 00000001400c8818     libconcrt:SchedulerBase.obj
 0002:0002b828       ??_7improper_scheduler_attach@Concurrency@@6B@ 00000001400c8828     libconcrt:SchedulerBase.obj
 0002:0002b840       ??_7improper_scheduler_reference@Concurrency@@6B@ 00000001400c8840     libconcrt:SchedulerBase.obj
 0002:0002b858       ??_7ScheduleGroup@Concurrency@@6B@ 00000001400c8858     libconcrt:SchedulerBase.obj
 0002:0002b888       ??_7Scheduler@Concurrency@@6B@ 00000001400c8888     libconcrt:SchedulerBase.obj
 0002:0002b8f8       ??_7_Chore@details@Concurrency@@6B@ 00000001400c88f8     libconcrt:SchedulerBase.obj
 0002:0002b908       ??_7RealizedChore@details@Concurrency@@6B@ 00000001400c8908     libconcrt:SchedulerBase.obj
 0002:0002b918       ??_7SchedulerBase@details@Concurrency@@6B@ 00000001400c8918     libconcrt:SchedulerBase.obj
 0002:0002b9e0       ??_7CacheLocalScheduleGroupSegment@details@Concurrency@@6B@ 00000001400c89e0     libconcrt:SchedulerBase.obj
 0002:0002ba08       ??_7CacheLocalScheduleGroup@details@Concurrency@@6B@ 00000001400c8a08     libconcrt:SchedulerBase.obj
 0002:0002ba60       ??_7FairScheduleGroupSegment@details@Concurrency@@6B@ 00000001400c8a60     libconcrt:SchedulerBase.obj
 0002:0002ba88       ??_7FairScheduleGroup@details@Concurrency@@6B@ 00000001400c8a88     libconcrt:SchedulerBase.obj
 0002:0002bad8       ??_C@_0M@IAPOLKMH@eventObject@ 00000001400c8ad8     libconcrt:SchedulerBase.obj
 0002:0002bae8       ??_C@_0BI@PMOAFEOC@ppVirtualProcessorRoots@ 00000001400c8ae8     libconcrt:SchedulerBase.obj
 0002:0002bb00       ??_C@_05IOMEMJEC@count@    00000001400c8b00     libconcrt:SchedulerBase.obj
 0002:0002bb10       ??_7scheduler_worker_creation_error@Concurrency@@6B@ 00000001400c8b10     libconcrt:Exceptions.obj
 0002:0002bb28       ??_7context_unblock_unbalanced@Concurrency@@6B@ 00000001400c8b28     libconcrt:Exceptions.obj
 0002:0002bb40       ??_7context_self_unblock@Concurrency@@6B@ 00000001400c8b40     libconcrt:Exceptions.obj
 0002:0002bb58       ??_7invalid_scheduler_policy_key@Concurrency@@6B@ 00000001400c8b58     libconcrt:Exceptions.obj
 0002:0002bb70       ??_7invalid_scheduler_policy_value@Concurrency@@6B@ 00000001400c8b70     libconcrt:Exceptions.obj
